
tbox.elf:     file format elf32-sparc

Disassembly of section .text:

a0000000 <_trap_table>:
a0000000:	88 10 00 00 	mov  %g0, %g4
a0000004:	09 28 00 22 	sethi  %hi(0xa0008800), %g4
a0000008:	81 c1 20 04 	jmp  %g4 + 4	! a0008804 <_hardreset_mvt>
a000000c:	01 00 00 00 	nop 
a0000010:	a1 48 00 00 	rd  %psr, %l0
a0000014:	a7 50 00 00 	rd  %wim, %l3
a0000018:	10 80 21 f5 	b  a00087ec <_srmmu_fault>
a000001c:	ac 10 20 01 	mov  1, %l6
a0000020:	91 d0 20 00 	ta  0
a0000024:	01 00 00 00 	nop 
a0000028:	01 00 00 00 	nop 
a000002c:	01 00 00 00 	nop 
a0000030:	91 d0 20 00 	ta  0
a0000034:	01 00 00 00 	nop 
a0000038:	01 00 00 00 	nop 
a000003c:	01 00 00 00 	nop 
a0000040:	a1 48 00 00 	rd  %psr, %l0
a0000044:	29 28 00 21 	sethi  %hi(0xa0008400), %l4
a0000048:	81 c5 23 40 	jmp  %l4 + 0x340	! a0008740 <_fpdis>
a000004c:	01 00 00 00 	nop 
a0000050:	a1 48 00 00 	rd  %psr, %l0
a0000054:	29 28 00 1e 	sethi  %hi(0xa0007800), %l4
a0000058:	81 c5 23 58 	jmp  %l4 + 0x358	! a0007b58 <__window_overflow_rettseq>
a000005c:	01 00 00 00 	nop 
a0000060:	a1 48 00 00 	rd  %psr, %l0
a0000064:	29 28 00 1e 	sethi  %hi(0xa0007800), %l4
a0000068:	81 c5 23 c4 	jmp  %l4 + 0x3c4	! a0007bc4 <_window_underflow>
a000006c:	01 00 00 00 	nop 
a0000070:	91 d0 20 00 	ta  0
a0000074:	01 00 00 00 	nop 
a0000078:	01 00 00 00 	nop 
a000007c:	01 00 00 00 	nop 
a0000080:	91 d0 20 00 	ta  0
a0000084:	01 00 00 00 	nop 
a0000088:	01 00 00 00 	nop 
a000008c:	01 00 00 00 	nop 
a0000090:	a1 48 00 00 	rd  %psr, %l0
a0000094:	a7 50 00 00 	rd  %wim, %l3
a0000098:	10 80 21 d5 	b  a00087ec <_srmmu_fault>
a000009c:	ac 10 20 09 	mov  9, %l6
a00000a0:	91 d0 20 00 	ta  0
a00000a4:	01 00 00 00 	nop 
a00000a8:	01 00 00 00 	nop 
a00000ac:	01 00 00 00 	nop 
a00000b0:	91 d0 20 00 	ta  0
a00000b4:	01 00 00 00 	nop 
a00000b8:	01 00 00 00 	nop 
a00000bc:	01 00 00 00 	nop 
a00000c0:	91 d0 20 00 	ta  0
a00000c4:	01 00 00 00 	nop 
a00000c8:	01 00 00 00 	nop 
a00000cc:	01 00 00 00 	nop 
a00000d0:	91 d0 20 00 	ta  0
a00000d4:	01 00 00 00 	nop 
a00000d8:	01 00 00 00 	nop 
a00000dc:	01 00 00 00 	nop 
a00000e0:	91 d0 20 00 	ta  0
a00000e4:	01 00 00 00 	nop 
a00000e8:	01 00 00 00 	nop 
a00000ec:	01 00 00 00 	nop 
a00000f0:	91 d0 20 00 	ta  0
a00000f4:	01 00 00 00 	nop 
a00000f8:	01 00 00 00 	nop 
a00000fc:	01 00 00 00 	nop 
a0000100:	91 d0 20 00 	ta  0
a0000104:	01 00 00 00 	nop 
a0000108:	01 00 00 00 	nop 
a000010c:	01 00 00 00 	nop 
a0000110:	ae 10 20 01 	mov  1, %l7	! 1 <_trap_table-0x9fffffff>
a0000114:	a1 48 00 00 	rd  %psr, %l0
a0000118:	10 80 1f 57 	b  a0007e74 <leonbare_irq_entry>
a000011c:	a7 50 00 00 	rd  %wim, %l3
a0000120:	ae 10 20 02 	mov  2, %l7
a0000124:	a1 48 00 00 	rd  %psr, %l0
a0000128:	10 80 1f 53 	b  a0007e74 <leonbare_irq_entry>
a000012c:	a7 50 00 00 	rd  %wim, %l3
a0000130:	ae 10 20 03 	mov  3, %l7
a0000134:	a1 48 00 00 	rd  %psr, %l0
a0000138:	10 80 1f 4f 	b  a0007e74 <leonbare_irq_entry>
a000013c:	a7 50 00 00 	rd  %wim, %l3
a0000140:	ae 10 20 04 	mov  4, %l7
a0000144:	a1 48 00 00 	rd  %psr, %l0
a0000148:	10 80 1f 4b 	b  a0007e74 <leonbare_irq_entry>
a000014c:	a7 50 00 00 	rd  %wim, %l3
a0000150:	ae 10 20 05 	mov  5, %l7
a0000154:	a1 48 00 00 	rd  %psr, %l0
a0000158:	10 80 1f 47 	b  a0007e74 <leonbare_irq_entry>
a000015c:	a7 50 00 00 	rd  %wim, %l3
a0000160:	ae 10 20 06 	mov  6, %l7
a0000164:	a1 48 00 00 	rd  %psr, %l0
a0000168:	10 80 1f 43 	b  a0007e74 <leonbare_irq_entry>
a000016c:	a7 50 00 00 	rd  %wim, %l3
a0000170:	ae 10 20 07 	mov  7, %l7
a0000174:	a1 48 00 00 	rd  %psr, %l0
a0000178:	10 80 1f 3f 	b  a0007e74 <leonbare_irq_entry>
a000017c:	a7 50 00 00 	rd  %wim, %l3
a0000180:	ae 10 20 08 	mov  8, %l7
a0000184:	a1 48 00 00 	rd  %psr, %l0
a0000188:	10 80 1f 3b 	b  a0007e74 <leonbare_irq_entry>
a000018c:	a7 50 00 00 	rd  %wim, %l3
a0000190:	ae 10 20 09 	mov  9, %l7
a0000194:	a1 48 00 00 	rd  %psr, %l0
a0000198:	10 80 1f 37 	b  a0007e74 <leonbare_irq_entry>
a000019c:	a7 50 00 00 	rd  %wim, %l3
a00001a0:	ae 10 20 0a 	mov  0xa, %l7
a00001a4:	a1 48 00 00 	rd  %psr, %l0
a00001a8:	10 80 1f 33 	b  a0007e74 <leonbare_irq_entry>
a00001ac:	a7 50 00 00 	rd  %wim, %l3
a00001b0:	ae 10 20 0b 	mov  0xb, %l7
a00001b4:	a1 48 00 00 	rd  %psr, %l0
a00001b8:	10 80 1f 2f 	b  a0007e74 <leonbare_irq_entry>
a00001bc:	a7 50 00 00 	rd  %wim, %l3
a00001c0:	ae 10 20 0c 	mov  0xc, %l7
a00001c4:	a1 48 00 00 	rd  %psr, %l0
a00001c8:	10 80 1f 2b 	b  a0007e74 <leonbare_irq_entry>
a00001cc:	a7 50 00 00 	rd  %wim, %l3
a00001d0:	ae 10 20 0d 	mov  0xd, %l7
a00001d4:	a1 48 00 00 	rd  %psr, %l0
a00001d8:	10 80 1f 27 	b  a0007e74 <leonbare_irq_entry>
a00001dc:	a7 50 00 00 	rd  %wim, %l3
a00001e0:	ae 10 20 0e 	mov  0xe, %l7
a00001e4:	a1 48 00 00 	rd  %psr, %l0
a00001e8:	10 80 1f 23 	b  a0007e74 <leonbare_irq_entry>
a00001ec:	a7 50 00 00 	rd  %wim, %l3
a00001f0:	ae 10 20 0f 	mov  0xf, %l7
a00001f4:	a1 48 00 00 	rd  %psr, %l0
a00001f8:	10 80 1f 1f 	b  a0007e74 <leonbare_irq_entry>
a00001fc:	a7 50 00 00 	rd  %wim, %l3
a0000200:	91 d0 20 00 	ta  0
a0000204:	01 00 00 00 	nop 
a0000208:	01 00 00 00 	nop 
a000020c:	01 00 00 00 	nop 
a0000210:	91 d0 20 00 	ta  0
a0000214:	01 00 00 00 	nop 
a0000218:	01 00 00 00 	nop 
a000021c:	01 00 00 00 	nop 
a0000220:	91 d0 20 00 	ta  0
a0000224:	01 00 00 00 	nop 
a0000228:	01 00 00 00 	nop 
a000022c:	01 00 00 00 	nop 
a0000230:	91 d0 20 00 	ta  0
a0000234:	01 00 00 00 	nop 
a0000238:	01 00 00 00 	nop 
a000023c:	01 00 00 00 	nop 
a0000240:	91 d0 20 00 	ta  0
a0000244:	01 00 00 00 	nop 
a0000248:	01 00 00 00 	nop 
a000024c:	01 00 00 00 	nop 
a0000250:	91 d0 20 00 	ta  0
a0000254:	01 00 00 00 	nop 
a0000258:	01 00 00 00 	nop 
a000025c:	01 00 00 00 	nop 
a0000260:	91 d0 20 00 	ta  0
a0000264:	01 00 00 00 	nop 
a0000268:	01 00 00 00 	nop 
a000026c:	01 00 00 00 	nop 
a0000270:	91 d0 20 00 	ta  0
a0000274:	01 00 00 00 	nop 
a0000278:	01 00 00 00 	nop 
a000027c:	01 00 00 00 	nop 
a0000280:	91 d0 20 00 	ta  0
a0000284:	01 00 00 00 	nop 
a0000288:	01 00 00 00 	nop 
a000028c:	01 00 00 00 	nop 
a0000290:	91 d0 20 00 	ta  0
a0000294:	01 00 00 00 	nop 
a0000298:	01 00 00 00 	nop 
a000029c:	01 00 00 00 	nop 
a00002a0:	91 d0 20 00 	ta  0
a00002a4:	01 00 00 00 	nop 
a00002a8:	01 00 00 00 	nop 
a00002ac:	01 00 00 00 	nop 
a00002b0:	91 d0 20 00 	ta  0
a00002b4:	01 00 00 00 	nop 
a00002b8:	01 00 00 00 	nop 
a00002bc:	01 00 00 00 	nop 
a00002c0:	91 d0 20 00 	ta  0
a00002c4:	01 00 00 00 	nop 
a00002c8:	01 00 00 00 	nop 
a00002cc:	01 00 00 00 	nop 
a00002d0:	91 d0 20 00 	ta  0
a00002d4:	01 00 00 00 	nop 
a00002d8:	01 00 00 00 	nop 
a00002dc:	01 00 00 00 	nop 
a00002e0:	91 d0 20 00 	ta  0
a00002e4:	01 00 00 00 	nop 
a00002e8:	01 00 00 00 	nop 
a00002ec:	01 00 00 00 	nop 
a00002f0:	91 d0 20 00 	ta  0
a00002f4:	01 00 00 00 	nop 
a00002f8:	01 00 00 00 	nop 
a00002fc:	01 00 00 00 	nop 
a0000300:	91 d0 20 00 	ta  0
a0000304:	01 00 00 00 	nop 
a0000308:	01 00 00 00 	nop 
a000030c:	01 00 00 00 	nop 
a0000310:	91 d0 20 00 	ta  0
a0000314:	01 00 00 00 	nop 
a0000318:	01 00 00 00 	nop 
a000031c:	01 00 00 00 	nop 
a0000320:	91 d0 20 00 	ta  0
a0000324:	01 00 00 00 	nop 
a0000328:	01 00 00 00 	nop 
a000032c:	01 00 00 00 	nop 
a0000330:	91 d0 20 00 	ta  0
a0000334:	01 00 00 00 	nop 
a0000338:	01 00 00 00 	nop 
a000033c:	01 00 00 00 	nop 
a0000340:	91 d0 20 00 	ta  0
a0000344:	01 00 00 00 	nop 
a0000348:	01 00 00 00 	nop 
a000034c:	01 00 00 00 	nop 
a0000350:	91 d0 20 00 	ta  0
a0000354:	01 00 00 00 	nop 
a0000358:	01 00 00 00 	nop 
a000035c:	01 00 00 00 	nop 
a0000360:	91 d0 20 00 	ta  0
a0000364:	01 00 00 00 	nop 
a0000368:	01 00 00 00 	nop 
a000036c:	01 00 00 00 	nop 
a0000370:	91 d0 20 00 	ta  0
a0000374:	01 00 00 00 	nop 
a0000378:	01 00 00 00 	nop 
a000037c:	01 00 00 00 	nop 
a0000380:	91 d0 20 00 	ta  0
a0000384:	01 00 00 00 	nop 
a0000388:	01 00 00 00 	nop 
a000038c:	01 00 00 00 	nop 
a0000390:	91 d0 20 00 	ta  0
a0000394:	01 00 00 00 	nop 
a0000398:	01 00 00 00 	nop 
a000039c:	01 00 00 00 	nop 
a00003a0:	91 d0 20 00 	ta  0
a00003a4:	01 00 00 00 	nop 
a00003a8:	01 00 00 00 	nop 
a00003ac:	01 00 00 00 	nop 
a00003b0:	91 d0 20 00 	ta  0
a00003b4:	01 00 00 00 	nop 
a00003b8:	01 00 00 00 	nop 
a00003bc:	01 00 00 00 	nop 
a00003c0:	91 d0 20 00 	ta  0
a00003c4:	01 00 00 00 	nop 
a00003c8:	01 00 00 00 	nop 
a00003cc:	01 00 00 00 	nop 
a00003d0:	91 d0 20 00 	ta  0
a00003d4:	01 00 00 00 	nop 
a00003d8:	01 00 00 00 	nop 
a00003dc:	01 00 00 00 	nop 
a00003e0:	91 d0 20 00 	ta  0
a00003e4:	01 00 00 00 	nop 
a00003e8:	01 00 00 00 	nop 
a00003ec:	01 00 00 00 	nop 
a00003f0:	91 d0 20 00 	ta  0
a00003f4:	01 00 00 00 	nop 
a00003f8:	01 00 00 00 	nop 
a00003fc:	01 00 00 00 	nop 
a0000400:	91 d0 20 00 	ta  0
a0000404:	01 00 00 00 	nop 
a0000408:	01 00 00 00 	nop 
a000040c:	01 00 00 00 	nop 
a0000410:	91 d0 20 00 	ta  0
a0000414:	01 00 00 00 	nop 
a0000418:	01 00 00 00 	nop 
a000041c:	01 00 00 00 	nop 
a0000420:	91 d0 20 00 	ta  0
a0000424:	01 00 00 00 	nop 
a0000428:	01 00 00 00 	nop 
a000042c:	01 00 00 00 	nop 
a0000430:	91 d0 20 00 	ta  0
a0000434:	01 00 00 00 	nop 
a0000438:	01 00 00 00 	nop 
a000043c:	01 00 00 00 	nop 
a0000440:	91 d0 20 00 	ta  0
a0000444:	01 00 00 00 	nop 
a0000448:	01 00 00 00 	nop 
a000044c:	01 00 00 00 	nop 
a0000450:	91 d0 20 00 	ta  0
a0000454:	01 00 00 00 	nop 
a0000458:	01 00 00 00 	nop 
a000045c:	01 00 00 00 	nop 
a0000460:	91 d0 20 00 	ta  0
a0000464:	01 00 00 00 	nop 
a0000468:	01 00 00 00 	nop 
a000046c:	01 00 00 00 	nop 
a0000470:	91 d0 20 00 	ta  0
a0000474:	01 00 00 00 	nop 
a0000478:	01 00 00 00 	nop 
a000047c:	01 00 00 00 	nop 
a0000480:	91 d0 20 00 	ta  0
a0000484:	01 00 00 00 	nop 
a0000488:	01 00 00 00 	nop 
a000048c:	01 00 00 00 	nop 
a0000490:	91 d0 20 00 	ta  0
a0000494:	01 00 00 00 	nop 
a0000498:	01 00 00 00 	nop 
a000049c:	01 00 00 00 	nop 
a00004a0:	91 d0 20 00 	ta  0
a00004a4:	01 00 00 00 	nop 
a00004a8:	01 00 00 00 	nop 
a00004ac:	01 00 00 00 	nop 
a00004b0:	91 d0 20 00 	ta  0
a00004b4:	01 00 00 00 	nop 
a00004b8:	01 00 00 00 	nop 
a00004bc:	01 00 00 00 	nop 
a00004c0:	91 d0 20 00 	ta  0
a00004c4:	01 00 00 00 	nop 
a00004c8:	01 00 00 00 	nop 
a00004cc:	01 00 00 00 	nop 
a00004d0:	91 d0 20 00 	ta  0
a00004d4:	01 00 00 00 	nop 
a00004d8:	01 00 00 00 	nop 
a00004dc:	01 00 00 00 	nop 
a00004e0:	91 d0 20 00 	ta  0
a00004e4:	01 00 00 00 	nop 
a00004e8:	01 00 00 00 	nop 
a00004ec:	01 00 00 00 	nop 
a00004f0:	91 d0 20 00 	ta  0
a00004f4:	01 00 00 00 	nop 
a00004f8:	01 00 00 00 	nop 
a00004fc:	01 00 00 00 	nop 
a0000500:	91 d0 20 00 	ta  0
a0000504:	01 00 00 00 	nop 
a0000508:	01 00 00 00 	nop 
a000050c:	01 00 00 00 	nop 
a0000510:	91 d0 20 00 	ta  0
a0000514:	01 00 00 00 	nop 
a0000518:	01 00 00 00 	nop 
a000051c:	01 00 00 00 	nop 
a0000520:	91 d0 20 00 	ta  0
a0000524:	01 00 00 00 	nop 
a0000528:	01 00 00 00 	nop 
a000052c:	01 00 00 00 	nop 
a0000530:	91 d0 20 00 	ta  0
a0000534:	01 00 00 00 	nop 
a0000538:	01 00 00 00 	nop 
a000053c:	01 00 00 00 	nop 
a0000540:	91 d0 20 00 	ta  0
a0000544:	01 00 00 00 	nop 
a0000548:	01 00 00 00 	nop 
a000054c:	01 00 00 00 	nop 
a0000550:	91 d0 20 00 	ta  0
a0000554:	01 00 00 00 	nop 
a0000558:	01 00 00 00 	nop 
a000055c:	01 00 00 00 	nop 
a0000560:	91 d0 20 00 	ta  0
a0000564:	01 00 00 00 	nop 
a0000568:	01 00 00 00 	nop 
a000056c:	01 00 00 00 	nop 
a0000570:	91 d0 20 00 	ta  0
a0000574:	01 00 00 00 	nop 
a0000578:	01 00 00 00 	nop 
a000057c:	01 00 00 00 	nop 
a0000580:	91 d0 20 00 	ta  0
a0000584:	01 00 00 00 	nop 
a0000588:	01 00 00 00 	nop 
a000058c:	01 00 00 00 	nop 
a0000590:	91 d0 20 00 	ta  0
a0000594:	01 00 00 00 	nop 
a0000598:	01 00 00 00 	nop 
a000059c:	01 00 00 00 	nop 
a00005a0:	91 d0 20 00 	ta  0
a00005a4:	01 00 00 00 	nop 
a00005a8:	01 00 00 00 	nop 
a00005ac:	01 00 00 00 	nop 
a00005b0:	91 d0 20 00 	ta  0
a00005b4:	01 00 00 00 	nop 
a00005b8:	01 00 00 00 	nop 
a00005bc:	01 00 00 00 	nop 
a00005c0:	91 d0 20 00 	ta  0
a00005c4:	01 00 00 00 	nop 
a00005c8:	01 00 00 00 	nop 
a00005cc:	01 00 00 00 	nop 
a00005d0:	91 d0 20 00 	ta  0
a00005d4:	01 00 00 00 	nop 
a00005d8:	01 00 00 00 	nop 
a00005dc:	01 00 00 00 	nop 
a00005e0:	91 d0 20 00 	ta  0
a00005e4:	01 00 00 00 	nop 
a00005e8:	01 00 00 00 	nop 
a00005ec:	01 00 00 00 	nop 
a00005f0:	91 d0 20 00 	ta  0
a00005f4:	01 00 00 00 	nop 
a00005f8:	01 00 00 00 	nop 
a00005fc:	01 00 00 00 	nop 
a0000600:	91 d0 20 00 	ta  0
a0000604:	01 00 00 00 	nop 
a0000608:	01 00 00 00 	nop 
a000060c:	01 00 00 00 	nop 
a0000610:	91 d0 20 00 	ta  0
a0000614:	01 00 00 00 	nop 
a0000618:	01 00 00 00 	nop 
a000061c:	01 00 00 00 	nop 
a0000620:	91 d0 20 00 	ta  0
a0000624:	01 00 00 00 	nop 
a0000628:	01 00 00 00 	nop 
a000062c:	01 00 00 00 	nop 
a0000630:	91 d0 20 00 	ta  0
a0000634:	01 00 00 00 	nop 
a0000638:	01 00 00 00 	nop 
a000063c:	01 00 00 00 	nop 
a0000640:	91 d0 20 00 	ta  0
a0000644:	01 00 00 00 	nop 
a0000648:	01 00 00 00 	nop 
a000064c:	01 00 00 00 	nop 
a0000650:	91 d0 20 00 	ta  0
a0000654:	01 00 00 00 	nop 
a0000658:	01 00 00 00 	nop 
a000065c:	01 00 00 00 	nop 
a0000660:	91 d0 20 00 	ta  0
a0000664:	01 00 00 00 	nop 
a0000668:	01 00 00 00 	nop 
a000066c:	01 00 00 00 	nop 
a0000670:	91 d0 20 00 	ta  0
a0000674:	01 00 00 00 	nop 
a0000678:	01 00 00 00 	nop 
a000067c:	01 00 00 00 	nop 
a0000680:	91 d0 20 00 	ta  0
a0000684:	01 00 00 00 	nop 
a0000688:	01 00 00 00 	nop 
a000068c:	01 00 00 00 	nop 
a0000690:	91 d0 20 00 	ta  0
a0000694:	01 00 00 00 	nop 
a0000698:	01 00 00 00 	nop 
a000069c:	01 00 00 00 	nop 
a00006a0:	91 d0 20 00 	ta  0
a00006a4:	01 00 00 00 	nop 
a00006a8:	01 00 00 00 	nop 
a00006ac:	01 00 00 00 	nop 
a00006b0:	91 d0 20 00 	ta  0
a00006b4:	01 00 00 00 	nop 
a00006b8:	01 00 00 00 	nop 
a00006bc:	01 00 00 00 	nop 
a00006c0:	91 d0 20 00 	ta  0
a00006c4:	01 00 00 00 	nop 
a00006c8:	01 00 00 00 	nop 
a00006cc:	01 00 00 00 	nop 
a00006d0:	91 d0 20 00 	ta  0
a00006d4:	01 00 00 00 	nop 
a00006d8:	01 00 00 00 	nop 
a00006dc:	01 00 00 00 	nop 
a00006e0:	91 d0 20 00 	ta  0
a00006e4:	01 00 00 00 	nop 
a00006e8:	01 00 00 00 	nop 
a00006ec:	01 00 00 00 	nop 
a00006f0:	91 d0 20 00 	ta  0
a00006f4:	01 00 00 00 	nop 
a00006f8:	01 00 00 00 	nop 
a00006fc:	01 00 00 00 	nop 
a0000700:	91 d0 20 00 	ta  0
a0000704:	01 00 00 00 	nop 
a0000708:	01 00 00 00 	nop 
a000070c:	01 00 00 00 	nop 
a0000710:	91 d0 20 00 	ta  0
a0000714:	01 00 00 00 	nop 
a0000718:	01 00 00 00 	nop 
a000071c:	01 00 00 00 	nop 
a0000720:	91 d0 20 00 	ta  0
a0000724:	01 00 00 00 	nop 
a0000728:	01 00 00 00 	nop 
a000072c:	01 00 00 00 	nop 
a0000730:	91 d0 20 00 	ta  0
a0000734:	01 00 00 00 	nop 
a0000738:	01 00 00 00 	nop 
a000073c:	01 00 00 00 	nop 
a0000740:	91 d0 20 00 	ta  0
a0000744:	01 00 00 00 	nop 
a0000748:	01 00 00 00 	nop 
a000074c:	01 00 00 00 	nop 
a0000750:	91 d0 20 00 	ta  0
a0000754:	01 00 00 00 	nop 
a0000758:	01 00 00 00 	nop 
a000075c:	01 00 00 00 	nop 
a0000760:	91 d0 20 00 	ta  0
a0000764:	01 00 00 00 	nop 
a0000768:	01 00 00 00 	nop 
a000076c:	01 00 00 00 	nop 
a0000770:	91 d0 20 00 	ta  0
a0000774:	01 00 00 00 	nop 
a0000778:	01 00 00 00 	nop 
a000077c:	01 00 00 00 	nop 
a0000780:	91 d0 20 00 	ta  0
a0000784:	01 00 00 00 	nop 
a0000788:	01 00 00 00 	nop 
a000078c:	01 00 00 00 	nop 
a0000790:	91 d0 20 00 	ta  0
a0000794:	01 00 00 00 	nop 
a0000798:	01 00 00 00 	nop 
a000079c:	01 00 00 00 	nop 
a00007a0:	91 d0 20 00 	ta  0
a00007a4:	01 00 00 00 	nop 
a00007a8:	01 00 00 00 	nop 
a00007ac:	01 00 00 00 	nop 
a00007b0:	91 d0 20 00 	ta  0
a00007b4:	01 00 00 00 	nop 
a00007b8:	01 00 00 00 	nop 
a00007bc:	01 00 00 00 	nop 
a00007c0:	91 d0 20 00 	ta  0
a00007c4:	01 00 00 00 	nop 
a00007c8:	01 00 00 00 	nop 
a00007cc:	01 00 00 00 	nop 
a00007d0:	91 d0 20 00 	ta  0
a00007d4:	01 00 00 00 	nop 
a00007d8:	01 00 00 00 	nop 
a00007dc:	01 00 00 00 	nop 
a00007e0:	91 d0 20 00 	ta  0
a00007e4:	01 00 00 00 	nop 
a00007e8:	01 00 00 00 	nop 
a00007ec:	01 00 00 00 	nop 
a00007f0:	91 d0 20 00 	ta  0
a00007f4:	01 00 00 00 	nop 
a00007f8:	01 00 00 00 	nop 
a00007fc:	01 00 00 00 	nop 
a0000800:	91 d0 20 00 	ta  0
a0000804:	01 00 00 00 	nop 
a0000808:	01 00 00 00 	nop 
a000080c:	01 00 00 00 	nop 
a0000810:	91 d0 20 00 	ta  0
a0000814:	01 00 00 00 	nop 
a0000818:	01 00 00 00 	nop 
a000081c:	01 00 00 00 	nop 
a0000820:	a1 48 00 00 	rd  %psr, %l0
a0000824:	29 28 00 1f 	sethi  %hi(0xa0007c00), %l4
a0000828:	81 c5 21 98 	jmp  %l4 + 0x198	! a0007d98 <_irqcall>
a000082c:	01 00 00 00 	nop 
a0000830:	a1 48 00 00 	rd  %psr, %l0
a0000834:	10 80 1c fd 	b  a0007c28 <_flush_windows>
a0000838:	a7 50 00 00 	rd  %wim, %l3
a000083c:	01 00 00 00 	nop 
a0000840:	91 d0 20 00 	ta  0
a0000844:	01 00 00 00 	nop 
a0000848:	01 00 00 00 	nop 
a000084c:	01 00 00 00 	nop 
a0000850:	a1 48 00 00 	rd  %psr, %l0
a0000854:	29 28 00 1f 	sethi  %hi(0xa0007c00), %l4
a0000858:	81 c5 21 7c 	jmp  %l4 + 0x17c	! a0007d7c <_irqcall_disableirq>
a000085c:	01 00 00 00 	nop 
a0000860:	91 d0 20 00 	ta  0
a0000864:	01 00 00 00 	nop 
a0000868:	01 00 00 00 	nop 
a000086c:	01 00 00 00 	nop 
a0000870:	91 d0 20 00 	ta  0
a0000874:	01 00 00 00 	nop 
a0000878:	01 00 00 00 	nop 
a000087c:	01 00 00 00 	nop 
a0000880:	91 d0 20 00 	ta  0
a0000884:	01 00 00 00 	nop 
a0000888:	01 00 00 00 	nop 
a000088c:	01 00 00 00 	nop 
a0000890:	91 d0 20 00 	ta  0
a0000894:	01 00 00 00 	nop 
a0000898:	01 00 00 00 	nop 
a000089c:	01 00 00 00 	nop 
a00008a0:	91 d0 20 00 	ta  0
a00008a4:	01 00 00 00 	nop 
a00008a8:	01 00 00 00 	nop 
a00008ac:	01 00 00 00 	nop 
a00008b0:	91 d0 20 00 	ta  0
a00008b4:	01 00 00 00 	nop 
a00008b8:	01 00 00 00 	nop 
a00008bc:	01 00 00 00 	nop 
a00008c0:	91 d0 20 00 	ta  0
a00008c4:	01 00 00 00 	nop 
a00008c8:	01 00 00 00 	nop 
a00008cc:	01 00 00 00 	nop 
a00008d0:	91 d0 20 00 	ta  0
a00008d4:	01 00 00 00 	nop 
a00008d8:	01 00 00 00 	nop 
a00008dc:	01 00 00 00 	nop 
a00008e0:	91 d0 20 00 	ta  0
a00008e4:	01 00 00 00 	nop 
a00008e8:	01 00 00 00 	nop 
a00008ec:	01 00 00 00 	nop 
a00008f0:	91 d0 20 00 	ta  0
a00008f4:	01 00 00 00 	nop 
a00008f8:	01 00 00 00 	nop 
a00008fc:	01 00 00 00 	nop 
a0000900:	91 d0 20 00 	ta  0
a0000904:	01 00 00 00 	nop 
a0000908:	01 00 00 00 	nop 
a000090c:	01 00 00 00 	nop 
a0000910:	91 d0 20 00 	ta  0
a0000914:	01 00 00 00 	nop 
a0000918:	01 00 00 00 	nop 
a000091c:	01 00 00 00 	nop 
a0000920:	91 d0 20 00 	ta  0
a0000924:	01 00 00 00 	nop 
a0000928:	01 00 00 00 	nop 
a000092c:	01 00 00 00 	nop 
a0000930:	91 d0 20 00 	ta  0
a0000934:	01 00 00 00 	nop 
a0000938:	01 00 00 00 	nop 
a000093c:	01 00 00 00 	nop 
a0000940:	91 d0 20 00 	ta  0
a0000944:	01 00 00 00 	nop 
a0000948:	01 00 00 00 	nop 
a000094c:	01 00 00 00 	nop 
a0000950:	91 d0 20 00 	ta  0
a0000954:	01 00 00 00 	nop 
a0000958:	01 00 00 00 	nop 
a000095c:	01 00 00 00 	nop 
a0000960:	91 d0 20 00 	ta  0
a0000964:	01 00 00 00 	nop 
a0000968:	01 00 00 00 	nop 
a000096c:	01 00 00 00 	nop 
a0000970:	91 d0 20 00 	ta  0
a0000974:	01 00 00 00 	nop 
a0000978:	01 00 00 00 	nop 
a000097c:	01 00 00 00 	nop 
a0000980:	91 d0 20 00 	ta  0
a0000984:	01 00 00 00 	nop 
a0000988:	01 00 00 00 	nop 
a000098c:	01 00 00 00 	nop 
a0000990:	91 d0 20 00 	ta  0
a0000994:	01 00 00 00 	nop 
a0000998:	01 00 00 00 	nop 
a000099c:	01 00 00 00 	nop 
a00009a0:	91 d0 20 00 	ta  0
a00009a4:	01 00 00 00 	nop 
a00009a8:	01 00 00 00 	nop 
a00009ac:	01 00 00 00 	nop 
a00009b0:	91 d0 20 00 	ta  0
a00009b4:	01 00 00 00 	nop 
a00009b8:	01 00 00 00 	nop 
a00009bc:	01 00 00 00 	nop 
a00009c0:	91 d0 20 00 	ta  0
a00009c4:	01 00 00 00 	nop 
a00009c8:	01 00 00 00 	nop 
a00009cc:	01 00 00 00 	nop 
a00009d0:	91 d0 20 00 	ta  0
a00009d4:	01 00 00 00 	nop 
a00009d8:	01 00 00 00 	nop 
a00009dc:	01 00 00 00 	nop 
a00009e0:	91 d0 20 00 	ta  0
a00009e4:	01 00 00 00 	nop 
a00009e8:	01 00 00 00 	nop 
a00009ec:	01 00 00 00 	nop 
a00009f0:	91 d0 20 00 	ta  0
a00009f4:	01 00 00 00 	nop 
a00009f8:	01 00 00 00 	nop 
a00009fc:	01 00 00 00 	nop 
a0000a00:	91 d0 20 00 	ta  0
a0000a04:	01 00 00 00 	nop 
a0000a08:	01 00 00 00 	nop 
a0000a0c:	01 00 00 00 	nop 
a0000a10:	91 d0 20 00 	ta  0
a0000a14:	01 00 00 00 	nop 
a0000a18:	01 00 00 00 	nop 
a0000a1c:	01 00 00 00 	nop 
a0000a20:	91 d0 20 00 	ta  0
a0000a24:	01 00 00 00 	nop 
a0000a28:	01 00 00 00 	nop 
a0000a2c:	01 00 00 00 	nop 
a0000a30:	91 d0 20 00 	ta  0
a0000a34:	01 00 00 00 	nop 
a0000a38:	01 00 00 00 	nop 
a0000a3c:	01 00 00 00 	nop 
a0000a40:	91 d0 20 00 	ta  0
a0000a44:	01 00 00 00 	nop 
a0000a48:	01 00 00 00 	nop 
a0000a4c:	01 00 00 00 	nop 
a0000a50:	91 d0 20 00 	ta  0
a0000a54:	01 00 00 00 	nop 
a0000a58:	01 00 00 00 	nop 
a0000a5c:	01 00 00 00 	nop 
a0000a60:	91 d0 20 00 	ta  0
a0000a64:	01 00 00 00 	nop 
a0000a68:	01 00 00 00 	nop 
a0000a6c:	01 00 00 00 	nop 
a0000a70:	91 d0 20 00 	ta  0
a0000a74:	01 00 00 00 	nop 
a0000a78:	01 00 00 00 	nop 
a0000a7c:	01 00 00 00 	nop 
a0000a80:	91 d0 20 00 	ta  0
a0000a84:	01 00 00 00 	nop 
a0000a88:	01 00 00 00 	nop 
a0000a8c:	01 00 00 00 	nop 
a0000a90:	91 d0 20 00 	ta  0
a0000a94:	01 00 00 00 	nop 
a0000a98:	01 00 00 00 	nop 
a0000a9c:	01 00 00 00 	nop 
a0000aa0:	91 d0 20 00 	ta  0
a0000aa4:	01 00 00 00 	nop 
a0000aa8:	01 00 00 00 	nop 
a0000aac:	01 00 00 00 	nop 
a0000ab0:	91 d0 20 00 	ta  0
a0000ab4:	01 00 00 00 	nop 
a0000ab8:	01 00 00 00 	nop 
a0000abc:	01 00 00 00 	nop 
a0000ac0:	91 d0 20 00 	ta  0
a0000ac4:	01 00 00 00 	nop 
a0000ac8:	01 00 00 00 	nop 
a0000acc:	01 00 00 00 	nop 
a0000ad0:	91 d0 20 00 	ta  0
a0000ad4:	01 00 00 00 	nop 
a0000ad8:	01 00 00 00 	nop 
a0000adc:	01 00 00 00 	nop 
a0000ae0:	91 d0 20 00 	ta  0
a0000ae4:	01 00 00 00 	nop 
a0000ae8:	01 00 00 00 	nop 
a0000aec:	01 00 00 00 	nop 
a0000af0:	91 d0 20 00 	ta  0
a0000af4:	01 00 00 00 	nop 
a0000af8:	01 00 00 00 	nop 
a0000afc:	01 00 00 00 	nop 
a0000b00:	91 d0 20 00 	ta  0
a0000b04:	01 00 00 00 	nop 
a0000b08:	01 00 00 00 	nop 
a0000b0c:	01 00 00 00 	nop 
a0000b10:	91 d0 20 00 	ta  0
a0000b14:	01 00 00 00 	nop 
a0000b18:	01 00 00 00 	nop 
a0000b1c:	01 00 00 00 	nop 
a0000b20:	91 d0 20 00 	ta  0
a0000b24:	01 00 00 00 	nop 
a0000b28:	01 00 00 00 	nop 
a0000b2c:	01 00 00 00 	nop 
a0000b30:	91 d0 20 00 	ta  0
a0000b34:	01 00 00 00 	nop 
a0000b38:	01 00 00 00 	nop 
a0000b3c:	01 00 00 00 	nop 
a0000b40:	91 d0 20 00 	ta  0
a0000b44:	01 00 00 00 	nop 
a0000b48:	01 00 00 00 	nop 
a0000b4c:	01 00 00 00 	nop 
a0000b50:	91 d0 20 00 	ta  0
a0000b54:	01 00 00 00 	nop 
a0000b58:	01 00 00 00 	nop 
a0000b5c:	01 00 00 00 	nop 
a0000b60:	91 d0 20 00 	ta  0
a0000b64:	01 00 00 00 	nop 
a0000b68:	01 00 00 00 	nop 
a0000b6c:	01 00 00 00 	nop 
a0000b70:	91 d0 20 00 	ta  0
a0000b74:	01 00 00 00 	nop 
a0000b78:	01 00 00 00 	nop 
a0000b7c:	01 00 00 00 	nop 
a0000b80:	91 d0 20 00 	ta  0
a0000b84:	01 00 00 00 	nop 
a0000b88:	01 00 00 00 	nop 
a0000b8c:	01 00 00 00 	nop 
a0000b90:	91 d0 20 00 	ta  0
a0000b94:	01 00 00 00 	nop 
a0000b98:	01 00 00 00 	nop 
a0000b9c:	01 00 00 00 	nop 
a0000ba0:	91 d0 20 00 	ta  0
a0000ba4:	01 00 00 00 	nop 
a0000ba8:	01 00 00 00 	nop 
a0000bac:	01 00 00 00 	nop 
a0000bb0:	91 d0 20 00 	ta  0
a0000bb4:	01 00 00 00 	nop 
a0000bb8:	01 00 00 00 	nop 
a0000bbc:	01 00 00 00 	nop 
a0000bc0:	91 d0 20 00 	ta  0
a0000bc4:	01 00 00 00 	nop 
a0000bc8:	01 00 00 00 	nop 
a0000bcc:	01 00 00 00 	nop 
a0000bd0:	91 d0 20 00 	ta  0
a0000bd4:	01 00 00 00 	nop 
a0000bd8:	01 00 00 00 	nop 
a0000bdc:	01 00 00 00 	nop 
a0000be0:	91 d0 20 00 	ta  0
a0000be4:	01 00 00 00 	nop 
a0000be8:	01 00 00 00 	nop 
a0000bec:	01 00 00 00 	nop 
a0000bf0:	91 d0 20 00 	ta  0
a0000bf4:	01 00 00 00 	nop 
a0000bf8:	01 00 00 00 	nop 
a0000bfc:	01 00 00 00 	nop 
a0000c00:	91 d0 20 00 	ta  0
a0000c04:	01 00 00 00 	nop 
a0000c08:	01 00 00 00 	nop 
a0000c0c:	01 00 00 00 	nop 
a0000c10:	91 d0 20 00 	ta  0
a0000c14:	01 00 00 00 	nop 
a0000c18:	01 00 00 00 	nop 
a0000c1c:	01 00 00 00 	nop 
a0000c20:	91 d0 20 00 	ta  0
a0000c24:	01 00 00 00 	nop 
a0000c28:	01 00 00 00 	nop 
a0000c2c:	01 00 00 00 	nop 
a0000c30:	91 d0 20 00 	ta  0
a0000c34:	01 00 00 00 	nop 
a0000c38:	01 00 00 00 	nop 
a0000c3c:	01 00 00 00 	nop 
a0000c40:	91 d0 20 00 	ta  0
a0000c44:	01 00 00 00 	nop 
a0000c48:	01 00 00 00 	nop 
a0000c4c:	01 00 00 00 	nop 
a0000c50:	91 d0 20 00 	ta  0
a0000c54:	01 00 00 00 	nop 
a0000c58:	01 00 00 00 	nop 
a0000c5c:	01 00 00 00 	nop 
a0000c60:	91 d0 20 00 	ta  0
a0000c64:	01 00 00 00 	nop 
a0000c68:	01 00 00 00 	nop 
a0000c6c:	01 00 00 00 	nop 
a0000c70:	91 d0 20 00 	ta  0
a0000c74:	01 00 00 00 	nop 
a0000c78:	01 00 00 00 	nop 
a0000c7c:	01 00 00 00 	nop 
a0000c80:	91 d0 20 00 	ta  0
a0000c84:	01 00 00 00 	nop 
a0000c88:	01 00 00 00 	nop 
a0000c8c:	01 00 00 00 	nop 
a0000c90:	91 d0 20 00 	ta  0
a0000c94:	01 00 00 00 	nop 
a0000c98:	01 00 00 00 	nop 
a0000c9c:	01 00 00 00 	nop 
a0000ca0:	91 d0 20 00 	ta  0
a0000ca4:	01 00 00 00 	nop 
a0000ca8:	01 00 00 00 	nop 
a0000cac:	01 00 00 00 	nop 
a0000cb0:	91 d0 20 00 	ta  0
a0000cb4:	01 00 00 00 	nop 
a0000cb8:	01 00 00 00 	nop 
a0000cbc:	01 00 00 00 	nop 
a0000cc0:	91 d0 20 00 	ta  0
a0000cc4:	01 00 00 00 	nop 
a0000cc8:	01 00 00 00 	nop 
a0000ccc:	01 00 00 00 	nop 
a0000cd0:	91 d0 20 00 	ta  0
a0000cd4:	01 00 00 00 	nop 
a0000cd8:	01 00 00 00 	nop 
a0000cdc:	01 00 00 00 	nop 
a0000ce0:	91 d0 20 00 	ta  0
a0000ce4:	01 00 00 00 	nop 
a0000ce8:	01 00 00 00 	nop 
a0000cec:	01 00 00 00 	nop 
a0000cf0:	91 d0 20 00 	ta  0
a0000cf4:	01 00 00 00 	nop 
a0000cf8:	01 00 00 00 	nop 
a0000cfc:	01 00 00 00 	nop 
a0000d00:	91 d0 20 00 	ta  0
a0000d04:	01 00 00 00 	nop 
a0000d08:	01 00 00 00 	nop 
a0000d0c:	01 00 00 00 	nop 
a0000d10:	91 d0 20 00 	ta  0
a0000d14:	01 00 00 00 	nop 
a0000d18:	01 00 00 00 	nop 
a0000d1c:	01 00 00 00 	nop 
a0000d20:	91 d0 20 00 	ta  0
a0000d24:	01 00 00 00 	nop 
a0000d28:	01 00 00 00 	nop 
a0000d2c:	01 00 00 00 	nop 
a0000d30:	91 d0 20 00 	ta  0
a0000d34:	01 00 00 00 	nop 
a0000d38:	01 00 00 00 	nop 
a0000d3c:	01 00 00 00 	nop 
a0000d40:	91 d0 20 00 	ta  0
a0000d44:	01 00 00 00 	nop 
a0000d48:	01 00 00 00 	nop 
a0000d4c:	01 00 00 00 	nop 
a0000d50:	91 d0 20 00 	ta  0
a0000d54:	01 00 00 00 	nop 
a0000d58:	01 00 00 00 	nop 
a0000d5c:	01 00 00 00 	nop 
a0000d60:	91 d0 20 00 	ta  0
a0000d64:	01 00 00 00 	nop 
a0000d68:	01 00 00 00 	nop 
a0000d6c:	01 00 00 00 	nop 
a0000d70:	91 d0 20 00 	ta  0
a0000d74:	01 00 00 00 	nop 
a0000d78:	01 00 00 00 	nop 
a0000d7c:	01 00 00 00 	nop 
a0000d80:	91 d0 20 00 	ta  0
a0000d84:	01 00 00 00 	nop 
a0000d88:	01 00 00 00 	nop 
a0000d8c:	01 00 00 00 	nop 
a0000d90:	91 d0 20 00 	ta  0
a0000d94:	01 00 00 00 	nop 
a0000d98:	01 00 00 00 	nop 
a0000d9c:	01 00 00 00 	nop 
a0000da0:	91 d0 20 00 	ta  0
a0000da4:	01 00 00 00 	nop 
a0000da8:	01 00 00 00 	nop 
a0000dac:	01 00 00 00 	nop 
a0000db0:	91 d0 20 00 	ta  0
a0000db4:	01 00 00 00 	nop 
a0000db8:	01 00 00 00 	nop 
a0000dbc:	01 00 00 00 	nop 
a0000dc0:	91 d0 20 00 	ta  0
a0000dc4:	01 00 00 00 	nop 
a0000dc8:	01 00 00 00 	nop 
a0000dcc:	01 00 00 00 	nop 
a0000dd0:	91 d0 20 00 	ta  0
a0000dd4:	01 00 00 00 	nop 
a0000dd8:	01 00 00 00 	nop 
a0000ddc:	01 00 00 00 	nop 
a0000de0:	91 d0 20 00 	ta  0
a0000de4:	01 00 00 00 	nop 
a0000de8:	01 00 00 00 	nop 
a0000dec:	01 00 00 00 	nop 
a0000df0:	91 d0 20 00 	ta  0
a0000df4:	01 00 00 00 	nop 
a0000df8:	01 00 00 00 	nop 
a0000dfc:	01 00 00 00 	nop 
a0000e00:	91 d0 20 00 	ta  0
a0000e04:	01 00 00 00 	nop 
a0000e08:	01 00 00 00 	nop 
a0000e0c:	01 00 00 00 	nop 
a0000e10:	91 d0 20 00 	ta  0
a0000e14:	01 00 00 00 	nop 
a0000e18:	01 00 00 00 	nop 
a0000e1c:	01 00 00 00 	nop 
a0000e20:	91 d0 20 00 	ta  0
a0000e24:	01 00 00 00 	nop 
a0000e28:	01 00 00 00 	nop 
a0000e2c:	01 00 00 00 	nop 
a0000e30:	91 d0 20 00 	ta  0
a0000e34:	01 00 00 00 	nop 
a0000e38:	01 00 00 00 	nop 
a0000e3c:	01 00 00 00 	nop 
a0000e40:	91 d0 20 00 	ta  0
a0000e44:	01 00 00 00 	nop 
a0000e48:	01 00 00 00 	nop 
a0000e4c:	01 00 00 00 	nop 
a0000e50:	91 d0 20 00 	ta  0
a0000e54:	01 00 00 00 	nop 
a0000e58:	01 00 00 00 	nop 
a0000e5c:	01 00 00 00 	nop 
a0000e60:	91 d0 20 00 	ta  0
a0000e64:	01 00 00 00 	nop 
a0000e68:	01 00 00 00 	nop 
a0000e6c:	01 00 00 00 	nop 
a0000e70:	91 d0 20 00 	ta  0
a0000e74:	01 00 00 00 	nop 
a0000e78:	01 00 00 00 	nop 
a0000e7c:	01 00 00 00 	nop 
a0000e80:	91 d0 20 00 	ta  0
a0000e84:	01 00 00 00 	nop 
a0000e88:	01 00 00 00 	nop 
a0000e8c:	01 00 00 00 	nop 
a0000e90:	91 d0 20 00 	ta  0
a0000e94:	01 00 00 00 	nop 
a0000e98:	01 00 00 00 	nop 
a0000e9c:	01 00 00 00 	nop 
a0000ea0:	91 d0 20 00 	ta  0
a0000ea4:	01 00 00 00 	nop 
a0000ea8:	01 00 00 00 	nop 
a0000eac:	01 00 00 00 	nop 
a0000eb0:	91 d0 20 00 	ta  0
a0000eb4:	01 00 00 00 	nop 
a0000eb8:	01 00 00 00 	nop 
a0000ebc:	01 00 00 00 	nop 
a0000ec0:	91 d0 20 00 	ta  0
a0000ec4:	01 00 00 00 	nop 
a0000ec8:	01 00 00 00 	nop 
a0000ecc:	01 00 00 00 	nop 
a0000ed0:	91 d0 20 00 	ta  0
a0000ed4:	01 00 00 00 	nop 
a0000ed8:	01 00 00 00 	nop 
a0000edc:	01 00 00 00 	nop 
a0000ee0:	91 d0 20 00 	ta  0
a0000ee4:	01 00 00 00 	nop 
a0000ee8:	01 00 00 00 	nop 
a0000eec:	01 00 00 00 	nop 
a0000ef0:	91 d0 20 00 	ta  0
a0000ef4:	01 00 00 00 	nop 
a0000ef8:	01 00 00 00 	nop 
a0000efc:	01 00 00 00 	nop 
a0000f00:	91 d0 20 00 	ta  0
a0000f04:	01 00 00 00 	nop 
a0000f08:	01 00 00 00 	nop 
a0000f0c:	01 00 00 00 	nop 
a0000f10:	91 d0 20 00 	ta  0
a0000f14:	01 00 00 00 	nop 
a0000f18:	01 00 00 00 	nop 
a0000f1c:	01 00 00 00 	nop 
a0000f20:	91 d0 20 00 	ta  0
a0000f24:	01 00 00 00 	nop 
a0000f28:	01 00 00 00 	nop 
a0000f2c:	01 00 00 00 	nop 
a0000f30:	91 d0 20 00 	ta  0
a0000f34:	01 00 00 00 	nop 
a0000f38:	01 00 00 00 	nop 
a0000f3c:	01 00 00 00 	nop 
a0000f40:	91 d0 20 00 	ta  0
a0000f44:	01 00 00 00 	nop 
a0000f48:	01 00 00 00 	nop 
a0000f4c:	01 00 00 00 	nop 
a0000f50:	91 d0 20 00 	ta  0
a0000f54:	01 00 00 00 	nop 
a0000f58:	01 00 00 00 	nop 
a0000f5c:	01 00 00 00 	nop 
a0000f60:	91 d0 20 00 	ta  0
a0000f64:	01 00 00 00 	nop 
a0000f68:	01 00 00 00 	nop 
a0000f6c:	01 00 00 00 	nop 
a0000f70:	91 d0 20 00 	ta  0
a0000f74:	01 00 00 00 	nop 
a0000f78:	01 00 00 00 	nop 
a0000f7c:	01 00 00 00 	nop 
a0000f80:	91 d0 20 00 	ta  0
a0000f84:	01 00 00 00 	nop 
a0000f88:	01 00 00 00 	nop 
a0000f8c:	01 00 00 00 	nop 
a0000f90:	91 d0 20 00 	ta  0
a0000f94:	01 00 00 00 	nop 
a0000f98:	01 00 00 00 	nop 
a0000f9c:	01 00 00 00 	nop 
a0000fa0:	91 d0 20 00 	ta  0
a0000fa4:	01 00 00 00 	nop 
a0000fa8:	01 00 00 00 	nop 
a0000fac:	01 00 00 00 	nop 
a0000fb0:	91 d0 20 00 	ta  0
a0000fb4:	01 00 00 00 	nop 
a0000fb8:	01 00 00 00 	nop 
a0000fbc:	01 00 00 00 	nop 
a0000fc0:	91 d0 20 00 	ta  0
a0000fc4:	01 00 00 00 	nop 
a0000fc8:	01 00 00 00 	nop 
a0000fcc:	01 00 00 00 	nop 
a0000fd0:	91 d0 20 00 	ta  0
a0000fd4:	01 00 00 00 	nop 
a0000fd8:	01 00 00 00 	nop 
a0000fdc:	01 00 00 00 	nop 
a0000fe0:	91 d0 20 00 	ta  0
a0000fe4:	01 00 00 00 	nop 
a0000fe8:	01 00 00 00 	nop 
a0000fec:	01 00 00 00 	nop 
a0000ff0:	91 d0 20 00 	ta  0
a0000ff4:	01 00 00 00 	nop 
a0000ff8:	01 00 00 00 	nop 
a0000ffc:	01 00 00 00 	nop 

a0001000 <_start>:
a0001000:	9d e3 bf c0 	save  %sp, -64, %sp
a0001004:	05 28 00 2a 	sethi  %hi(0xa000a800), %g2
a0001008:	84 10 a1 b0 	or  %g2, 0x1b0, %g2	! a000a9b0 <__edata>
a000100c:	07 28 00 2c 	sethi  %hi(0xa000b000), %g3
a0001010:	86 10 e2 08 	or  %g3, 0x208, %g3	! a000b208 <__end>
a0001014:	82 10 00 00 	mov  %g0, %g1
a0001018:	86 20 c0 02 	sub  %g3, %g2, %g3

a000101c <zerobss>:
a000101c:	86 a0 e0 08 	subcc  %g3, 8, %g3
a0001020:	36 bf ff ff 	bge,a   a000101c <zerobss>
a0001024:	c0 38 80 03 	std  %g0, [ %g2 + %g3 ]
a0001028:	11 28 00 2c 	sethi  %hi(0xa000b000), %o0
a000102c:	90 12 22 08 	or  %o0, 0x208, %o0	! a000b208 <__end>
a0001030:	c0 22 00 00 	clr  [ %o0 ]
a0001034:	40 00 1b 8a 	call  a0007e5c <bdinit2>
a0001038:	01 00 00 00 	nop 
a000103c:	40 00 1b 8a 	call  a0007e64 <prelibchook>
a0001040:	01 00 00 00 	nop 
a0001044:	40 00 1d fe 	call  a000883c <_call_initcalls>
a0001048:	01 00 00 00 	nop 
a000104c:	11 28 00 27 	sethi  %hi(0xa0009c00), %o0
a0001050:	90 12 22 b8 	or  %o0, 0x2b8, %o0	! a0009eb8 <_fini>
a0001054:	40 00 07 c4 	call  a0002f64 <_atexit>
a0001058:	01 00 00 00 	nop 
a000105c:	40 00 23 90 	call  a0009e9c <_init>
a0001060:	01 00 00 00 	nop 
a0001064:	40 00 07 94 	call  a0002eb4 <main>
a0001068:	01 00 00 00 	nop 
a000106c:	40 00 1c 78 	call  a000824c <_exit>
a0001070:	01 00 00 00 	nop 
a0001074:	81 c7 e0 08 	ret 
a0001078:	81 e8 00 00 	restore 

a000107c <__do_global_dtors_aux>:
a000107c:	9d e3 bf 98 	save  %sp, -104, %sp
a0001080:	23 28 00 2a 	sethi  %hi(0xa000a800), %l1
a0001084:	c2 0c 61 b0 	ldub  [ %l1 + 0x1b0 ], %g1	! a000a9b0 <__edata>
a0001088:	80 a0 60 00 	cmp  %g1, 0
a000108c:	12 80 00 15 	bne  a00010e0 <__do_global_dtors_aux+0x64>
a0001090:	21 28 00 27 	sethi  %hi(0xa0009c00), %l0
a0001094:	10 80 00 05 	b  a00010a8 <__do_global_dtors_aux+0x2c>
a0001098:	c2 04 22 dc 	ld  [ %l0 + 0x2dc ], %g1	! a0009edc <p.0>
a000109c:	9f c3 40 00 	call  %o5
a00010a0:	c2 24 22 dc 	st  %g1, [ %l0 + 0x2dc ]
a00010a4:	c2 04 22 dc 	ld  [ %l0 + 0x2dc ], %g1
a00010a8:	da 00 40 00 	ld  [ %g1 ], %o5
a00010ac:	80 a3 60 00 	cmp  %o5, 0
a00010b0:	12 bf ff fb 	bne  a000109c <__do_global_dtors_aux+0x20>
a00010b4:	82 00 60 04 	add  %g1, 4, %g1
a00010b8:	03 00 00 00 	sethi  %hi(0), %g1
a00010bc:	82 10 60 00 	mov  %g1, %g1	! 0 <_trap_table-0xa0000000>
a00010c0:	80 a0 60 00 	cmp  %g1, 0
a00010c4:	02 80 00 06 	be  a00010dc <__do_global_dtors_aux+0x60>
a00010c8:	82 10 20 01 	mov  1, %g1
a00010cc:	11 28 00 23 	sethi  %hi(0xa0008c00), %o0
a00010d0:	57 ff fb cc 	call  0 <_trap_table-0xa0000000>
a00010d4:	90 12 20 e0 	or  %o0, 0xe0, %o0	! a0008ce0 <__EH_FRAME_BEGIN__>
a00010d8:	82 10 20 01 	mov  1, %g1
a00010dc:	c2 2c 61 b0 	stb  %g1, [ %l1 + 0x1b0 ]
a00010e0:	81 c7 e0 08 	ret 
a00010e4:	81 e8 00 00 	restore 

a00010e8 <call___do_global_dtors_aux>:
a00010e8:	9d e3 bf 98 	save  %sp, -104, %sp
a00010ec:	81 c7 e0 08 	ret 
a00010f0:	81 e8 00 00 	restore 

a00010f4 <frame_dummy>:
a00010f4:	9d e3 bf 98 	save  %sp, -104, %sp
a00010f8:	03 00 00 00 	sethi  %hi(0), %g1
a00010fc:	82 10 60 00 	mov  %g1, %g1	! 0 <_trap_table-0xa0000000>
a0001100:	11 28 00 23 	sethi  %hi(0xa0008c00), %o0
a0001104:	13 28 00 2a 	sethi  %hi(0xa000a800), %o1
a0001108:	80 a0 60 00 	cmp  %g1, 0
a000110c:	90 12 20 e0 	or  %o0, 0xe0, %o0
a0001110:	02 80 00 04 	be  a0001120 <frame_dummy+0x2c>
a0001114:	92 12 61 b4 	or  %o1, 0x1b4, %o1
a0001118:	57 ff fb ba 	call  0 <_trap_table-0xa0000000>
a000111c:	01 00 00 00 	nop 
a0001120:	1b 28 00 2c 	sethi  %hi(0xa000b000), %o5
a0001124:	c2 03 62 08 	ld  [ %o5 + 0x208 ], %g1	! a000b208 <__end>
a0001128:	80 a0 60 00 	cmp  %g1, 0
a000112c:	02 80 00 09 	be  a0001150 <frame_dummy+0x5c>
a0001130:	b0 13 62 08 	or  %o5, 0x208, %i0
a0001134:	03 00 00 00 	sethi  %hi(0), %g1
a0001138:	82 10 60 00 	mov  %g1, %g1	! 0 <_trap_table-0xa0000000>
a000113c:	80 a0 60 00 	cmp  %g1, 0
a0001140:	02 80 00 04 	be  a0001150 <frame_dummy+0x5c>
a0001144:	01 00 00 00 	nop 
a0001148:	57 ff fb ae 	call  0 <_trap_table-0xa0000000>
a000114c:	81 e8 00 00 	restore 
a0001150:	01 00 00 00 	nop 
a0001154:	81 c7 e0 08 	ret 
a0001158:	81 e8 00 00 	restore 

a000115c <call_frame_dummy>:
a000115c:	9d e3 bf 98 	save  %sp, -104, %sp
a0001160:	81 c7 e0 08 	ret 
a0001164:	81 e8 00 00 	restore 

a0001168 <ambapp_addr_from>:
a0001168:	9a 10 00 09 	mov  %o1, %o5
a000116c:	80 a2 20 00 	cmp  %o0, 0
a0001170:	02 80 00 17 	be  a00011cc <ambapp_addr_from+0x64>
a0001174:	82 10 00 09 	mov  %o1, %g1
a0001178:	c2 02 00 00 	ld  [ %o0 ], %g1
a000117c:	80 a0 60 00 	cmp  %g1, 0
a0001180:	22 80 00 13 	be,a   a00011cc <ambapp_addr_from+0x64>
a0001184:	82 10 20 01 	mov  1, %g1
a0001188:	d2 02 20 08 	ld  [ %o0 + 8 ], %o1
a000118c:	82 02 40 01 	add  %o1, %g1, %g1
a0001190:	80 a2 40 0d 	cmp  %o1, %o5
a0001194:	18 80 00 05 	bgu  a00011a8 <ambapp_addr_from+0x40>
a0001198:	82 00 7f ff 	add  %g1, -1, %g1
a000119c:	80 a0 40 0d 	cmp  %g1, %o5
a00011a0:	3a 80 00 09 	bcc,a   a00011c4 <ambapp_addr_from+0x5c>
a00011a4:	9a 23 40 09 	sub  %o5, %o1, %o5
a00011a8:	90 02 20 0c 	add  %o0, 0xc, %o0
a00011ac:	c2 02 00 00 	ld  [ %o0 ], %g1
a00011b0:	80 a0 60 00 	cmp  %g1, 0
a00011b4:	32 bf ff f6 	bne,a   a000118c <ambapp_addr_from+0x24>
a00011b8:	d2 02 20 08 	ld  [ %o0 + 8 ], %o1
a00011bc:	10 80 00 04 	b  a00011cc <ambapp_addr_from+0x64>
a00011c0:	82 10 20 01 	mov  1, %g1
a00011c4:	c2 02 20 04 	ld  [ %o0 + 4 ], %g1
a00011c8:	82 03 40 01 	add  %o5, %g1, %g1
a00011cc:	81 c3 e0 08 	retl 
a00011d0:	90 10 00 01 	mov  %g1, %o0

a00011d4 <ambapp_ahb_dev_init>:
a00011d4:	9d e3 bf 98 	save  %sp, -104, %sp
a00011d8:	c2 0e 80 00 	ldub  [ %i2 ], %g1
a00011dc:	c2 2e e0 11 	stb  %g1, [ %i3 + 0x11 ]
a00011e0:	da 06 80 00 	ld  [ %i2 ], %o5
a00011e4:	83 33 60 0c 	srl  %o5, 0xc, %g1
a00011e8:	82 08 6f ff 	and  %g1, 0xfff, %g1
a00011ec:	9b 33 60 05 	srl  %o5, 5, %o5
a00011f0:	e4 06 e0 14 	ld  [ %i3 + 0x14 ], %l2
a00011f4:	c2 36 e0 12 	sth  %g1, [ %i3 + 0x12 ]
a00011f8:	9a 0b 60 1f 	and  %o5, 0x1f, %o5
a00011fc:	da 2c a0 01 	stb  %o5, [ %l2 + 1 ]
a0001200:	c2 06 80 00 	ld  [ %i2 ], %g1
a0001204:	82 08 60 1f 	and  %g1, 0x1f, %g1
a0001208:	c2 2c 80 00 	stb  %g1, [ %l2 ]
a000120c:	da 06 a0 04 	ld  [ %i2 + 4 ], %o5
a0001210:	da 24 a0 28 	st  %o5, [ %l2 + 0x28 ]
a0001214:	c2 06 a0 08 	ld  [ %i2 + 8 ], %g1
a0001218:	c2 24 a0 2c 	st  %g1, [ %l2 + 0x2c ]
a000121c:	da 06 a0 0c 	ld  [ %i2 + 0xc ], %o5
a0001220:	03 00 00 3f 	sethi  %hi(0xfc00), %g1
a0001224:	da 24 a0 30 	st  %o5, [ %l2 + 0x30 ]
a0001228:	a6 10 63 f0 	or  %g1, 0x3f0, %l3
a000122c:	a0 10 20 00 	clr  %l0
a0001230:	a3 2c 20 02 	sll  %l0, 2, %l1
a0001234:	82 04 40 1a 	add  %l1, %i2, %g1
a0001238:	f6 00 60 10 	ld  [ %g1 + 0x10 ], %i3
a000123c:	9a 0e c0 13 	and  %i3, %l3, %o5
a0001240:	95 2b 60 10 	sll  %o5, 0x10, %o2
a0001244:	96 0e e0 0f 	and  %i3, 0xf, %o3
a0001248:	80 a6 e0 00 	cmp  %i3, 0
a000124c:	9a 10 20 00 	clr  %o5
a0001250:	02 80 00 16 	be  a00012a8 <ambapp_ahb_dev_init+0xd4>
a0001254:	98 10 20 00 	clr  %o4
a0001258:	82 38 00 1b 	xnor  %g0, %i3, %g1
a000125c:	83 30 60 04 	srl  %g1, 4, %g1
a0001260:	82 08 6f ff 	and  %g1, 0xfff, %g1
a0001264:	98 0a 80 1b 	and  %o2, %i3, %o4
a0001268:	83 28 60 08 	sll  %g1, 8, %g1
a000126c:	82 10 60 ff 	or  %g1, 0xff, %g1
a0001270:	92 10 00 0c 	mov  %o4, %o1
a0001274:	90 10 00 19 	mov  %i1, %o0
a0001278:	80 a2 e0 03 	cmp  %o3, 3
a000127c:	99 33 20 0c 	srl  %o4, 0xc, %o4
a0001280:	12 80 00 04 	bne  a0001290 <ambapp_ahb_dev_init+0xbc>
a0001284:	9a 00 60 01 	add  %g1, 1, %o5
a0001288:	10 80 00 08 	b  a00012a8 <ambapp_ahb_dev_init+0xd4>
a000128c:	98 13 00 18 	or  %o4, %i0, %o4
a0001290:	7f ff ff b6 	call  a0001168 <ambapp_addr_from>
a0001294:	01 00 00 00 	nop 
a0001298:	83 36 e0 04 	srl  %i3, 4, %g1
a000129c:	83 28 60 14 	sll  %g1, 0x14, %g1
a00012a0:	98 10 00 08 	mov  %o0, %o4
a00012a4:	9a 20 00 01 	neg  %g1, %o5
a00012a8:	82 04 40 12 	add  %l1, %l2, %g1
a00012ac:	a0 04 20 01 	inc  %l0
a00012b0:	da 20 60 14 	st  %o5, [ %g1 + 0x14 ]
a00012b4:	80 a4 20 03 	cmp  %l0, 3
a00012b8:	04 bf ff de 	ble  a0001230 <ambapp_ahb_dev_init+0x5c>
a00012bc:	d8 20 60 04 	st  %o4, [ %g1 + 4 ]
a00012c0:	81 c7 e0 08 	ret 
a00012c4:	81 e8 00 00 	restore 

a00012c8 <ambapp_add_scanned_bus>:
a00012c8:	9a 10 20 00 	clr  %o5
a00012cc:	99 2b 60 02 	sll  %o5, 2, %o4
a00012d0:	c2 02 00 0c 	ld  [ %o0 + %o4 ], %g1
a00012d4:	80 a0 60 00 	cmp  %g1, 0
a00012d8:	02 80 00 06 	be  a00012f0 <ambapp_add_scanned_bus+0x28>
a00012dc:	9a 03 60 01 	inc  %o5
a00012e0:	80 a3 60 0f 	cmp  %o5, 0xf
a00012e4:	24 bf ff fb 	ble,a   a00012d0 <ambapp_add_scanned_bus+0x8>
a00012e8:	99 2b 60 02 	sll  %o5, 2, %o4
a00012ec:	30 80 00 02 	b,a   a00012f4 <ambapp_add_scanned_bus+0x2c>
a00012f0:	d2 22 00 0c 	st  %o1, [ %o0 + %o4 ]
a00012f4:	81 c3 e0 08 	retl 
a00012f8:	01 00 00 00 	nop 

a00012fc <ambapp_find>:
a00012fc:	9d e3 be a0 	save  %sp, -352, %sp
a0001300:	f6 27 a0 50 	st  %i3, [ %fp + 0x50 ]
a0001304:	80 a6 60 00 	cmp  %i1, 0
a0001308:	f4 27 a0 4c 	st  %i2, [ %fp + 0x4c ]
a000130c:	f8 27 a0 54 	st  %i4, [ %fp + 0x54 ]
a0001310:	fa 27 a0 58 	st  %i5, [ %fp + 0x58 ]
a0001314:	02 80 01 0e 	be  a000174c <ambapp_find+0x450>
a0001318:	b6 10 20 40 	mov  0x40, %i3
a000131c:	b6 10 20 10 	mov  0x10, %i3
a0001320:	ae 10 20 00 	clr  %l7
a0001324:	03 00 03 fc 	sethi  %hi(0xff000), %g1
a0001328:	80 a5 c0 1b 	cmp  %l7, %i3
a000132c:	16 80 00 43 	bge  a0001438 <ambapp_find+0x13c>
a0001330:	b2 16 00 01 	or  %i0, %g1, %i1
a0001334:	a0 10 20 00 	clr  %l0
a0001338:	a2 10 20 00 	clr  %l1
a000133c:	10 80 00 05 	b  a0001350 <ambapp_find+0x54>
a0001340:	a4 07 bf b8 	add  %fp, -72, %l2
a0001344:	80 a5 c0 1b 	cmp  %l7, %i3
a0001348:	36 80 00 3d 	bge,a   a000143c <ambapp_find+0x140>
a000134c:	ae 10 20 00 	clr  %l7
a0001350:	d8 06 40 00 	ld  [ %i1 ], %o4
a0001354:	d8 27 bf d8 	st  %o4, [ %fp + -40 ]
a0001358:	c2 06 60 04 	ld  [ %i1 + 4 ], %g1
a000135c:	c2 27 bf dc 	st  %g1, [ %fp + -36 ]
a0001360:	da 06 60 08 	ld  [ %i1 + 8 ], %o5
a0001364:	da 27 bf e0 	st  %o5, [ %fp + -32 ]
a0001368:	c2 06 60 0c 	ld  [ %i1 + 0xc ], %g1
a000136c:	c2 27 bf e4 	st  %g1, [ %fp + -28 ]
a0001370:	da 06 60 10 	ld  [ %i1 + 0x10 ], %o5
a0001374:	da 27 bf e8 	st  %o5, [ %fp + -24 ]
a0001378:	c2 06 60 14 	ld  [ %i1 + 0x14 ], %g1
a000137c:	c2 27 bf ec 	st  %g1, [ %fp + -20 ]
a0001380:	da 06 60 18 	ld  [ %i1 + 0x18 ], %o5
a0001384:	da 27 bf f0 	st  %o5, [ %fp + -16 ]
a0001388:	c2 06 60 1c 	ld  [ %i1 + 0x1c ], %g1
a000138c:	90 10 00 18 	mov  %i0, %o0
a0001390:	d2 07 a0 4c 	ld  [ %fp + 0x4c ], %o1
a0001394:	94 07 bf d8 	add  %fp, -40, %o2
a0001398:	96 10 00 12 	mov  %l2, %o3
a000139c:	ae 05 e0 01 	inc  %l7
a00013a0:	b2 06 60 20 	add  %i1, 0x20, %i1
a00013a4:	80 a3 20 00 	cmp  %o4, 0
a00013a8:	02 bf ff e7 	be  a0001344 <ambapp_find+0x48>
a00013ac:	c2 27 bf f4 	st  %g1, [ %fp + -12 ]
a00013b0:	e0 3f bf c8 	std  %l0, [ %fp + -56 ]
a00013b4:	82 07 bf 80 	add  %fp, -128, %g1
a00013b8:	9a 10 20 01 	mov  1, %o5
a00013bc:	c2 27 bf cc 	st  %g1, [ %fp + -52 ]
a00013c0:	da 2f bf c8 	stb  %o5, [ %fp + -56 ]
a00013c4:	e0 3f bf b8 	std  %l0, [ %fp + -72 ]
a00013c8:	e0 3f bf c0 	std  %l0, [ %fp + -64 ]
a00013cc:	e0 3f bf 80 	std  %l0, [ %fp + -128 ]
a00013d0:	e0 3f bf 88 	std  %l0, [ %fp + -120 ]
a00013d4:	e0 3f bf 90 	std  %l0, [ %fp + -112 ]
a00013d8:	e0 3f bf 98 	std  %l0, [ %fp + -104 ]
a00013dc:	e0 3f bf a0 	std  %l0, [ %fp + -96 ]
a00013e0:	e0 3f bf a8 	std  %l0, [ %fp + -88 ]
a00013e4:	7f ff ff 7c 	call  a00011d4 <ambapp_ahb_dev_init>
a00013e8:	c0 27 bf b0 	clr  [ %fp + -80 ]
a00013ec:	c2 0f bf c9 	ldub  [ %fp + -55 ], %g1
a00013f0:	d8 07 a0 5c 	ld  [ %fp + 0x5c ], %o4
a00013f4:	80 a0 40 0c 	cmp  %g1, %o4
a00013f8:	12 bf ff d4 	bne  a0001348 <ambapp_find+0x4c>
a00013fc:	80 a5 c0 1b 	cmp  %l7, %i3
a0001400:	c2 17 bf ca 	lduh  [ %fp + -54 ], %g1
a0001404:	da 07 a0 60 	ld  [ %fp + 0x60 ], %o5
a0001408:	90 10 00 12 	mov  %l2, %o0
a000140c:	80 a0 40 0d 	cmp  %g1, %o5
a0001410:	12 bf ff cd 	bne  a0001344 <ambapp_find+0x48>
a0001414:	d2 07 a0 58 	ld  [ %fp + 0x58 ], %o1
a0001418:	c2 07 a0 54 	ld  [ %fp + 0x54 ], %g1
a000141c:	9f c0 40 00 	call  %g1
a0001420:	01 00 00 00 	nop 
a0001424:	80 a2 20 00 	cmp  %o0, 0
a0001428:	02 bf ff c8 	be  a0001348 <ambapp_find+0x4c>
a000142c:	80 a5 c0 1b 	cmp  %l7, %i3
a0001430:	10 80 00 cf 	b  a000176c <ambapp_find+0x470>
a0001434:	b0 10 20 01 	mov  1, %i0
a0001438:	ae 10 20 00 	clr  %l7
a000143c:	03 00 03 fe 	sethi  %hi(0xff800), %g1
a0001440:	80 a5 c0 1b 	cmp  %l7, %i3
a0001444:	16 80 00 85 	bge  a0001658 <ambapp_find+0x35c>
a0001448:	b2 16 00 01 	or  %i0, %g1, %i1
a000144c:	a8 10 20 00 	clr  %l4
a0001450:	10 80 00 06 	b  a0001468 <ambapp_find+0x16c>
a0001454:	aa 10 20 00 	clr  %l5
a0001458:	ae 05 e0 01 	inc  %l7
a000145c:	80 a5 c0 1b 	cmp  %l7, %i3
a0001460:	16 80 00 7e 	bge  a0001658 <ambapp_find+0x35c>
a0001464:	b2 06 60 20 	add  %i1, 0x20, %i1
a0001468:	d8 06 40 00 	ld  [ %i1 ], %o4
a000146c:	d8 27 bf d8 	st  %o4, [ %fp + -40 ]
a0001470:	c2 06 60 04 	ld  [ %i1 + 4 ], %g1
a0001474:	c2 27 bf dc 	st  %g1, [ %fp + -36 ]
a0001478:	da 06 60 08 	ld  [ %i1 + 8 ], %o5
a000147c:	da 27 bf e0 	st  %o5, [ %fp + -32 ]
a0001480:	c2 06 60 0c 	ld  [ %i1 + 0xc ], %g1
a0001484:	c2 27 bf e4 	st  %g1, [ %fp + -28 ]
a0001488:	da 06 60 10 	ld  [ %i1 + 0x10 ], %o5
a000148c:	da 27 bf e8 	st  %o5, [ %fp + -24 ]
a0001490:	c2 06 60 14 	ld  [ %i1 + 0x14 ], %g1
a0001494:	c2 27 bf ec 	st  %g1, [ %fp + -20 ]
a0001498:	da 06 60 18 	ld  [ %i1 + 0x18 ], %o5
a000149c:	da 27 bf f0 	st  %o5, [ %fp + -16 ]
a00014a0:	c2 06 60 1c 	ld  [ %i1 + 0x1c ], %g1
a00014a4:	80 a3 20 00 	cmp  %o4, 0
a00014a8:	02 bf ff ec 	be  a0001458 <ambapp_find+0x15c>
a00014ac:	c2 27 bf f4 	st  %g1, [ %fp + -12 ]
a00014b0:	e8 3f bf 78 	std  %l4, [ %fp + -136 ]
a00014b4:	82 07 bf 30 	add  %fp, -208, %g1
a00014b8:	9a 10 20 01 	mov  1, %o5
a00014bc:	c2 27 bf 7c 	st  %g1, [ %fp + -132 ]
a00014c0:	da 2f bf 78 	stb  %o5, [ %fp + -136 ]
a00014c4:	e8 3f bf 68 	std  %l4, [ %fp + -152 ]
a00014c8:	e8 3f bf 70 	std  %l4, [ %fp + -144 ]
a00014cc:	e8 3f bf 30 	std  %l4, [ %fp + -208 ]
a00014d0:	e8 3f bf 38 	std  %l4, [ %fp + -200 ]
a00014d4:	e8 3f bf 40 	std  %l4, [ %fp + -192 ]
a00014d8:	e8 3f bf 48 	std  %l4, [ %fp + -184 ]
a00014dc:	e8 3f bf 50 	std  %l4, [ %fp + -176 ]
a00014e0:	e8 3f bf 58 	std  %l4, [ %fp + -168 ]
a00014e4:	c0 27 bf 60 	clr  [ %fp + -160 ]
a00014e8:	90 10 00 18 	mov  %i0, %o0
a00014ec:	d2 07 a0 4c 	ld  [ %fp + 0x4c ], %o1
a00014f0:	94 07 bf d8 	add  %fp, -40, %o2
a00014f4:	7f ff ff 38 	call  a00011d4 <ambapp_ahb_dev_init>
a00014f8:	96 07 bf 68 	add  %fp, -152, %o3
a00014fc:	c2 0f bf 79 	ldub  [ %fp + -135 ], %g1
a0001500:	d8 07 a0 5c 	ld  [ %fp + 0x5c ], %o4
a0001504:	80 a0 40 0c 	cmp  %g1, %o4
a0001508:	02 80 00 56 	be  a0001660 <ambapp_find+0x364>
a000150c:	c2 17 bf 7a 	lduh  [ %fp + -134 ], %g1
a0001510:	c2 07 bf 78 	ld  [ %fp + -136 ], %g1
a0001514:	17 00 00 40 	sethi  %hi(0x10000), %o3
a0001518:	1b 3f c0 00 	sethi  %hi(0xff000000), %o5
a000151c:	9a 28 40 0d 	andn  %g1, %o5, %o5
a0001520:	98 12 e0 20 	or  %o3, 0x20, %o4
a0001524:	80 a3 40 0c 	cmp  %o5, %o4
a0001528:	02 80 00 5b 	be  a0001694 <ambapp_find+0x398>
a000152c:	82 12 e0 06 	or  %o3, 6, %g1
a0001530:	80 a3 40 01 	cmp  %o5, %g1
a0001534:	32 bf ff ca 	bne,a   a000145c <ambapp_find+0x160>
a0001538:	ae 05 e0 01 	inc  %l7
a000153c:	da 07 bf 7c 	ld  [ %fp + -132 ], %o5
a0001540:	f8 03 60 04 	ld  [ %o5 + 4 ], %i4
a0001544:	03 00 03 fc 	sethi  %hi(0xff000), %g1
a0001548:	a0 17 00 01 	or  %i4, %g1, %l0
a000154c:	ac 10 20 00 	clr  %l6
a0001550:	a4 10 20 00 	clr  %l2
a0001554:	a6 10 20 00 	clr  %l3
a0001558:	1b 28 00 23 	sethi  %hi(0xa0008c00), %o5
a000155c:	10 80 00 05 	b  a0001570 <ambapp_find+0x274>
a0001560:	f4 03 61 10 	ld  [ %o5 + 0x110 ], %i2	! a0008d10 <___DTOR_END__>
a0001564:	80 a5 a0 0f 	cmp  %l6, 0xf
a0001568:	34 bf ff bd 	bg,a   a000145c <ambapp_find+0x160>
a000156c:	ae 05 e0 01 	inc  %l7
a0001570:	d2 04 00 00 	ld  [ %l0 ], %o1
a0001574:	9b 32 60 05 	srl  %o1, 5, %o5
a0001578:	d2 27 bf d0 	st  %o1, [ %fp + -48 ]
a000157c:	d4 04 20 04 	ld  [ %l0 + 4 ], %o2
a0001580:	83 32 60 0c 	srl  %o1, 0xc, %g1
a0001584:	9e 0b 60 1f 	and  %o5, 0x1f, %o7
a0001588:	ba 08 6f ff 	and  %g1, 0xfff, %i5
a000158c:	97 32 a0 04 	srl  %o2, 4, %o3
a0001590:	1b 3f fc 00 	sethi  %hi(0xfff00000), %o5
a0001594:	9a 0a 80 0d 	and  %o2, %o5, %o5
a0001598:	96 0a ef ff 	and  %o3, 0xfff, %o3
a000159c:	98 0a 80 1a 	and  %o2, %i2, %o4
a00015a0:	03 00 03 ff 	sethi  %hi(0xffc00), %g1
a00015a4:	99 2b 20 04 	sll  %o4, 4, %o4
a00015a8:	9b 33 60 0c 	srl  %o5, 0xc, %o5
a00015ac:	97 2a e0 08 	sll  %o3, 8, %o3
a00015b0:	82 10 63 ff 	or  %g1, 0x3ff, %g1
a00015b4:	9a 0b 40 0c 	and  %o5, %o4, %o5
a00015b8:	96 28 40 0b 	andn  %g1, %o3, %o3
a00015bc:	ac 05 a0 01 	inc  %l6
a00015c0:	a2 0a 60 1f 	and  %o1, 0x1f, %l1
a00015c4:	a0 04 20 08 	add  %l0, 8, %l0
a00015c8:	90 13 40 1c 	or  %o5, %i4, %o0
a00015cc:	96 02 e0 01 	inc  %o3
a00015d0:	99 32 60 18 	srl  %o1, 0x18, %o4
a00015d4:	80 a2 60 00 	cmp  %o1, 0
a00015d8:	02 bf ff e3 	be  a0001564 <ambapp_find+0x268>
a00015dc:	d4 27 bf d4 	st  %o2, [ %fp + -44 ]
a00015e0:	e4 3f bf 28 	std  %l2, [ %fp + -216 ]
a00015e4:	82 07 bf 08 	add  %fp, -248, %g1
a00015e8:	c2 27 bf 2c 	st  %g1, [ %fp + -212 ]
a00015ec:	e4 3f bf 08 	std  %l2, [ %fp + -248 ]
a00015f0:	9a 10 20 03 	mov  3, %o5
a00015f4:	c2 07 a0 5c 	ld  [ %fp + 0x5c ], %g1
a00015f8:	da 2f bf 28 	stb  %o5, [ %fp + -216 ]
a00015fc:	de 2f bf 09 	stb  %o7, [ %fp + -247 ]
a0001600:	e2 2f bf 08 	stb  %l1, [ %fp + -248 ]
a0001604:	d0 27 bf 0c 	st  %o0, [ %fp + -244 ]
a0001608:	d6 27 bf 10 	st  %o3, [ %fp + -240 ]
a000160c:	80 a3 00 01 	cmp  %o4, %g1
a0001610:	e4 3f bf 18 	std  %l2, [ %fp + -232 ]
a0001614:	e4 3f bf 20 	std  %l2, [ %fp + -224 ]
a0001618:	d8 2f bf 29 	stb  %o4, [ %fp + -215 ]
a000161c:	12 bf ff d2 	bne  a0001564 <ambapp_find+0x268>
a0001620:	fa 37 bf 2a 	sth  %i5, [ %fp + -214 ]
a0001624:	d8 07 a0 60 	ld  [ %fp + 0x60 ], %o4
a0001628:	90 07 bf 18 	add  %fp, -232, %o0
a000162c:	80 a7 40 0c 	cmp  %i5, %o4
a0001630:	12 bf ff cd 	bne  a0001564 <ambapp_find+0x268>
a0001634:	d2 07 a0 58 	ld  [ %fp + 0x58 ], %o1
a0001638:	da 07 a0 54 	ld  [ %fp + 0x54 ], %o5
a000163c:	9f c3 40 00 	call  %o5
a0001640:	01 00 00 00 	nop 
a0001644:	80 a2 20 00 	cmp  %o0, 0
a0001648:	02 bf ff c8 	be  a0001568 <ambapp_find+0x26c>
a000164c:	80 a5 a0 0f 	cmp  %l6, 0xf
a0001650:	10 80 00 47 	b  a000176c <ambapp_find+0x470>
a0001654:	b0 10 20 01 	mov  1, %i0
a0001658:	10 80 00 45 	b  a000176c <ambapp_find+0x470>
a000165c:	b0 10 20 00 	clr  %i0
a0001660:	da 07 a0 60 	ld  [ %fp + 0x60 ], %o5
a0001664:	80 a0 40 0d 	cmp  %g1, %o5
a0001668:	12 bf ff ab 	bne  a0001514 <ambapp_find+0x218>
a000166c:	c2 07 bf 78 	ld  [ %fp + -136 ], %g1
a0001670:	90 07 bf 68 	add  %fp, -152, %o0
a0001674:	c2 07 a0 54 	ld  [ %fp + 0x54 ], %g1
a0001678:	9f c0 40 00 	call  %g1
a000167c:	d2 07 a0 58 	ld  [ %fp + 0x58 ], %o1
a0001680:	80 a2 20 00 	cmp  %o0, 0
a0001684:	02 bf ff a4 	be  a0001514 <ambapp_find+0x218>
a0001688:	c2 07 bf 78 	ld  [ %fp + -136 ], %g1
a000168c:	10 80 00 38 	b  a000176c <ambapp_find+0x470>
a0001690:	b0 10 20 01 	mov  1, %i0
a0001694:	da 07 bf 7c 	ld  [ %fp + -132 ], %o5
a0001698:	c2 0b 60 01 	ldub  [ %o5 + 1 ], %g1
a000169c:	80 a0 60 00 	cmp  %g1, 0
a00016a0:	22 bf ff 6f 	be,a   a000145c <ambapp_find+0x160>
a00016a4:	ae 05 e0 01 	inc  %l7
a00016a8:	d2 03 60 2c 	ld  [ %o5 + 0x2c ], %o1
a00016ac:	7f ff fe af 	call  a0001168 <ambapp_addr_from>
a00016b0:	d0 07 a0 4c 	ld  [ %fp + 0x4c ], %o0
a00016b4:	d8 07 a0 50 	ld  [ %fp + 0x50 ], %o4
a00016b8:	80 a3 20 00 	cmp  %o4, 0
a00016bc:	02 80 00 14 	be  a000170c <ambapp_find+0x410>
a00016c0:	a0 10 00 08 	mov  %o0, %l0
a00016c4:	9a 10 20 00 	clr  %o5
a00016c8:	83 2b 60 02 	sll  %o5, 2, %g1
a00016cc:	d8 07 a0 50 	ld  [ %fp + 0x50 ], %o4
a00016d0:	c2 03 00 01 	ld  [ %o4 + %g1 ], %g1
a00016d4:	80 a0 60 00 	cmp  %g1, 0
a00016d8:	02 80 00 07 	be  a00016f4 <ambapp_find+0x3f8>
a00016dc:	9a 03 60 01 	inc  %o5
a00016e0:	80 a0 40 10 	cmp  %g1, %l0
a00016e4:	02 bf ff 5d 	be  a0001458 <ambapp_find+0x15c>
a00016e8:	80 a3 60 0f 	cmp  %o5, 0xf
a00016ec:	04 bf ff f9 	ble  a00016d0 <ambapp_find+0x3d4>
a00016f0:	83 2b 60 02 	sll  %o5, 2, %g1
a00016f4:	da 07 a0 50 	ld  [ %fp + 0x50 ], %o5
a00016f8:	80 a3 60 00 	cmp  %o5, 0
a00016fc:	02 80 00 04 	be  a000170c <ambapp_find+0x410>
a0001700:	90 10 00 0d 	mov  %o5, %o0
a0001704:	7f ff fe f1 	call  a00012c8 <ambapp_add_scanned_bus>
a0001708:	92 10 00 10 	mov  %l0, %o1
a000170c:	d8 07 a0 60 	ld  [ %fp + 0x60 ], %o4
a0001710:	c2 07 a0 5c 	ld  [ %fp + 0x5c ], %g1
a0001714:	d8 23 a0 60 	st  %o4, [ %sp + 0x60 ]
a0001718:	c2 23 a0 5c 	st  %g1, [ %sp + 0x5c ]
a000171c:	90 10 00 10 	mov  %l0, %o0
a0001720:	92 07 bf 68 	add  %fp, -152, %o1
a0001724:	d4 07 a0 4c 	ld  [ %fp + 0x4c ], %o2
a0001728:	d6 07 a0 50 	ld  [ %fp + 0x50 ], %o3
a000172c:	d8 07 a0 54 	ld  [ %fp + 0x54 ], %o4
a0001730:	7f ff fe f3 	call  a00012fc <ambapp_find>
a0001734:	da 07 a0 58 	ld  [ %fp + 0x58 ], %o5
a0001738:	80 a2 20 00 	cmp  %o0, 0
a000173c:	22 bf ff 48 	be,a   a000145c <ambapp_find+0x160>
a0001740:	ae 05 e0 01 	inc  %l7
a0001744:	10 80 00 0a 	b  a000176c <ambapp_find+0x470>
a0001748:	b0 10 20 01 	mov  1, %i0
a000174c:	c2 07 a0 50 	ld  [ %fp + 0x50 ], %g1
a0001750:	80 a0 60 00 	cmp  %g1, 0
a0001754:	02 bf fe f3 	be  a0001320 <ambapp_find+0x24>
a0001758:	90 10 00 01 	mov  %g1, %o0
a000175c:	7f ff fe db 	call  a00012c8 <ambapp_add_scanned_bus>
a0001760:	92 10 00 18 	mov  %i0, %o1
a0001764:	10 bf fe f0 	b  a0001324 <ambapp_find+0x28>
a0001768:	ae 10 20 00 	clr  %l7
a000176c:	81 c7 e0 08 	ret 
a0001770:	81 e8 00 00 	restore 

a0001774 <ambapp_dev_find_match>:
a0001774:	c2 02 40 00 	ld  [ %o1 ], %g1
a0001778:	80 a0 60 00 	cmp  %g1, 0
a000177c:	12 80 00 2c 	bne  a000182c <ambapp_dev_find_match+0xb8>
a0001780:	9a 00 7f ff 	add  %g1, -1, %o5
a0001784:	c2 02 60 08 	ld  [ %o1 + 8 ], %g1
a0001788:	80 a0 60 03 	cmp  %g1, 3
a000178c:	02 80 00 2a 	be  a0001834 <ambapp_dev_find_match+0xc0>
a0001790:	d6 02 20 14 	ld  [ %o0 + 0x14 ], %o3
a0001794:	c2 02 c0 00 	ld  [ %o3 ], %g1
a0001798:	d4 02 60 0c 	ld  [ %o1 + 0xc ], %o2
a000179c:	c2 22 80 00 	st  %g1, [ %o2 ]
a00017a0:	da 02 e0 04 	ld  [ %o3 + 4 ], %o5
a00017a4:	da 22 a0 04 	st  %o5, [ %o2 + 4 ]
a00017a8:	c2 02 e0 08 	ld  [ %o3 + 8 ], %g1
a00017ac:	c2 22 a0 08 	st  %g1, [ %o2 + 8 ]
a00017b0:	da 02 e0 0c 	ld  [ %o3 + 0xc ], %o5
a00017b4:	da 22 a0 0c 	st  %o5, [ %o2 + 0xc ]
a00017b8:	c2 02 e0 10 	ld  [ %o3 + 0x10 ], %g1
a00017bc:	c2 22 a0 10 	st  %g1, [ %o2 + 0x10 ]
a00017c0:	da 02 e0 14 	ld  [ %o3 + 0x14 ], %o5
a00017c4:	da 22 a0 14 	st  %o5, [ %o2 + 0x14 ]
a00017c8:	c2 02 e0 18 	ld  [ %o3 + 0x18 ], %g1
a00017cc:	c2 22 a0 18 	st  %g1, [ %o2 + 0x18 ]
a00017d0:	da 02 e0 1c 	ld  [ %o3 + 0x1c ], %o5
a00017d4:	da 22 a0 1c 	st  %o5, [ %o2 + 0x1c ]
a00017d8:	c2 02 e0 20 	ld  [ %o3 + 0x20 ], %g1
a00017dc:	c2 22 a0 20 	st  %g1, [ %o2 + 0x20 ]
a00017e0:	da 02 e0 24 	ld  [ %o3 + 0x24 ], %o5
a00017e4:	da 22 a0 24 	st  %o5, [ %o2 + 0x24 ]
a00017e8:	c2 02 e0 28 	ld  [ %o3 + 0x28 ], %g1
a00017ec:	c2 22 a0 28 	st  %g1, [ %o2 + 0x28 ]
a00017f0:	da 02 e0 2c 	ld  [ %o3 + 0x2c ], %o5
a00017f4:	da 22 a0 2c 	st  %o5, [ %o2 + 0x2c ]
a00017f8:	d8 02 e0 30 	ld  [ %o3 + 0x30 ], %o4
a00017fc:	d8 22 a0 30 	st  %o4, [ %o2 + 0x30 ]
a0001800:	c2 02 60 0c 	ld  [ %o1 + 0xc ], %g1
a0001804:	82 00 60 34 	add  %g1, 0x34, %g1
a0001808:	c2 22 60 0c 	st  %g1, [ %o1 + 0xc ]
a000180c:	c2 02 60 04 	ld  [ %o1 + 4 ], %g1
a0001810:	82 00 7f ff 	add  %g1, -1, %g1
a0001814:	c2 22 60 04 	st  %g1, [ %o1 + 4 ]
a0001818:	80 a0 60 00 	cmp  %g1, 0
a000181c:	04 80 00 10 	ble  a000185c <ambapp_dev_find_match+0xe8>
a0001820:	90 10 20 01 	mov  1, %o0
a0001824:	10 80 00 0e 	b  a000185c <ambapp_dev_find_match+0xe8>
a0001828:	90 10 20 00 	clr  %o0
a000182c:	10 bf ff fe 	b  a0001824 <ambapp_dev_find_match+0xb0>
a0001830:	da 22 40 00 	st  %o5, [ %o1 ]
a0001834:	c2 02 c0 00 	ld  [ %o3 ], %g1
a0001838:	d4 02 60 0c 	ld  [ %o1 + 0xc ], %o2
a000183c:	c2 22 80 00 	st  %g1, [ %o2 ]
a0001840:	da 02 e0 04 	ld  [ %o3 + 4 ], %o5
a0001844:	da 22 a0 04 	st  %o5, [ %o2 + 4 ]
a0001848:	d8 02 e0 08 	ld  [ %o3 + 8 ], %o4
a000184c:	d8 22 a0 08 	st  %o4, [ %o2 + 8 ]
a0001850:	c2 02 60 0c 	ld  [ %o1 + 0xc ], %g1
a0001854:	10 bf ff ed 	b  a0001808 <ambapp_dev_find_match+0x94>
a0001858:	82 00 60 0c 	add  %g1, 0xc, %g1
a000185c:	81 c3 e0 08 	retl 
a0001860:	01 00 00 00 	nop 

a0001864 <find_apbslv>:
a0001864:	9d e3 bf 40 	save  %sp, -192, %sp
a0001868:	98 10 20 00 	clr  %o4
a000186c:	9a 10 20 00 	clr  %o5
a0001870:	d8 3f bf e0 	std  %o4, [ %fp + -32 ]
a0001874:	d8 3f bf a8 	std  %o4, [ %fp + -88 ]
a0001878:	d8 3f bf b0 	std  %o4, [ %fp + -80 ]
a000187c:	d8 3f bf b8 	std  %o4, [ %fp + -72 ]
a0001880:	d8 3f bf c0 	std  %o4, [ %fp + -64 ]
a0001884:	d8 3f bf c8 	std  %o4, [ %fp + -56 ]
a0001888:	d8 3f bf d0 	std  %o4, [ %fp + -48 ]
a000188c:	d8 3f bf d8 	std  %o4, [ %fp + -40 ]
a0001890:	a0 10 20 01 	mov  1, %l0
a0001894:	82 10 20 03 	mov  3, %g1
a0001898:	19 28 00 05 	sethi  %hi(0xa0001400), %o4
a000189c:	f0 23 a0 5c 	st  %i0, [ %sp + 0x5c ]
a00018a0:	c2 27 bf f0 	st  %g1, [ %fp + -16 ]
a00018a4:	f4 27 bf f4 	st  %i2, [ %fp + -12 ]
a00018a8:	f2 23 a0 60 	st  %i1, [ %sp + 0x60 ]
a00018ac:	c0 27 bf e8 	clr  [ %fp + -24 ]
a00018b0:	e0 27 bf ec 	st  %l0, [ %fp + -20 ]
a00018b4:	98 13 23 74 	or  %o4, 0x374, %o4
a00018b8:	11 3f fc 00 	sethi  %hi(0xfff00000), %o0
a00018bc:	92 10 20 00 	clr  %o1
a00018c0:	94 10 20 00 	clr  %o2
a00018c4:	96 07 bf a8 	add  %fp, -88, %o3
a00018c8:	7f ff fe 8d 	call  a00012fc <ambapp_find>
a00018cc:	9a 07 bf e8 	add  %fp, -24, %o5
a00018d0:	f0 07 bf ec 	ld  [ %fp + -20 ], %i0
a00018d4:	b0 24 00 18 	sub  %l0, %i0, %i0
a00018d8:	81 c7 e0 08 	ret 
a00018dc:	81 e8 00 00 	restore 

a00018e0 <pnpinit>:
a00018e0:	9d e3 bf 88 	save  %sp, -120, %sp
a00018e4:	a0 07 bf e8 	add  %fp, -24, %l0
a00018e8:	92 10 20 0c 	mov  0xc, %o1
a00018ec:	94 10 00 10 	mov  %l0, %o2
a00018f0:	7f ff ff dd 	call  a0001864 <find_apbslv>
a00018f4:	90 10 20 01 	mov  1, %o0
a00018f8:	80 a2 20 01 	cmp  %o0, 1
a00018fc:	92 10 20 11 	mov  0x11, %o1
a0001900:	94 10 00 10 	mov  %l0, %o2
a0001904:	02 80 00 10 	be  a0001944 <pnpinit+0x64>
a0001908:	90 10 20 01 	mov  1, %o0
a000190c:	7f ff ff d6 	call  a0001864 <find_apbslv>
a0001910:	01 00 00 00 	nop 
a0001914:	80 a2 20 01 	cmp  %o0, 1
a0001918:	94 10 00 10 	mov  %l0, %o2
a000191c:	92 10 20 0d 	mov  0xd, %o1
a0001920:	02 80 00 12 	be  a0001968 <pnpinit+0x88>
a0001924:	90 10 20 01 	mov  1, %o0
a0001928:	7f ff ff cf 	call  a0001864 <find_apbslv>
a000192c:	01 00 00 00 	nop 
a0001930:	80 a2 20 01 	cmp  %o0, 1
a0001934:	12 80 00 19 	bne  a0001998 <pnpinit+0xb8>
a0001938:	da 07 bf ec 	ld  [ %fp + -20 ], %o5
a000193c:	10 80 00 16 	b  a0001994 <pnpinit+0xb4>
a0001940:	03 28 00 2a 	sethi  %hi(0xa000a800), %g1
a0001944:	da 07 bf ec 	ld  [ %fp + -20 ], %o5
a0001948:	03 28 00 2a 	sethi  %hi(0xa000a800), %g1
a000194c:	7f ff ff c6 	call  a0001864 <find_apbslv>
a0001950:	da 20 61 94 	st  %o5, [ %g1 + 0x194 ]	! a000a994 <console>
a0001954:	80 a2 20 01 	cmp  %o0, 1
a0001958:	94 10 00 10 	mov  %l0, %o2
a000195c:	92 10 20 0d 	mov  0xd, %o1
a0001960:	12 bf ff f2 	bne  a0001928 <pnpinit+0x48>
a0001964:	90 10 20 01 	mov  1, %o0
a0001968:	d6 07 bf ec 	ld  [ %fp + -20 ], %o3
a000196c:	98 02 e0 10 	add  %o3, 0x10, %o4
a0001970:	03 28 00 2a 	sethi  %hi(0xa000a800), %g1
a0001974:	1b 28 00 2b 	sethi  %hi(0xa000ac00), %o5
a0001978:	d8 20 61 88 	st  %o4, [ %g1 + 0x188 ]
a000197c:	7f ff ff ba 	call  a0001864 <find_apbslv>
a0001980:	d6 23 61 ec 	st  %o3, [ %o5 + 0x1ec ]
a0001984:	80 a2 20 01 	cmp  %o0, 1
a0001988:	12 80 00 04 	bne  a0001998 <pnpinit+0xb8>
a000198c:	da 07 bf ec 	ld  [ %fp + -20 ], %o5
a0001990:	03 28 00 2a 	sethi  %hi(0xa000a800), %g1
a0001994:	da 20 61 8c 	st  %o5, [ %g1 + 0x18c ]	! a000a98c <LEON3_IrqCtrl_Regs>
a0001998:	81 c7 e0 08 	ret 
a000199c:	81 e8 00 00 	restore 

a00019a0 <private_AES_set_encrypt_key>:
a00019a0:	9d e3 bf 98 	save  %sp, -104, %sp
a00019a4:	80 a0 00 18 	cmp  %g0, %i0
a00019a8:	ba 60 3f ff 	subx  %g0, -1, %i5
a00019ac:	80 a0 00 1a 	cmp  %g0, %i2
a00019b0:	82 60 3f ff 	subx  %g0, -1, %g1
a00019b4:	80 97 40 01 	orcc  %i5, %g1, %g0
a00019b8:	92 10 20 00 	clr  %o1
a00019bc:	12 80 01 42 	bne  a0001ec4 <private_AES_set_encrypt_key+0x524>
a00019c0:	82 10 3f ff 	mov  -1, %g1
a00019c4:	82 1e 60 80 	xor  %i1, 0x80, %g1
a00019c8:	80 a0 00 01 	cmp  %g0, %g1
a00019cc:	b8 40 20 00 	addx  %g0, 0, %i4
a00019d0:	82 1e 60 c0 	xor  %i1, 0xc0, %g1
a00019d4:	80 a0 00 01 	cmp  %g0, %g1
a00019d8:	ba 40 20 00 	addx  %g0, 0, %i5
a00019dc:	80 8f 00 1d 	btst  %i4, %i5
a00019e0:	12 80 00 6b 	bne  a0001b8c <private_AES_set_encrypt_key+0x1ec>
a00019e4:	80 a6 61 00 	cmp  %i1, 0x100
a00019e8:	80 a6 60 80 	cmp  %i1, 0x80
a00019ec:	02 80 00 6d 	be  a0001ba0 <private_AES_set_encrypt_key+0x200>
a00019f0:	9a 10 00 1a 	mov  %i2, %o5
a00019f4:	80 a6 60 c0 	cmp  %i1, 0xc0
a00019f8:	02 80 00 03 	be  a0001a04 <private_AES_set_encrypt_key+0x64>
a00019fc:	82 10 20 0c 	mov  0xc, %g1
a0001a00:	82 10 20 0e 	mov  0xe, %g1
a0001a04:	c2 23 60 f0 	st  %g1, [ %o5 + 0xf0 ]
a0001a08:	c2 0e 00 00 	ldub  [ %i0 ], %g1
a0001a0c:	f8 0e 20 01 	ldub  [ %i0 + 1 ], %i4
a0001a10:	fa 0e 20 02 	ldub  [ %i0 + 2 ], %i5
a0001a14:	b9 2f 20 10 	sll  %i4, 0x10, %i4
a0001a18:	83 28 60 18 	sll  %g1, 0x18, %g1
a0001a1c:	82 18 40 1c 	xor  %g1, %i4, %g1
a0001a20:	bb 2f 60 08 	sll  %i5, 8, %i5
a0001a24:	f8 0e 20 03 	ldub  [ %i0 + 3 ], %i4
a0001a28:	82 18 40 1d 	xor  %g1, %i5, %g1
a0001a2c:	82 18 40 1c 	xor  %g1, %i4, %g1
a0001a30:	c2 26 80 00 	st  %g1, [ %i2 ]
a0001a34:	fa 0e 20 04 	ldub  [ %i0 + 4 ], %i5
a0001a38:	f8 0e 20 05 	ldub  [ %i0 + 5 ], %i4
a0001a3c:	c2 0e 20 06 	ldub  [ %i0 + 6 ], %g1
a0001a40:	b9 2f 20 10 	sll  %i4, 0x10, %i4
a0001a44:	bb 2f 60 18 	sll  %i5, 0x18, %i5
a0001a48:	ba 1f 40 1c 	xor  %i5, %i4, %i5
a0001a4c:	83 28 60 08 	sll  %g1, 8, %g1
a0001a50:	f8 0e 20 07 	ldub  [ %i0 + 7 ], %i4
a0001a54:	ba 1f 40 01 	xor  %i5, %g1, %i5
a0001a58:	ba 1f 40 1c 	xor  %i5, %i4, %i5
a0001a5c:	fa 26 a0 04 	st  %i5, [ %i2 + 4 ]
a0001a60:	c2 0e 20 08 	ldub  [ %i0 + 8 ], %g1
a0001a64:	f8 0e 20 09 	ldub  [ %i0 + 9 ], %i4
a0001a68:	fa 0e 20 0a 	ldub  [ %i0 + 0xa ], %i5
a0001a6c:	b9 2f 20 10 	sll  %i4, 0x10, %i4
a0001a70:	83 28 60 18 	sll  %g1, 0x18, %g1
a0001a74:	82 18 40 1c 	xor  %g1, %i4, %g1
a0001a78:	bb 2f 60 08 	sll  %i5, 8, %i5
a0001a7c:	f8 0e 20 0b 	ldub  [ %i0 + 0xb ], %i4
a0001a80:	82 18 40 1d 	xor  %g1, %i5, %g1
a0001a84:	82 18 40 1c 	xor  %g1, %i4, %g1
a0001a88:	c2 26 a0 08 	st  %g1, [ %i2 + 8 ]
a0001a8c:	fa 0e 20 0c 	ldub  [ %i0 + 0xc ], %i5
a0001a90:	f8 0e 20 0d 	ldub  [ %i0 + 0xd ], %i4
a0001a94:	b9 2f 20 10 	sll  %i4, 0x10, %i4
a0001a98:	c2 0e 20 0e 	ldub  [ %i0 + 0xe ], %g1
a0001a9c:	bb 2f 60 18 	sll  %i5, 0x18, %i5
a0001aa0:	ba 1f 40 1c 	xor  %i5, %i4, %i5
a0001aa4:	83 28 60 08 	sll  %g1, 8, %g1
a0001aa8:	f8 0e 20 0f 	ldub  [ %i0 + 0xf ], %i4
a0001aac:	ba 1f 40 01 	xor  %i5, %g1, %i5
a0001ab0:	ba 1f 40 1c 	xor  %i5, %i4, %i5
a0001ab4:	80 a6 60 80 	cmp  %i1, 0x80
a0001ab8:	02 80 00 3c 	be  a0001ba8 <private_AES_set_encrypt_key+0x208>
a0001abc:	fa 26 a0 0c 	st  %i5, [ %i2 + 0xc ]
a0001ac0:	c2 0e 20 10 	ldub  [ %i0 + 0x10 ], %g1
a0001ac4:	f8 0e 20 11 	ldub  [ %i0 + 0x11 ], %i4
a0001ac8:	fa 0e 20 12 	ldub  [ %i0 + 0x12 ], %i5
a0001acc:	b9 2f 20 10 	sll  %i4, 0x10, %i4
a0001ad0:	83 28 60 18 	sll  %g1, 0x18, %g1
a0001ad4:	82 18 40 1c 	xor  %g1, %i4, %g1
a0001ad8:	bb 2f 60 08 	sll  %i5, 8, %i5
a0001adc:	f8 0e 20 13 	ldub  [ %i0 + 0x13 ], %i4
a0001ae0:	82 18 40 1d 	xor  %g1, %i5, %g1
a0001ae4:	82 18 40 1c 	xor  %g1, %i4, %g1
a0001ae8:	c2 26 a0 10 	st  %g1, [ %i2 + 0x10 ]
a0001aec:	fa 0e 20 14 	ldub  [ %i0 + 0x14 ], %i5
a0001af0:	f8 0e 20 15 	ldub  [ %i0 + 0x15 ], %i4
a0001af4:	b9 2f 20 10 	sll  %i4, 0x10, %i4
a0001af8:	c2 0e 20 16 	ldub  [ %i0 + 0x16 ], %g1
a0001afc:	bb 2f 60 18 	sll  %i5, 0x18, %i5
a0001b00:	ba 1f 40 1c 	xor  %i5, %i4, %i5
a0001b04:	83 28 60 08 	sll  %g1, 8, %g1
a0001b08:	f8 0e 20 17 	ldub  [ %i0 + 0x17 ], %i4
a0001b0c:	ba 1f 40 01 	xor  %i5, %g1, %i5
a0001b10:	ba 1f 40 1c 	xor  %i5, %i4, %i5
a0001b14:	80 a6 60 c0 	cmp  %i1, 0xc0
a0001b18:	02 80 00 5a 	be  a0001c80 <private_AES_set_encrypt_key+0x2e0>
a0001b1c:	fa 26 a0 14 	st  %i5, [ %i2 + 0x14 ]
a0001b20:	c2 0e 20 18 	ldub  [ %i0 + 0x18 ], %g1
a0001b24:	f8 0e 20 19 	ldub  [ %i0 + 0x19 ], %i4
a0001b28:	fa 0e 20 1a 	ldub  [ %i0 + 0x1a ], %i5
a0001b2c:	b9 2f 20 10 	sll  %i4, 0x10, %i4
a0001b30:	83 28 60 18 	sll  %g1, 0x18, %g1
a0001b34:	82 18 40 1c 	xor  %g1, %i4, %g1
a0001b38:	bb 2f 60 08 	sll  %i5, 8, %i5
a0001b3c:	f8 0e 20 1b 	ldub  [ %i0 + 0x1b ], %i4
a0001b40:	82 18 40 1d 	xor  %g1, %i5, %g1
a0001b44:	82 18 40 1c 	xor  %g1, %i4, %g1
a0001b48:	c2 26 a0 18 	st  %g1, [ %i2 + 0x18 ]
a0001b4c:	fa 0e 20 1c 	ldub  [ %i0 + 0x1c ], %i5
a0001b50:	f8 0e 20 1d 	ldub  [ %i0 + 0x1d ], %i4
a0001b54:	b9 2f 20 10 	sll  %i4, 0x10, %i4
a0001b58:	c2 0e 20 1e 	ldub  [ %i0 + 0x1e ], %g1
a0001b5c:	bb 2f 60 18 	sll  %i5, 0x18, %i5
a0001b60:	ba 1f 40 1c 	xor  %i5, %i4, %i5
a0001b64:	83 28 60 08 	sll  %g1, 8, %g1
a0001b68:	ba 1f 40 01 	xor  %i5, %g1, %i5
a0001b6c:	f8 0e 20 1f 	ldub  [ %i0 + 0x1f ], %i4
a0001b70:	ba 1f 40 1c 	xor  %i5, %i4, %i5
a0001b74:	fa 26 a0 1c 	st  %i5, [ %i2 + 0x1c ]
a0001b78:	80 a6 61 00 	cmp  %i1, 0x100
a0001b7c:	12 80 00 d2 	bne  a0001ec4 <private_AES_set_encrypt_key+0x524>
a0001b80:	82 10 20 00 	clr  %g1
a0001b84:	10 80 00 7c 	b  a0001d74 <private_AES_set_encrypt_key+0x3d4>
a0001b88:	2f 28 00 26 	sethi  %hi(0xa0009800), %l7
a0001b8c:	12 80 00 ce 	bne  a0001ec4 <private_AES_set_encrypt_key+0x524>
a0001b90:	82 10 3f fe 	mov  -2, %g1
a0001b94:	80 a6 60 80 	cmp  %i1, 0x80
a0001b98:	12 bf ff 97 	bne  a00019f4 <private_AES_set_encrypt_key+0x54>
a0001b9c:	9a 10 00 1a 	mov  %i2, %o5
a0001ba0:	10 bf ff 99 	b  a0001a04 <private_AES_set_encrypt_key+0x64>
a0001ba4:	82 10 20 0a 	mov  0xa, %g1
a0001ba8:	2f 28 00 26 	sethi  %hi(0xa0009800), %l7
a0001bac:	2d 28 00 27 	sethi  %hi(0xa0009c00), %l6
a0001bb0:	fa 0b 60 0d 	ldub  [ %o5 + 0xd ], %i5
a0001bb4:	17 28 00 24 	sethi  %hi(0xa0009000), %o3
a0001bb8:	82 12 e1 28 	or  %o3, 0x128, %g1	! a0009128 <Te2>
a0001bbc:	bb 2f 60 02 	sll  %i5, 2, %i5
a0001bc0:	f6 00 40 1d 	ld  [ %g1 + %i5 ], %i3
a0001bc4:	03 28 00 23 	sethi  %hi(0xa0008c00), %g1
a0001bc8:	b2 10 61 28 	or  %g1, 0x128, %i1	! a0008d28 <Te3>
a0001bcc:	f8 0b 60 0e 	ldub  [ %o5 + 0xe ], %i4
a0001bd0:	03 3f c0 00 	sethi  %hi(0xff000000), %g1
a0001bd4:	b6 0e c0 01 	and  %i3, %g1, %i3
a0001bd8:	b9 2f 20 02 	sll  %i4, 2, %i4
a0001bdc:	d8 03 60 0c 	ld  [ %o5 + 0xc ], %o4
a0001be0:	f4 06 40 1c 	ld  [ %i1 + %i4 ], %i2
a0001be4:	03 00 3f c0 	sethi  %hi(0xff0000), %g1
a0001be8:	b4 0e 80 01 	and  %i2, %g1, %i2
a0001bec:	f8 03 40 00 	ld  [ %o5 ], %i4
a0001bf0:	ba 0b 20 ff 	and  %o4, 0xff, %i5
a0001bf4:	bb 2f 60 02 	sll  %i5, 2, %i5
a0001bf8:	b0 15 e1 28 	or  %l7, 0x128, %i0
a0001bfc:	b8 1f 00 1b 	xor  %i4, %i3, %i4
a0001c00:	03 00 00 3f 	sethi  %hi(0xfc00), %g1
a0001c04:	f6 06 00 1d 	ld  [ %i0 + %i5 ], %i3
a0001c08:	82 10 63 00 	or  %g1, 0x300, %g1
a0001c0c:	b3 33 20 18 	srl  %o4, 0x18, %i1
a0001c10:	17 28 00 25 	sethi  %hi(0xa0009400), %o3
a0001c14:	b6 0e c0 01 	and  %i3, %g1, %i3
a0001c18:	b8 1f 00 1a 	xor  %i4, %i2, %i4
a0001c1c:	b3 2e 60 02 	sll  %i1, 2, %i1
a0001c20:	b0 12 e1 28 	or  %o3, 0x128, %i0
a0001c24:	b8 1f 00 1b 	xor  %i4, %i3, %i4
a0001c28:	fa 06 00 19 	ld  [ %i0 + %i1 ], %i5
a0001c2c:	ba 0f 60 ff 	and  %i5, 0xff, %i5
a0001c30:	b5 2a 60 02 	sll  %o1, 2, %i2
a0001c34:	b6 15 a1 28 	or  %l6, 0x128, %i3
a0001c38:	b8 1f 00 1d 	xor  %i4, %i5, %i4
a0001c3c:	c2 06 c0 1a 	ld  [ %i3 + %i2 ], %g1
a0001c40:	b8 1f 00 01 	xor  %i4, %g1, %i4
a0001c44:	fa 03 60 04 	ld  [ %o5 + 4 ], %i5
a0001c48:	ba 1f 40 1c 	xor  %i5, %i4, %i5
a0001c4c:	c2 03 60 08 	ld  [ %o5 + 8 ], %g1
a0001c50:	82 18 40 1d 	xor  %g1, %i5, %g1
a0001c54:	9e 1b 00 01 	xor  %o4, %g1, %o7
a0001c58:	92 02 60 01 	inc  %o1
a0001c5c:	de 23 60 1c 	st  %o7, [ %o5 + 0x1c ]
a0001c60:	f8 23 60 10 	st  %i4, [ %o5 + 0x10 ]
a0001c64:	fa 23 60 14 	st  %i5, [ %o5 + 0x14 ]
a0001c68:	c2 23 60 18 	st  %g1, [ %o5 + 0x18 ]
a0001c6c:	80 a2 60 0a 	cmp  %o1, 0xa
a0001c70:	12 bf ff d0 	bne  a0001bb0 <private_AES_set_encrypt_key+0x210>
a0001c74:	9a 03 60 10 	add  %o5, 0x10, %o5
a0001c78:	10 80 00 93 	b  a0001ec4 <private_AES_set_encrypt_key+0x524>
a0001c7c:	82 10 20 00 	clr  %g1
a0001c80:	2f 28 00 26 	sethi  %hi(0xa0009800), %l7
a0001c84:	10 80 00 08 	b  a0001ca4 <private_AES_set_encrypt_key+0x304>
a0001c88:	2d 28 00 27 	sethi  %hi(0xa0009c00), %l6
a0001c8c:	c2 03 60 10 	ld  [ %o5 + 0x10 ], %g1
a0001c90:	82 18 40 1d 	xor  %g1, %i5, %g1
a0001c94:	ba 1b 00 01 	xor  %o4, %g1, %i5
a0001c98:	fa 23 60 2c 	st  %i5, [ %o5 + 0x2c ]
a0001c9c:	c2 23 60 28 	st  %g1, [ %o5 + 0x28 ]
a0001ca0:	9a 03 60 18 	add  %o5, 0x18, %o5
a0001ca4:	17 28 00 24 	sethi  %hi(0xa0009000), %o3
a0001ca8:	fa 0b 60 15 	ldub  [ %o5 + 0x15 ], %i5
a0001cac:	82 12 e1 28 	or  %o3, 0x128, %g1
a0001cb0:	bb 2f 60 02 	sll  %i5, 2, %i5
a0001cb4:	f4 00 40 1d 	ld  [ %g1 + %i5 ], %i2
a0001cb8:	03 28 00 23 	sethi  %hi(0xa0008c00), %g1
a0001cbc:	b6 10 61 28 	or  %g1, 0x128, %i3	! a0008d28 <Te3>
a0001cc0:	03 3f c0 00 	sethi  %hi(0xff000000), %g1
a0001cc4:	f8 0b 60 16 	ldub  [ %o5 + 0x16 ], %i4
a0001cc8:	b4 0e 80 01 	and  %i2, %g1, %i2
a0001ccc:	b9 2f 20 02 	sll  %i4, 2, %i4
a0001cd0:	f2 06 c0 1c 	ld  [ %i3 + %i4 ], %i1
a0001cd4:	d8 03 60 14 	ld  [ %o5 + 0x14 ], %o4
a0001cd8:	03 00 3f c0 	sethi  %hi(0xff0000), %g1
a0001cdc:	b2 0e 40 01 	and  %i1, %g1, %i1
a0001ce0:	ba 0b 20 ff 	and  %o4, 0xff, %i5
a0001ce4:	bb 2f 60 02 	sll  %i5, 2, %i5
a0001ce8:	9e 15 e1 28 	or  %l7, 0x128, %o7
a0001cec:	f6 03 40 00 	ld  [ %o5 ], %i3
a0001cf0:	03 00 00 3f 	sethi  %hi(0xfc00), %g1
a0001cf4:	f8 03 c0 1d 	ld  [ %o7 + %i5 ], %i4
a0001cf8:	b6 1e c0 1a 	xor  %i3, %i2, %i3
a0001cfc:	82 10 63 00 	or  %g1, 0x300, %g1
a0001d00:	b1 33 20 18 	srl  %o4, 0x18, %i0
a0001d04:	17 28 00 25 	sethi  %hi(0xa0009400), %o3
a0001d08:	b8 0f 00 01 	and  %i4, %g1, %i4
a0001d0c:	b4 12 e1 28 	or  %o3, 0x128, %i2
a0001d10:	b1 2e 20 02 	sll  %i0, 2, %i0
a0001d14:	b6 1e c0 19 	xor  %i3, %i1, %i3
a0001d18:	fa 06 80 18 	ld  [ %i2 + %i0 ], %i5
a0001d1c:	b6 1e c0 1c 	xor  %i3, %i4, %i3
a0001d20:	ba 0f 60 ff 	and  %i5, 0xff, %i5
a0001d24:	b5 2a 60 02 	sll  %o1, 2, %i2
a0001d28:	b8 15 a1 28 	or  %l6, 0x128, %i4
a0001d2c:	c2 07 00 1a 	ld  [ %i4 + %i2 ], %g1
a0001d30:	b6 1e c0 1d 	xor  %i3, %i5, %i3
a0001d34:	b6 1e c0 01 	xor  %i3, %g1, %i3
a0001d38:	fa 03 60 04 	ld  [ %o5 + 4 ], %i5
a0001d3c:	9e 1f 40 1b 	xor  %i5, %i3, %o7
a0001d40:	f8 03 60 08 	ld  [ %o5 + 8 ], %i4
a0001d44:	b8 1f 00 0f 	xor  %i4, %o7, %i4
a0001d48:	c2 03 60 0c 	ld  [ %o5 + 0xc ], %g1
a0001d4c:	ba 18 40 1c 	xor  %g1, %i4, %i5
a0001d50:	92 02 60 01 	inc  %o1
a0001d54:	f6 23 60 18 	st  %i3, [ %o5 + 0x18 ]
a0001d58:	de 23 60 1c 	st  %o7, [ %o5 + 0x1c ]
a0001d5c:	f8 23 60 20 	st  %i4, [ %o5 + 0x20 ]
a0001d60:	80 a2 60 08 	cmp  %o1, 8
a0001d64:	12 bf ff ca 	bne  a0001c8c <private_AES_set_encrypt_key+0x2ec>
a0001d68:	fa 23 60 24 	st  %i5, [ %o5 + 0x24 ]
a0001d6c:	10 80 00 56 	b  a0001ec4 <private_AES_set_encrypt_key+0x524>
a0001d70:	82 10 20 00 	clr  %g1
a0001d74:	10 80 00 19 	b  a0001dd8 <private_AES_set_encrypt_key+0x438>
a0001d78:	2d 28 00 27 	sethi  %hi(0xa0009c00), %l6
a0001d7c:	c2 05 40 18 	ld  [ %l5 + %i0 ], %g1
a0001d80:	82 08 40 13 	and  %g1, %l3, %g1
a0001d84:	fa 03 60 10 	ld  [ %o5 + 0x10 ], %i5
a0001d88:	f6 05 00 0c 	ld  [ %l4 + %o4 ], %i3
a0001d8c:	ba 1f 40 01 	xor  %i5, %g1, %i5
a0001d90:	b6 0e c0 11 	and  %i3, %l1, %i3
a0001d94:	f8 04 80 0b 	ld  [ %l2 + %o3 ], %i4
a0001d98:	ba 1f 40 1b 	xor  %i5, %i3, %i5
a0001d9c:	b8 0f 00 10 	and  %i4, %l0, %i4
a0001da0:	c2 02 00 0a 	ld  [ %o0 + %o2 ], %g1
a0001da4:	ba 1f 40 1c 	xor  %i5, %i4, %i5
a0001da8:	82 08 60 ff 	and  %g1, 0xff, %g1
a0001dac:	ba 1f 40 01 	xor  %i5, %g1, %i5
a0001db0:	f6 03 60 14 	ld  [ %o5 + 0x14 ], %i3
a0001db4:	b6 1e c0 1d 	xor  %i3, %i5, %i3
a0001db8:	f8 03 60 18 	ld  [ %o5 + 0x18 ], %i4
a0001dbc:	b8 1f 00 1b 	xor  %i4, %i3, %i4
a0001dc0:	82 1b c0 1c 	xor  %o7, %i4, %g1
a0001dc4:	c2 23 60 3c 	st  %g1, [ %o5 + 0x3c ]
a0001dc8:	fa 23 60 30 	st  %i5, [ %o5 + 0x30 ]
a0001dcc:	f6 23 60 34 	st  %i3, [ %o5 + 0x34 ]
a0001dd0:	f8 23 60 38 	st  %i4, [ %o5 + 0x38 ]
a0001dd4:	9a 03 60 20 	add  %o5, 0x20, %o5
a0001dd8:	19 28 00 24 	sethi  %hi(0xa0009000), %o4
a0001ddc:	c2 0b 60 1d 	ldub  [ %o5 + 0x1d ], %g1
a0001de0:	83 28 60 02 	sll  %g1, 2, %g1
a0001de4:	aa 13 21 28 	or  %o4, 0x128, %l5
a0001de8:	f4 05 40 01 	ld  [ %l5 + %g1 ], %i2
a0001dec:	03 28 00 23 	sethi  %hi(0xa0008c00), %g1
a0001df0:	de 03 60 1c 	ld  [ %o5 + 0x1c ], %o7
a0001df4:	a8 10 61 28 	or  %g1, 0x128, %l4
a0001df8:	fa 0b 60 1e 	ldub  [ %o5 + 0x1e ], %i5
a0001dfc:	bb 2f 60 02 	sll  %i5, 2, %i5
a0001e00:	03 00 00 3f 	sethi  %hi(0xfc00), %g1
a0001e04:	27 3f c0 00 	sethi  %hi(0xff000000), %l3
a0001e08:	b2 0b e0 ff 	and  %o7, 0xff, %i1
a0001e0c:	b4 0e 80 13 	and  %i2, %l3, %i2
a0001e10:	f0 05 00 1d 	ld  [ %l4 + %i5 ], %i0
a0001e14:	b3 2e 60 02 	sll  %i1, 2, %i1
a0001e18:	a0 10 63 00 	or  %g1, 0x300, %l0
a0001e1c:	17 28 00 25 	sethi  %hi(0xa0009400), %o3
a0001e20:	f6 03 40 00 	ld  [ %o5 ], %i3
a0001e24:	23 00 3f c0 	sethi  %hi(0xff0000), %l1
a0001e28:	a4 15 e1 28 	or  %l7, 0x128, %l2
a0001e2c:	b9 33 e0 18 	srl  %o7, 0x18, %i4
a0001e30:	b6 1e c0 1a 	xor  %i3, %i2, %i3
a0001e34:	b0 0e 00 11 	and  %i0, %l1, %i0
a0001e38:	c2 04 80 19 	ld  [ %l2 + %i1 ], %g1
a0001e3c:	b9 2f 20 02 	sll  %i4, 2, %i4
a0001e40:	90 12 e1 28 	or  %o3, 0x128, %o0
a0001e44:	b6 1e c0 18 	xor  %i3, %i0, %i3
a0001e48:	82 08 40 10 	and  %g1, %l0, %g1
a0001e4c:	fa 02 00 1c 	ld  [ %o0 + %i4 ], %i5
a0001e50:	b5 2a 60 02 	sll  %o1, 2, %i2
a0001e54:	b6 1e c0 01 	xor  %i3, %g1, %i3
a0001e58:	ba 0f 60 ff 	and  %i5, 0xff, %i5
a0001e5c:	b8 15 a1 28 	or  %l6, 0x128, %i4
a0001e60:	c2 07 00 1a 	ld  [ %i4 + %i2 ], %g1
a0001e64:	b6 1e c0 1d 	xor  %i3, %i5, %i3
a0001e68:	b6 1e c0 01 	xor  %i3, %g1, %i3
a0001e6c:	f2 03 60 04 	ld  [ %o5 + 4 ], %i1
a0001e70:	b2 1e 40 1b 	xor  %i1, %i3, %i1
a0001e74:	f4 03 60 08 	ld  [ %o5 + 8 ], %i2
a0001e78:	b4 1e 80 19 	xor  %i2, %i1, %i2
a0001e7c:	f8 03 60 0c 	ld  [ %o5 + 0xc ], %i4
a0001e80:	b8 1f 00 1a 	xor  %i4, %i2, %i4
a0001e84:	83 37 20 18 	srl  %i4, 0x18, %g1
a0001e88:	bb 37 20 0e 	srl  %i4, 0xe, %i5
a0001e8c:	b1 28 60 02 	sll  %g1, 2, %i0
a0001e90:	98 0f 63 fc 	and  %i5, 0x3fc, %o4
a0001e94:	83 37 20 06 	srl  %i4, 6, %g1
a0001e98:	ba 0f 20 ff 	and  %i4, 0xff, %i5
a0001e9c:	92 02 60 01 	inc  %o1
a0001ea0:	96 08 63 fc 	and  %g1, 0x3fc, %o3
a0001ea4:	95 2f 60 02 	sll  %i5, 2, %o2
a0001ea8:	f6 23 60 20 	st  %i3, [ %o5 + 0x20 ]
a0001eac:	f2 23 60 24 	st  %i1, [ %o5 + 0x24 ]
a0001eb0:	f4 23 60 28 	st  %i2, [ %o5 + 0x28 ]
a0001eb4:	80 a2 60 07 	cmp  %o1, 7
a0001eb8:	12 bf ff b1 	bne  a0001d7c <private_AES_set_encrypt_key+0x3dc>
a0001ebc:	f8 23 60 2c 	st  %i4, [ %o5 + 0x2c ]
a0001ec0:	82 10 20 00 	clr  %g1
a0001ec4:	81 c7 e0 08 	ret 
a0001ec8:	91 e8 00 01 	restore  %g0, %g1, %o0

a0001ecc <AES_encrypt>:
a0001ecc:	9d e3 bf 18 	save  %sp, -232, %sp
a0001ed0:	80 a0 00 18 	cmp  %g0, %i0
a0001ed4:	9a 60 3f ff 	subx  %g0, -1, %o5
a0001ed8:	80 a0 00 19 	cmp  %g0, %i1
a0001edc:	82 60 3f ff 	subx  %g0, -1, %g1
a0001ee0:	f2 27 a0 48 	st  %i1, [ %fp + 0x48 ]
a0001ee4:	80 93 40 01 	orcc  %o5, %g1, %g0
a0001ee8:	12 80 00 05 	bne  a0001efc <AES_encrypt+0x30>
a0001eec:	f4 27 a0 4c 	st  %i2, [ %fp + 0x4c ]
a0001ef0:	80 a6 a0 00 	cmp  %i2, 0
a0001ef4:	32 80 00 09 	bne,a   a0001f18 <AES_encrypt+0x4c>
a0001ef8:	d6 0e 00 00 	ldub  [ %i0 ], %o3
a0001efc:	11 28 00 27 	sethi  %hi(0xa0009c00), %o0
a0001f00:	15 28 00 27 	sethi  %hi(0xa0009c00), %o2
a0001f04:	90 12 21 50 	or  %o0, 0x150, %o0
a0001f08:	94 12 a1 60 	or  %o2, 0x160, %o2
a0001f0c:	40 00 04 09 	call  a0002f30 <__assert>
a0001f10:	92 10 22 be 	mov  0x2be, %o1
a0001f14:	d6 0e 00 00 	ldub  [ %i0 ], %o3
a0001f18:	c2 0e 20 01 	ldub  [ %i0 + 1 ], %g1
a0001f1c:	c2 27 bf f4 	st  %g1, [ %fp + -12 ]
a0001f20:	d0 07 bf f4 	ld  [ %fp + -12 ], %o0
a0001f24:	d8 0e 20 04 	ldub  [ %i0 + 4 ], %o4
a0001f28:	e4 0e 20 05 	ldub  [ %i0 + 5 ], %l2
a0001f2c:	da 0e 20 08 	ldub  [ %i0 + 8 ], %o5
a0001f30:	e2 0e 20 09 	ldub  [ %i0 + 9 ], %l1
a0001f34:	c2 0e 20 0c 	ldub  [ %i0 + 0xc ], %g1
a0001f38:	e0 0e 20 0d 	ldub  [ %i0 + 0xd ], %l0
a0001f3c:	91 2a 20 10 	sll  %o0, 0x10, %o0
a0001f40:	d0 27 bf f0 	st  %o0, [ %fp + -16 ]
a0001f44:	d0 0e 20 0a 	ldub  [ %i0 + 0xa ], %o0
a0001f48:	a3 2c 60 10 	sll  %l1, 0x10, %l1
a0001f4c:	9b 2b 60 18 	sll  %o5, 0x18, %o5
a0001f50:	d4 0e 20 02 	ldub  [ %i0 + 2 ], %o2
a0001f54:	e6 07 bf f0 	ld  [ %fp + -16 ], %l3
a0001f58:	9a 1b 40 11 	xor  %o5, %l1, %o5
a0001f5c:	91 2a 20 08 	sll  %o0, 8, %o0
a0001f60:	97 2a e0 18 	sll  %o3, 0x18, %o3
a0001f64:	de 0e 20 0e 	ldub  [ %i0 + 0xe ], %o7
a0001f68:	a1 2c 20 10 	sll  %l0, 0x10, %l0
a0001f6c:	96 1a c0 13 	xor  %o3, %l3, %o3
a0001f70:	95 2a a0 08 	sll  %o2, 8, %o2
a0001f74:	9a 1b 40 08 	xor  %o5, %o0, %o5
a0001f78:	83 28 60 18 	sll  %g1, 0x18, %g1
a0001f7c:	d0 0e 20 0b 	ldub  [ %i0 + 0xb ], %o0
a0001f80:	82 18 40 10 	xor  %g1, %l0, %g1
a0001f84:	9f 2b e0 08 	sll  %o7, 8, %o7
a0001f88:	96 1a c0 0a 	xor  %o3, %o2, %o3
a0001f8c:	e0 0e 20 0f 	ldub  [ %i0 + 0xf ], %l0
a0001f90:	d4 0e 20 03 	ldub  [ %i0 + 3 ], %o2
a0001f94:	d2 0e 20 06 	ldub  [ %i0 + 6 ], %o1
a0001f98:	9a 1b 40 08 	xor  %o5, %o0, %o5
a0001f9c:	a5 2c a0 10 	sll  %l2, 0x10, %l2
a0001fa0:	82 18 40 0f 	xor  %g1, %o7, %g1
a0001fa4:	99 2b 20 18 	sll  %o4, 0x18, %o4
a0001fa8:	d0 07 a0 4c 	ld  [ %fp + 0x4c ], %o0
a0001fac:	96 1a c0 0a 	xor  %o3, %o2, %o3
a0001fb0:	82 18 40 10 	xor  %g1, %l0, %g1
a0001fb4:	98 1b 00 12 	xor  %o4, %l2, %o4
a0001fb8:	93 2a 60 08 	sll  %o1, 8, %o1
a0001fbc:	d4 02 00 00 	ld  [ %o0 ], %o2
a0001fc0:	e0 07 a0 4c 	ld  [ %fp + 0x4c ], %l0
a0001fc4:	98 1b 00 09 	xor  %o4, %o1, %o4
a0001fc8:	d2 0e 20 07 	ldub  [ %i0 + 7 ], %o1
a0001fcc:	b8 1a c0 0a 	xor  %o3, %o2, %i4
a0001fd0:	de 04 20 0c 	ld  [ %l0 + 0xc ], %o7
a0001fd4:	b6 18 40 0f 	xor  %g1, %o7, %i3
a0001fd8:	98 1b 00 09 	xor  %o4, %o1, %o4
a0001fdc:	97 37 20 0e 	srl  %i4, 0xe, %o3
a0001fe0:	d2 02 20 04 	ld  [ %o0 + 4 ], %o1
a0001fe4:	83 37 20 18 	srl  %i4, 0x18, %g1
a0001fe8:	96 0a e3 fc 	and  %o3, 0x3fc, %o3
a0001fec:	27 28 00 26 	sethi  %hi(0xa0009800), %l3
a0001ff0:	a6 14 e1 28 	or  %l3, 0x128, %l3	! a0009928 <Te0>
a0001ff4:	d6 27 bf ec 	st  %o3, [ %fp + -20 ]
a0001ff8:	d0 02 20 08 	ld  [ %o0 + 8 ], %o0
a0001ffc:	83 28 60 02 	sll  %g1, 2, %g1
a0002000:	ba 1b 00 09 	xor  %o4, %o1, %i5
a0002004:	b0 1b 40 08 	xor  %o5, %o0, %i0
a0002008:	d6 04 c0 01 	ld  [ %l3 + %g1 ], %o3
a000200c:	9b 37 60 0e 	srl  %i5, 0xe, %o5
a0002010:	93 36 20 0e 	srl  %i0, 0xe, %o1
a0002014:	03 28 00 25 	sethi  %hi(0xa0009400), %g1
a0002018:	82 10 61 28 	or  %g1, 0x128, %g1	! a0009528 <Te1>
a000201c:	91 36 20 18 	srl  %i0, 0x18, %o0
a0002020:	9f 36 e0 0e 	srl  %i3, 0xe, %o7
a0002024:	9a 0b 63 fc 	and  %o5, 0x3fc, %o5
a0002028:	92 0a 63 fc 	and  %o1, 0x3fc, %o1
a000202c:	f4 00 40 0d 	ld  [ %g1 + %o5 ], %i2
a0002030:	f2 00 40 09 	ld  [ %g1 + %o1 ], %i1
a0002034:	a1 36 e0 18 	srl  %i3, 0x18, %l0
a0002038:	95 37 60 18 	srl  %i5, 0x18, %o2
a000203c:	91 2a 20 02 	sll  %o0, 2, %o0
a0002040:	9e 0b e3 fc 	and  %o7, 0x3fc, %o7
a0002044:	d2 00 40 0f 	ld  [ %g1 + %o7 ], %o1
a0002048:	da 04 c0 08 	ld  [ %l3 + %o0 ], %o5
a000204c:	95 2a a0 02 	sll  %o2, 2, %o2
a0002050:	a1 2c 20 02 	sll  %l0, 2, %l0
a0002054:	d8 04 c0 0a 	ld  [ %l3 + %o2 ], %o4
a0002058:	c2 04 c0 10 	ld  [ %l3 + %l0 ], %g1
a000205c:	a5 37 60 06 	srl  %i5, 6, %l2
a0002060:	a3 36 20 06 	srl  %i0, 6, %l1
a0002064:	11 28 00 25 	sethi  %hi(0xa0009400), %o0
a0002068:	e4 27 bf e8 	st  %l2, [ %fp + -24 ]
a000206c:	de 07 bf ec 	ld  [ %fp + -20 ], %o7
a0002070:	b0 0e 20 ff 	and  %i0, 0xff, %i0
a0002074:	90 12 21 28 	or  %o0, 0x128, %o0
a0002078:	27 28 00 24 	sethi  %hi(0xa0009000), %l3
a000207c:	d4 02 00 0f 	ld  [ %o0 + %o7 ], %o2
a0002080:	a6 14 e1 28 	or  %l3, 0x128, %l3
a0002084:	f0 27 bf e4 	st  %i0, [ %fp + -28 ]
a0002088:	e0 07 bf e8 	ld  [ %fp + -24 ], %l0
a000208c:	a5 36 e0 06 	srl  %i3, 6, %l2
a0002090:	a9 37 20 06 	srl  %i4, 6, %l4
a0002094:	a2 0c 63 fc 	and  %l1, 0x3fc, %l1
a0002098:	96 1a c0 1a 	xor  %o3, %i2, %o3
a000209c:	f4 04 c0 11 	ld  [ %l3 + %l1 ], %i2
a00020a0:	b0 0c 23 fc 	and  %l0, 0x3fc, %i0
a00020a4:	a4 0c a3 fc 	and  %l2, 0x3fc, %l2
a00020a8:	a8 0d 23 fc 	and  %l4, 0x3fc, %l4
a00020ac:	9a 1b 40 09 	xor  %o5, %o1, %o5
a00020b0:	82 18 40 0a 	xor  %g1, %o2, %g1
a00020b4:	e2 04 c0 12 	ld  [ %l3 + %l2 ], %l1
a00020b8:	d4 04 c0 14 	ld  [ %l3 + %l4 ], %o2
a00020bc:	d2 04 c0 18 	ld  [ %l3 + %i0 ], %o1
a00020c0:	90 0e e0 ff 	and  %i3, 0xff, %o0
a00020c4:	27 28 00 23 	sethi  %hi(0xa0008c00), %l3
a00020c8:	a6 14 e1 28 	or  %l3, 0x128, %l3	! a0008d28 <Te3>
a00020cc:	9e 0f 20 ff 	and  %i4, 0xff, %o7
a00020d0:	a0 0f 60 ff 	and  %i5, 0xff, %l0
a00020d4:	91 2a 20 02 	sll  %o0, 2, %o0
a00020d8:	9a 1b 40 0a 	xor  %o5, %o2, %o5
a00020dc:	d4 04 c0 08 	ld  [ %l3 + %o0 ], %o2
a00020e0:	e4 07 bf e4 	ld  [ %fp + -28 ], %l2
a00020e4:	9f 2b e0 02 	sll  %o7, 2, %o7
a00020e8:	a1 2c 20 02 	sll  %l0, 2, %l0
a00020ec:	82 18 40 09 	xor  %g1, %o1, %g1
a00020f0:	d2 04 c0 0f 	ld  [ %l3 + %o7 ], %o1
a00020f4:	d0 04 c0 10 	ld  [ %l3 + %l0 ], %o0
a00020f8:	b1 2c a0 02 	sll  %l2, 2, %i0
a00020fc:	98 1b 00 19 	xor  %o4, %i1, %o4
a0002100:	de 04 c0 18 	ld  [ %l3 + %i0 ], %o7
a0002104:	9a 1b 40 08 	xor  %o5, %o0, %o5
a0002108:	96 1a c0 1a 	xor  %o3, %i2, %o3
a000210c:	98 1b 00 11 	xor  %o4, %l1, %o4
a0002110:	d0 07 a0 4c 	ld  [ %fp + 0x4c ], %o0
a0002114:	e0 07 a0 4c 	ld  [ %fp + 0x4c ], %l0
a0002118:	96 1a c0 0a 	xor  %o3, %o2, %o3
a000211c:	98 1b 00 09 	xor  %o4, %o1, %o4
a0002120:	82 18 40 0f 	xor  %g1, %o7, %g1
a0002124:	d4 02 20 10 	ld  [ %o0 + 0x10 ], %o2
a0002128:	d2 02 20 14 	ld  [ %o0 + 0x14 ], %o1
a000212c:	de 04 20 1c 	ld  [ %l0 + 0x1c ], %o7
a0002130:	ae 1a c0 0a 	xor  %o3, %o2, %l7
a0002134:	ac 1b 00 09 	xor  %o4, %o1, %l6
a0002138:	b0 18 40 0f 	xor  %g1, %o7, %i0
a000213c:	d0 02 20 18 	ld  [ %o0 + 0x18 ], %o0
a0002140:	a5 35 a0 06 	srl  %l6, 6, %l2
a0002144:	83 35 e0 18 	srl  %l7, 0x18, %g1
a0002148:	27 28 00 26 	sethi  %hi(0xa0009800), %l3
a000214c:	e4 27 bf dc 	st  %l2, [ %fp + -36 ]
a0002150:	b2 1b 40 08 	xor  %o5, %o0, %i1
a0002154:	a6 14 e1 28 	or  %l3, 0x128, %l3
a0002158:	83 28 60 02 	sll  %g1, 2, %g1
a000215c:	d6 04 c0 01 	ld  [ %l3 + %g1 ], %o3
a0002160:	93 36 60 0e 	srl  %i1, 0xe, %o1
a0002164:	91 36 60 18 	srl  %i1, 0x18, %o0
a0002168:	a3 36 60 06 	srl  %i1, 6, %l1
a000216c:	9b 35 a0 0e 	srl  %l6, 0xe, %o5
a0002170:	b2 0e 60 ff 	and  %i1, 0xff, %i1
a0002174:	03 28 00 25 	sethi  %hi(0xa0009400), %g1
a0002178:	f2 27 bf d8 	st  %i1, [ %fp + -40 ]
a000217c:	82 10 61 28 	or  %g1, 0x128, %g1
a0002180:	9f 36 20 0e 	srl  %i0, 0xe, %o7
a0002184:	9a 0b 63 fc 	and  %o5, 0x3fc, %o5
a0002188:	92 0a 63 fc 	and  %o1, 0x3fc, %o1
a000218c:	f2 00 40 0d 	ld  [ %g1 + %o5 ], %i1
a0002190:	f4 00 40 09 	ld  [ %g1 + %o1 ], %i2
a0002194:	99 35 e0 0e 	srl  %l7, 0xe, %o4
a0002198:	91 2a 20 02 	sll  %o0, 2, %o0
a000219c:	9e 0b e3 fc 	and  %o7, 0x3fc, %o7
a00021a0:	d2 00 40 0f 	ld  [ %g1 + %o7 ], %o1
a00021a4:	da 04 c0 08 	ld  [ %l3 + %o0 ], %o5
a00021a8:	95 35 a0 18 	srl  %l6, 0x18, %o2
a00021ac:	98 0b 23 fc 	and  %o4, 0x3fc, %o4
a00021b0:	d8 27 bf e0 	st  %o4, [ %fp + -32 ]
a00021b4:	a1 36 20 18 	srl  %i0, 0x18, %l0
a00021b8:	95 2a a0 02 	sll  %o2, 2, %o2
a00021bc:	9a 1b 40 09 	xor  %o5, %o1, %o5
a00021c0:	11 28 00 25 	sethi  %hi(0xa0009400), %o0
a00021c4:	d8 04 c0 0a 	ld  [ %l3 + %o2 ], %o4
a00021c8:	de 07 bf e0 	ld  [ %fp + -32 ], %o7
a00021cc:	a1 2c 20 02 	sll  %l0, 2, %l0
a00021d0:	90 12 21 28 	or  %o0, 0x128, %o0
a00021d4:	13 28 00 24 	sethi  %hi(0xa0009000), %o1
a00021d8:	d4 02 00 0f 	ld  [ %o0 + %o7 ], %o2
a00021dc:	c2 04 c0 10 	ld  [ %l3 + %l0 ], %g1
a00021e0:	92 12 61 28 	or  %o1, 0x128, %o1
a00021e4:	a5 36 20 06 	srl  %i0, 6, %l2
a00021e8:	a9 35 e0 06 	srl  %l7, 6, %l4
a00021ec:	a2 0c 63 fc 	and  %l1, 0x3fc, %l1
a00021f0:	98 1b 00 1a 	xor  %o4, %i2, %o4
a00021f4:	f4 02 40 11 	ld  [ %o1 + %l1 ], %i2
a00021f8:	e0 07 bf dc 	ld  [ %fp + -36 ], %l0
a00021fc:	a4 0c a3 fc 	and  %l2, 0x3fc, %l2
a0002200:	a8 0d 23 fc 	and  %l4, 0x3fc, %l4
a0002204:	82 18 40 0a 	xor  %g1, %o2, %g1
a0002208:	e2 02 40 12 	ld  [ %o1 + %l2 ], %l1
a000220c:	d4 02 40 14 	ld  [ %o1 + %l4 ], %o2
a0002210:	a6 0c 23 fc 	and  %l0, 0x3fc, %l3
a0002214:	d2 02 40 13 	ld  [ %o1 + %l3 ], %o1
a0002218:	82 18 40 09 	xor  %g1, %o1, %g1
a000221c:	90 0e 20 ff 	and  %i0, 0xff, %o0
a0002220:	13 28 00 23 	sethi  %hi(0xa0008c00), %o1
a0002224:	92 12 61 28 	or  %o1, 0x128, %o1	! a0008d28 <Te3>
a0002228:	9e 0d e0 ff 	and  %l7, 0xff, %o7
a000222c:	91 2a 20 02 	sll  %o0, 2, %o0
a0002230:	9a 1b 40 0a 	xor  %o5, %o2, %o5
a0002234:	d4 02 40 08 	ld  [ %o1 + %o0 ], %o2
a0002238:	e6 07 bf d8 	ld  [ %fp + -40 ], %l3
a000223c:	a4 10 00 09 	mov  %o1, %l2
a0002240:	96 1a c0 19 	xor  %o3, %i1, %o3
a0002244:	9f 2b e0 02 	sll  %o7, 2, %o7
a0002248:	d2 02 40 0f 	ld  [ %o1 + %o7 ], %o1
a000224c:	b7 2c e0 02 	sll  %l3, 2, %i3
a0002250:	96 1a c0 1a 	xor  %o3, %i2, %o3
a0002254:	98 1b 00 11 	xor  %o4, %l1, %o4
a0002258:	e6 07 a0 4c 	ld  [ %fp + 0x4c ], %l3
a000225c:	96 1a c0 0a 	xor  %o3, %o2, %o3
a0002260:	98 1b 00 09 	xor  %o4, %o1, %o4
a0002264:	a0 0d a0 ff 	and  %l6, 0xff, %l0
a0002268:	d4 04 e0 20 	ld  [ %l3 + 0x20 ], %o2
a000226c:	d2 04 e0 24 	ld  [ %l3 + 0x24 ], %o1
a0002270:	a1 2c 20 02 	sll  %l0, 2, %l0
a0002274:	b8 1a c0 0a 	xor  %o3, %o2, %i4
a0002278:	ba 1b 00 09 	xor  %o4, %o1, %i5
a000227c:	d0 04 80 10 	ld  [ %l2 + %l0 ], %o0
a0002280:	de 04 80 1b 	ld  [ %l2 + %i3 ], %o7
a0002284:	9a 1b 40 08 	xor  %o5, %o0, %o5
a0002288:	82 18 40 0f 	xor  %g1, %o7, %g1
a000228c:	99 37 20 0e 	srl  %i4, 0xe, %o4
a0002290:	d0 04 e0 28 	ld  [ %l3 + 0x28 ], %o0
a0002294:	de 04 e0 2c 	ld  [ %l3 + 0x2c ], %o7
a0002298:	98 0b 23 fc 	and  %o4, 0x3fc, %o4
a000229c:	b6 18 40 0f 	xor  %g1, %o7, %i3
a00022a0:	b0 1b 40 08 	xor  %o5, %o0, %i0
a00022a4:	d8 27 bf d4 	st  %o4, [ %fp + -44 ]
a00022a8:	97 37 60 06 	srl  %i5, 6, %o3
a00022ac:	83 37 20 18 	srl  %i4, 0x18, %g1
a00022b0:	93 36 20 0e 	srl  %i0, 0xe, %o1
a00022b4:	19 28 00 26 	sethi  %hi(0xa0009800), %o4
a00022b8:	27 28 00 25 	sethi  %hi(0xa0009400), %l3
a00022bc:	a6 14 e1 28 	or  %l3, 0x128, %l3	! a0009528 <Te1>
a00022c0:	d6 27 bf d0 	st  %o3, [ %fp + -48 ]
a00022c4:	98 13 21 28 	or  %o4, 0x128, %o4
a00022c8:	9f 36 e0 0e 	srl  %i3, 0xe, %o7
a00022cc:	83 28 60 02 	sll  %g1, 2, %g1
a00022d0:	92 0a 63 fc 	and  %o1, 0x3fc, %o1
a00022d4:	f4 04 c0 09 	ld  [ %l3 + %o1 ], %i2
a00022d8:	d6 03 00 01 	ld  [ %o4 + %g1 ], %o3
a00022dc:	9b 37 60 0e 	srl  %i5, 0xe, %o5
a00022e0:	95 37 60 18 	srl  %i5, 0x18, %o2
a00022e4:	9e 0b e3 fc 	and  %o7, 0x3fc, %o7
a00022e8:	d2 04 c0 0f 	ld  [ %l3 + %o7 ], %o1
a00022ec:	82 10 00 0c 	mov  %o4, %g1
a00022f0:	91 36 20 18 	srl  %i0, 0x18, %o0
a00022f4:	9a 0b 63 fc 	and  %o5, 0x3fc, %o5
a00022f8:	95 2a a0 02 	sll  %o2, 2, %o2
a00022fc:	f2 04 c0 0d 	ld  [ %l3 + %o5 ], %i1
a0002300:	de 07 bf d4 	ld  [ %fp + -44 ], %o7
a0002304:	d8 03 00 0a 	ld  [ %o4 + %o2 ], %o4
a0002308:	a1 36 e0 18 	srl  %i3, 0x18, %l0
a000230c:	91 2a 20 02 	sll  %o0, 2, %o0
a0002310:	d4 04 c0 0f 	ld  [ %l3 + %o7 ], %o2
a0002314:	da 00 40 08 	ld  [ %g1 + %o0 ], %o5
a0002318:	a1 2c 20 02 	sll  %l0, 2, %l0
a000231c:	a3 36 20 06 	srl  %i0, 6, %l1
a0002320:	c2 00 40 10 	ld  [ %g1 + %l0 ], %g1
a0002324:	b0 0e 20 ff 	and  %i0, 0xff, %i0
a0002328:	27 28 00 24 	sethi  %hi(0xa0009000), %l3
a000232c:	a6 14 e1 28 	or  %l3, 0x128, %l3	! a0009128 <Te2>
a0002330:	f0 27 bf cc 	st  %i0, [ %fp + -52 ]
a0002334:	e0 07 bf d0 	ld  [ %fp + -48 ], %l0
a0002338:	a5 36 e0 06 	srl  %i3, 6, %l2
a000233c:	a9 37 20 06 	srl  %i4, 6, %l4
a0002340:	a2 0c 63 fc 	and  %l1, 0x3fc, %l1
a0002344:	98 1b 00 1a 	xor  %o4, %i2, %o4
a0002348:	f4 04 c0 11 	ld  [ %l3 + %l1 ], %i2
a000234c:	b0 0c 23 fc 	and  %l0, 0x3fc, %i0
a0002350:	a4 0c a3 fc 	and  %l2, 0x3fc, %l2
a0002354:	a8 0d 23 fc 	and  %l4, 0x3fc, %l4
a0002358:	9a 1b 40 09 	xor  %o5, %o1, %o5
a000235c:	82 18 40 0a 	xor  %g1, %o2, %g1
a0002360:	e2 04 c0 12 	ld  [ %l3 + %l2 ], %l1
a0002364:	d4 04 c0 14 	ld  [ %l3 + %l4 ], %o2
a0002368:	d2 04 c0 18 	ld  [ %l3 + %i0 ], %o1
a000236c:	90 0e e0 ff 	and  %i3, 0xff, %o0
a0002370:	27 28 00 23 	sethi  %hi(0xa0008c00), %l3
a0002374:	a6 14 e1 28 	or  %l3, 0x128, %l3	! a0008d28 <Te3>
a0002378:	9e 0f 20 ff 	and  %i4, 0xff, %o7
a000237c:	a0 0f 60 ff 	and  %i5, 0xff, %l0
a0002380:	91 2a 20 02 	sll  %o0, 2, %o0
a0002384:	9a 1b 40 0a 	xor  %o5, %o2, %o5
a0002388:	d4 04 c0 08 	ld  [ %l3 + %o0 ], %o2
a000238c:	e4 07 bf cc 	ld  [ %fp + -52 ], %l2
a0002390:	9f 2b e0 02 	sll  %o7, 2, %o7
a0002394:	a1 2c 20 02 	sll  %l0, 2, %l0
a0002398:	82 18 40 09 	xor  %g1, %o1, %g1
a000239c:	d2 04 c0 0f 	ld  [ %l3 + %o7 ], %o1
a00023a0:	d0 04 c0 10 	ld  [ %l3 + %l0 ], %o0
a00023a4:	a9 2c a0 02 	sll  %l2, 2, %l4
a00023a8:	96 1a c0 19 	xor  %o3, %i1, %o3
a00023ac:	de 04 c0 14 	ld  [ %l3 + %l4 ], %o7
a00023b0:	9a 1b 40 08 	xor  %o5, %o0, %o5
a00023b4:	96 1a c0 1a 	xor  %o3, %i2, %o3
a00023b8:	98 1b 00 11 	xor  %o4, %l1, %o4
a00023bc:	d0 07 a0 4c 	ld  [ %fp + 0x4c ], %o0
a00023c0:	e0 07 a0 4c 	ld  [ %fp + 0x4c ], %l0
a00023c4:	96 1a c0 0a 	xor  %o3, %o2, %o3
a00023c8:	98 1b 00 09 	xor  %o4, %o1, %o4
a00023cc:	82 18 40 0f 	xor  %g1, %o7, %g1
a00023d0:	d4 02 20 30 	ld  [ %o0 + 0x30 ], %o2
a00023d4:	d2 02 20 34 	ld  [ %o0 + 0x34 ], %o1
a00023d8:	de 04 20 3c 	ld  [ %l0 + 0x3c ], %o7
a00023dc:	ae 1a c0 0a 	xor  %o3, %o2, %l7
a00023e0:	ac 1b 00 09 	xor  %o4, %o1, %l6
a00023e4:	b0 18 40 0f 	xor  %g1, %o7, %i0
a00023e8:	d0 02 20 38 	ld  [ %o0 + 0x38 ], %o0
a00023ec:	a5 35 a0 06 	srl  %l6, 6, %l2
a00023f0:	83 35 e0 18 	srl  %l7, 0x18, %g1
a00023f4:	27 28 00 26 	sethi  %hi(0xa0009800), %l3
a00023f8:	e4 27 bf c4 	st  %l2, [ %fp + -60 ]
a00023fc:	a6 14 e1 28 	or  %l3, 0x128, %l3
a0002400:	83 28 60 02 	sll  %g1, 2, %g1
a0002404:	b2 1b 40 08 	xor  %o5, %o0, %i1
a0002408:	d6 04 c0 01 	ld  [ %l3 + %g1 ], %o3
a000240c:	93 36 60 0e 	srl  %i1, 0xe, %o1
a0002410:	91 36 60 18 	srl  %i1, 0x18, %o0
a0002414:	a3 36 60 06 	srl  %i1, 6, %l1
a0002418:	03 28 00 25 	sethi  %hi(0xa0009400), %g1
a000241c:	82 10 61 28 	or  %g1, 0x128, %g1	! a0009528 <Te1>
a0002420:	99 35 e0 0e 	srl  %l7, 0xe, %o4
a0002424:	9b 35 a0 0e 	srl  %l6, 0xe, %o5
a0002428:	9f 36 20 0e 	srl  %i0, 0xe, %o7
a000242c:	92 0a 63 fc 	and  %o1, 0x3fc, %o1
a0002430:	b2 0e 60 ff 	and  %i1, 0xff, %i1
a0002434:	f4 00 40 09 	ld  [ %g1 + %o1 ], %i2
a0002438:	f2 27 bf bc 	st  %i1, [ %fp + -68 ]
a000243c:	a1 36 20 18 	srl  %i0, 0x18, %l0
a0002440:	95 35 a0 18 	srl  %l6, 0x18, %o2
a0002444:	9a 0b 63 fc 	and  %o5, 0x3fc, %o5
a0002448:	9e 0b e3 fc 	and  %o7, 0x3fc, %o7
a000244c:	98 0b 23 fc 	and  %o4, 0x3fc, %o4
a0002450:	f2 00 40 0d 	ld  [ %g1 + %o5 ], %i1
a0002454:	d2 00 40 0f 	ld  [ %g1 + %o7 ], %o1
a0002458:	d8 27 bf c8 	st  %o4, [ %fp + -56 ]
a000245c:	95 2a a0 02 	sll  %o2, 2, %o2
a0002460:	91 2a 20 02 	sll  %o0, 2, %o0
a0002464:	a1 2c 20 02 	sll  %l0, 2, %l0
a0002468:	d8 04 c0 0a 	ld  [ %l3 + %o2 ], %o4
a000246c:	da 04 c0 08 	ld  [ %l3 + %o0 ], %o5
a0002470:	c2 04 c0 10 	ld  [ %l3 + %l0 ], %g1
a0002474:	27 28 00 24 	sethi  %hi(0xa0009000), %l3
a0002478:	a6 14 e1 28 	or  %l3, 0x128, %l3	! a0009128 <Te2>
a000247c:	e0 07 bf c4 	ld  [ %fp + -60 ], %l0
a0002480:	a5 36 20 06 	srl  %i0, 6, %l2
a0002484:	a2 0c 63 fc 	and  %l1, 0x3fc, %l1
a0002488:	98 1b 00 1a 	xor  %o4, %i2, %o4
a000248c:	f4 04 c0 11 	ld  [ %l3 + %l1 ], %i2
a0002490:	a4 0c a3 fc 	and  %l2, 0x3fc, %l2
a0002494:	a0 0c 23 fc 	and  %l0, 0x3fc, %l0
a0002498:	11 28 00 25 	sethi  %hi(0xa0009400), %o0
a000249c:	e2 04 c0 12 	ld  [ %l3 + %l2 ], %l1
a00024a0:	de 07 bf c8 	ld  [ %fp + -56 ], %o7
a00024a4:	e0 27 bf c0 	st  %l0, [ %fp + -64 ]
a00024a8:	90 12 21 28 	or  %o0, 0x128, %o0
a00024ac:	d4 02 00 0f 	ld  [ %o0 + %o7 ], %o2
a00024b0:	e4 07 bf c0 	ld  [ %fp + -64 ], %l2
a00024b4:	a9 35 e0 06 	srl  %l7, 6, %l4
a00024b8:	9a 1b 40 09 	xor  %o5, %o1, %o5
a00024bc:	d2 04 c0 12 	ld  [ %l3 + %l2 ], %o1
a00024c0:	a8 0d 23 fc 	and  %l4, 0x3fc, %l4
a00024c4:	82 18 40 0a 	xor  %g1, %o2, %g1
a00024c8:	d4 04 c0 14 	ld  [ %l3 + %l4 ], %o2
a00024cc:	82 18 40 09 	xor  %g1, %o1, %g1
a00024d0:	e6 07 bf bc 	ld  [ %fp + -68 ], %l3
a00024d4:	90 0e 20 ff 	and  %i0, 0xff, %o0
a00024d8:	13 28 00 23 	sethi  %hi(0xa0008c00), %o1
a00024dc:	a5 2c e0 02 	sll  %l3, 2, %l2
a00024e0:	92 12 61 28 	or  %o1, 0x128, %o1
a00024e4:	9e 0d e0 ff 	and  %l7, 0xff, %o7
a00024e8:	a0 0d a0 ff 	and  %l6, 0xff, %l0
a00024ec:	91 2a 20 02 	sll  %o0, 2, %o0
a00024f0:	9a 1b 40 0a 	xor  %o5, %o2, %o5
a00024f4:	d4 02 40 08 	ld  [ %o1 + %o0 ], %o2
a00024f8:	a6 10 00 09 	mov  %o1, %l3
a00024fc:	9f 2b e0 02 	sll  %o7, 2, %o7
a0002500:	a1 2c 20 02 	sll  %l0, 2, %l0
a0002504:	d0 04 c0 10 	ld  [ %l3 + %l0 ], %o0
a0002508:	d2 02 40 0f 	ld  [ %o1 + %o7 ], %o1
a000250c:	96 1a c0 19 	xor  %o3, %i1, %o3
a0002510:	de 04 c0 12 	ld  [ %l3 + %l2 ], %o7
a0002514:	9a 1b 40 08 	xor  %o5, %o0, %o5
a0002518:	96 1a c0 1a 	xor  %o3, %i2, %o3
a000251c:	d0 07 a0 4c 	ld  [ %fp + 0x4c ], %o0
a0002520:	e0 07 a0 4c 	ld  [ %fp + 0x4c ], %l0
a0002524:	96 1a c0 0a 	xor  %o3, %o2, %o3
a0002528:	82 18 40 0f 	xor  %g1, %o7, %g1
a000252c:	d4 02 20 40 	ld  [ %o0 + 0x40 ], %o2
a0002530:	de 04 20 4c 	ld  [ %l0 + 0x4c ], %o7
a0002534:	98 1b 00 11 	xor  %o4, %l1, %o4
a0002538:	b8 1a c0 0a 	xor  %o3, %o2, %i4
a000253c:	b6 18 40 0f 	xor  %g1, %o7, %i3
a0002540:	98 1b 00 09 	xor  %o4, %o1, %o4
a0002544:	d2 02 20 44 	ld  [ %o0 + 0x44 ], %o1
a0002548:	83 37 20 18 	srl  %i4, 0x18, %g1
a000254c:	27 28 00 26 	sethi  %hi(0xa0009800), %l3
a0002550:	a6 14 e1 28 	or  %l3, 0x128, %l3	! a0009928 <Te0>
a0002554:	d0 02 20 48 	ld  [ %o0 + 0x48 ], %o0
a0002558:	83 28 60 02 	sll  %g1, 2, %g1
a000255c:	ba 1b 00 09 	xor  %o4, %o1, %i5
a0002560:	b0 1b 40 08 	xor  %o5, %o0, %i0
a0002564:	d6 04 c0 01 	ld  [ %l3 + %g1 ], %o3
a0002568:	9b 37 60 0e 	srl  %i5, 0xe, %o5
a000256c:	93 36 20 0e 	srl  %i0, 0xe, %o1
a0002570:	03 28 00 25 	sethi  %hi(0xa0009400), %g1
a0002574:	82 10 61 28 	or  %g1, 0x128, %g1	! a0009528 <Te1>
a0002578:	99 37 20 0e 	srl  %i4, 0xe, %o4
a000257c:	91 36 20 18 	srl  %i0, 0x18, %o0
a0002580:	9f 36 e0 0e 	srl  %i3, 0xe, %o7
a0002584:	9a 0b 63 fc 	and  %o5, 0x3fc, %o5
a0002588:	92 0a 63 fc 	and  %o1, 0x3fc, %o1
a000258c:	f2 00 40 0d 	ld  [ %g1 + %o5 ], %i1
a0002590:	f4 00 40 09 	ld  [ %g1 + %o1 ], %i2
a0002594:	a1 36 e0 18 	srl  %i3, 0x18, %l0
a0002598:	95 37 60 18 	srl  %i5, 0x18, %o2
a000259c:	91 2a 20 02 	sll  %o0, 2, %o0
a00025a0:	9e 0b e3 fc 	and  %o7, 0x3fc, %o7
a00025a4:	98 0b 23 fc 	and  %o4, 0x3fc, %o4
a00025a8:	d2 00 40 0f 	ld  [ %g1 + %o7 ], %o1
a00025ac:	d8 27 bf b8 	st  %o4, [ %fp + -72 ]
a00025b0:	da 04 c0 08 	ld  [ %l3 + %o0 ], %o5
a00025b4:	a5 37 60 06 	srl  %i5, 6, %l2
a00025b8:	95 2a a0 02 	sll  %o2, 2, %o2
a00025bc:	a1 2c 20 02 	sll  %l0, 2, %l0
a00025c0:	a3 36 20 06 	srl  %i0, 6, %l1
a00025c4:	e4 27 bf b4 	st  %l2, [ %fp + -76 ]
a00025c8:	d8 04 c0 0a 	ld  [ %l3 + %o2 ], %o4
a00025cc:	c2 04 c0 10 	ld  [ %l3 + %l0 ], %g1
a00025d0:	b0 0e 20 ff 	and  %i0, 0xff, %i0
a00025d4:	11 28 00 25 	sethi  %hi(0xa0009400), %o0
a00025d8:	f0 27 bf b0 	st  %i0, [ %fp + -80 ]
a00025dc:	de 07 bf b8 	ld  [ %fp + -72 ], %o7
a00025e0:	e0 07 bf b4 	ld  [ %fp + -76 ], %l0
a00025e4:	90 12 21 28 	or  %o0, 0x128, %o0
a00025e8:	27 28 00 24 	sethi  %hi(0xa0009000), %l3
a00025ec:	d4 02 00 0f 	ld  [ %o0 + %o7 ], %o2
a00025f0:	a6 14 e1 28 	or  %l3, 0x128, %l3
a00025f4:	b0 0c 23 fc 	and  %l0, 0x3fc, %i0
a00025f8:	a5 36 e0 06 	srl  %i3, 6, %l2
a00025fc:	a9 37 20 06 	srl  %i4, 6, %l4
a0002600:	a2 0c 63 fc 	and  %l1, 0x3fc, %l1
a0002604:	98 1b 00 1a 	xor  %o4, %i2, %o4
a0002608:	9a 1b 40 09 	xor  %o5, %o1, %o5
a000260c:	f4 04 c0 11 	ld  [ %l3 + %l1 ], %i2
a0002610:	d2 04 c0 18 	ld  [ %l3 + %i0 ], %o1
a0002614:	a4 0c a3 fc 	and  %l2, 0x3fc, %l2
a0002618:	a8 0d 23 fc 	and  %l4, 0x3fc, %l4
a000261c:	82 18 40 0a 	xor  %g1, %o2, %g1
a0002620:	e2 04 c0 12 	ld  [ %l3 + %l2 ], %l1
a0002624:	d4 04 c0 14 	ld  [ %l3 + %l4 ], %o2
a0002628:	82 18 40 09 	xor  %g1, %o1, %g1
a000262c:	e6 07 bf b0 	ld  [ %fp + -80 ], %l3
a0002630:	90 0e e0 ff 	and  %i3, 0xff, %o0
a0002634:	13 28 00 23 	sethi  %hi(0xa0008c00), %o1
a0002638:	a5 2c e0 02 	sll  %l3, 2, %l2
a000263c:	92 12 61 28 	or  %o1, 0x128, %o1
a0002640:	9e 0f 20 ff 	and  %i4, 0xff, %o7
a0002644:	a0 0f 60 ff 	and  %i5, 0xff, %l0
a0002648:	91 2a 20 02 	sll  %o0, 2, %o0
a000264c:	9a 1b 40 0a 	xor  %o5, %o2, %o5
a0002650:	d4 02 40 08 	ld  [ %o1 + %o0 ], %o2
a0002654:	a6 10 00 09 	mov  %o1, %l3
a0002658:	9f 2b e0 02 	sll  %o7, 2, %o7
a000265c:	a1 2c 20 02 	sll  %l0, 2, %l0
a0002660:	d0 04 c0 10 	ld  [ %l3 + %l0 ], %o0
a0002664:	d2 02 40 0f 	ld  [ %o1 + %o7 ], %o1
a0002668:	96 1a c0 19 	xor  %o3, %i1, %o3
a000266c:	de 04 c0 12 	ld  [ %l3 + %l2 ], %o7
a0002670:	9a 1b 40 08 	xor  %o5, %o0, %o5
a0002674:	96 1a c0 1a 	xor  %o3, %i2, %o3
a0002678:	98 1b 00 11 	xor  %o4, %l1, %o4
a000267c:	d0 07 a0 4c 	ld  [ %fp + 0x4c ], %o0
a0002680:	e0 07 a0 4c 	ld  [ %fp + 0x4c ], %l0
a0002684:	96 1a c0 0a 	xor  %o3, %o2, %o3
a0002688:	98 1b 00 09 	xor  %o4, %o1, %o4
a000268c:	82 18 40 0f 	xor  %g1, %o7, %g1
a0002690:	d4 02 20 50 	ld  [ %o0 + 0x50 ], %o2
a0002694:	d2 02 20 54 	ld  [ %o0 + 0x54 ], %o1
a0002698:	de 04 20 5c 	ld  [ %l0 + 0x5c ], %o7
a000269c:	ae 1a c0 0a 	xor  %o3, %o2, %l7
a00026a0:	ac 1b 00 09 	xor  %o4, %o1, %l6
a00026a4:	b0 18 40 0f 	xor  %g1, %o7, %i0
a00026a8:	d0 02 20 58 	ld  [ %o0 + 0x58 ], %o0
a00026ac:	a5 35 a0 06 	srl  %l6, 6, %l2
a00026b0:	83 35 e0 18 	srl  %l7, 0x18, %g1
a00026b4:	27 28 00 26 	sethi  %hi(0xa0009800), %l3
a00026b8:	e4 27 bf a8 	st  %l2, [ %fp + -88 ]
a00026bc:	a6 14 e1 28 	or  %l3, 0x128, %l3
a00026c0:	83 28 60 02 	sll  %g1, 2, %g1
a00026c4:	b2 1b 40 08 	xor  %o5, %o0, %i1
a00026c8:	d6 04 c0 01 	ld  [ %l3 + %g1 ], %o3
a00026cc:	93 36 60 0e 	srl  %i1, 0xe, %o1
a00026d0:	91 36 60 18 	srl  %i1, 0x18, %o0
a00026d4:	a3 36 60 06 	srl  %i1, 6, %l1
a00026d8:	03 28 00 25 	sethi  %hi(0xa0009400), %g1
a00026dc:	82 10 61 28 	or  %g1, 0x128, %g1	! a0009528 <Te1>
a00026e0:	99 35 e0 0e 	srl  %l7, 0xe, %o4
a00026e4:	9b 35 a0 0e 	srl  %l6, 0xe, %o5
a00026e8:	9f 36 20 0e 	srl  %i0, 0xe, %o7
a00026ec:	92 0a 63 fc 	and  %o1, 0x3fc, %o1
a00026f0:	b2 0e 60 ff 	and  %i1, 0xff, %i1
a00026f4:	f4 00 40 09 	ld  [ %g1 + %o1 ], %i2
a00026f8:	f2 27 bf a0 	st  %i1, [ %fp + -96 ]
a00026fc:	a1 36 20 18 	srl  %i0, 0x18, %l0
a0002700:	95 35 a0 18 	srl  %l6, 0x18, %o2
a0002704:	9a 0b 63 fc 	and  %o5, 0x3fc, %o5
a0002708:	9e 0b e3 fc 	and  %o7, 0x3fc, %o7
a000270c:	98 0b 23 fc 	and  %o4, 0x3fc, %o4
a0002710:	f2 00 40 0d 	ld  [ %g1 + %o5 ], %i1
a0002714:	d2 00 40 0f 	ld  [ %g1 + %o7 ], %o1
a0002718:	d8 27 bf ac 	st  %o4, [ %fp + -84 ]
a000271c:	95 2a a0 02 	sll  %o2, 2, %o2
a0002720:	91 2a 20 02 	sll  %o0, 2, %o0
a0002724:	a1 2c 20 02 	sll  %l0, 2, %l0
a0002728:	d8 04 c0 0a 	ld  [ %l3 + %o2 ], %o4
a000272c:	da 04 c0 08 	ld  [ %l3 + %o0 ], %o5
a0002730:	c2 04 c0 10 	ld  [ %l3 + %l0 ], %g1
a0002734:	27 28 00 24 	sethi  %hi(0xa0009000), %l3
a0002738:	a6 14 e1 28 	or  %l3, 0x128, %l3	! a0009128 <Te2>
a000273c:	e0 07 bf a8 	ld  [ %fp + -88 ], %l0
a0002740:	a5 36 20 06 	srl  %i0, 6, %l2
a0002744:	a2 0c 63 fc 	and  %l1, 0x3fc, %l1
a0002748:	98 1b 00 1a 	xor  %o4, %i2, %o4
a000274c:	f4 04 c0 11 	ld  [ %l3 + %l1 ], %i2
a0002750:	a4 0c a3 fc 	and  %l2, 0x3fc, %l2
a0002754:	a0 0c 23 fc 	and  %l0, 0x3fc, %l0
a0002758:	11 28 00 25 	sethi  %hi(0xa0009400), %o0
a000275c:	e2 04 c0 12 	ld  [ %l3 + %l2 ], %l1
a0002760:	de 07 bf ac 	ld  [ %fp + -84 ], %o7
a0002764:	e0 27 bf a4 	st  %l0, [ %fp + -92 ]
a0002768:	90 12 21 28 	or  %o0, 0x128, %o0
a000276c:	d4 02 00 0f 	ld  [ %o0 + %o7 ], %o2
a0002770:	e4 07 bf a4 	ld  [ %fp + -92 ], %l2
a0002774:	a9 35 e0 06 	srl  %l7, 6, %l4
a0002778:	9a 1b 40 09 	xor  %o5, %o1, %o5
a000277c:	d2 04 c0 12 	ld  [ %l3 + %l2 ], %o1
a0002780:	a8 0d 23 fc 	and  %l4, 0x3fc, %l4
a0002784:	82 18 40 0a 	xor  %g1, %o2, %g1
a0002788:	d4 04 c0 14 	ld  [ %l3 + %l4 ], %o2
a000278c:	82 18 40 09 	xor  %g1, %o1, %g1
a0002790:	e6 07 bf a0 	ld  [ %fp + -96 ], %l3
a0002794:	90 0e 20 ff 	and  %i0, 0xff, %o0
a0002798:	13 28 00 23 	sethi  %hi(0xa0008c00), %o1
a000279c:	a5 2c e0 02 	sll  %l3, 2, %l2
a00027a0:	92 12 61 28 	or  %o1, 0x128, %o1
a00027a4:	9e 0d e0 ff 	and  %l7, 0xff, %o7
a00027a8:	a0 0d a0 ff 	and  %l6, 0xff, %l0
a00027ac:	91 2a 20 02 	sll  %o0, 2, %o0
a00027b0:	9a 1b 40 0a 	xor  %o5, %o2, %o5
a00027b4:	d4 02 40 08 	ld  [ %o1 + %o0 ], %o2
a00027b8:	a6 10 00 09 	mov  %o1, %l3
a00027bc:	9f 2b e0 02 	sll  %o7, 2, %o7
a00027c0:	a1 2c 20 02 	sll  %l0, 2, %l0
a00027c4:	d0 04 c0 10 	ld  [ %l3 + %l0 ], %o0
a00027c8:	d2 02 40 0f 	ld  [ %o1 + %o7 ], %o1
a00027cc:	96 1a c0 19 	xor  %o3, %i1, %o3
a00027d0:	de 04 c0 12 	ld  [ %l3 + %l2 ], %o7
a00027d4:	9a 1b 40 08 	xor  %o5, %o0, %o5
a00027d8:	96 1a c0 1a 	xor  %o3, %i2, %o3
a00027dc:	d0 07 a0 4c 	ld  [ %fp + 0x4c ], %o0
a00027e0:	e0 07 a0 4c 	ld  [ %fp + 0x4c ], %l0
a00027e4:	96 1a c0 0a 	xor  %o3, %o2, %o3
a00027e8:	82 18 40 0f 	xor  %g1, %o7, %g1
a00027ec:	d4 02 20 60 	ld  [ %o0 + 0x60 ], %o2
a00027f0:	de 04 20 6c 	ld  [ %l0 + 0x6c ], %o7
a00027f4:	98 1b 00 11 	xor  %o4, %l1, %o4
a00027f8:	b8 1a c0 0a 	xor  %o3, %o2, %i4
a00027fc:	b6 18 40 0f 	xor  %g1, %o7, %i3
a0002800:	98 1b 00 09 	xor  %o4, %o1, %o4
a0002804:	d2 02 20 64 	ld  [ %o0 + 0x64 ], %o1
a0002808:	83 37 20 18 	srl  %i4, 0x18, %g1
a000280c:	27 28 00 26 	sethi  %hi(0xa0009800), %l3
a0002810:	a6 14 e1 28 	or  %l3, 0x128, %l3	! a0009928 <Te0>
a0002814:	d0 02 20 68 	ld  [ %o0 + 0x68 ], %o0
a0002818:	83 28 60 02 	sll  %g1, 2, %g1
a000281c:	ba 1b 00 09 	xor  %o4, %o1, %i5
a0002820:	b0 1b 40 08 	xor  %o5, %o0, %i0
a0002824:	d6 04 c0 01 	ld  [ %l3 + %g1 ], %o3
a0002828:	9b 37 60 0e 	srl  %i5, 0xe, %o5
a000282c:	93 36 20 0e 	srl  %i0, 0xe, %o1
a0002830:	03 28 00 25 	sethi  %hi(0xa0009400), %g1
a0002834:	82 10 61 28 	or  %g1, 0x128, %g1	! a0009528 <Te1>
a0002838:	99 37 20 0e 	srl  %i4, 0xe, %o4
a000283c:	91 36 20 18 	srl  %i0, 0x18, %o0
a0002840:	9f 36 e0 0e 	srl  %i3, 0xe, %o7
a0002844:	9a 0b 63 fc 	and  %o5, 0x3fc, %o5
a0002848:	92 0a 63 fc 	and  %o1, 0x3fc, %o1
a000284c:	f2 00 40 0d 	ld  [ %g1 + %o5 ], %i1
a0002850:	f4 00 40 09 	ld  [ %g1 + %o1 ], %i2
a0002854:	a1 36 e0 18 	srl  %i3, 0x18, %l0
a0002858:	95 37 60 18 	srl  %i5, 0x18, %o2
a000285c:	91 2a 20 02 	sll  %o0, 2, %o0
a0002860:	9e 0b e3 fc 	and  %o7, 0x3fc, %o7
a0002864:	98 0b 23 fc 	and  %o4, 0x3fc, %o4
a0002868:	d2 00 40 0f 	ld  [ %g1 + %o7 ], %o1
a000286c:	d8 27 bf 9c 	st  %o4, [ %fp + -100 ]
a0002870:	da 04 c0 08 	ld  [ %l3 + %o0 ], %o5
a0002874:	a5 37 60 06 	srl  %i5, 6, %l2
a0002878:	95 2a a0 02 	sll  %o2, 2, %o2
a000287c:	a1 2c 20 02 	sll  %l0, 2, %l0
a0002880:	a3 36 20 06 	srl  %i0, 6, %l1
a0002884:	e4 27 bf 98 	st  %l2, [ %fp + -104 ]
a0002888:	d8 04 c0 0a 	ld  [ %l3 + %o2 ], %o4
a000288c:	c2 04 c0 10 	ld  [ %l3 + %l0 ], %g1
a0002890:	b0 0e 20 ff 	and  %i0, 0xff, %i0
a0002894:	11 28 00 25 	sethi  %hi(0xa0009400), %o0
a0002898:	f0 27 bf 94 	st  %i0, [ %fp + -108 ]
a000289c:	de 07 bf 9c 	ld  [ %fp + -100 ], %o7
a00028a0:	e0 07 bf 98 	ld  [ %fp + -104 ], %l0
a00028a4:	90 12 21 28 	or  %o0, 0x128, %o0
a00028a8:	27 28 00 24 	sethi  %hi(0xa0009000), %l3
a00028ac:	d4 02 00 0f 	ld  [ %o0 + %o7 ], %o2
a00028b0:	a6 14 e1 28 	or  %l3, 0x128, %l3
a00028b4:	b0 0c 23 fc 	and  %l0, 0x3fc, %i0
a00028b8:	a5 36 e0 06 	srl  %i3, 6, %l2
a00028bc:	a9 37 20 06 	srl  %i4, 6, %l4
a00028c0:	a2 0c 63 fc 	and  %l1, 0x3fc, %l1
a00028c4:	98 1b 00 1a 	xor  %o4, %i2, %o4
a00028c8:	9a 1b 40 09 	xor  %o5, %o1, %o5
a00028cc:	f4 04 c0 11 	ld  [ %l3 + %l1 ], %i2
a00028d0:	d2 04 c0 18 	ld  [ %l3 + %i0 ], %o1
a00028d4:	a4 0c a3 fc 	and  %l2, 0x3fc, %l2
a00028d8:	a8 0d 23 fc 	and  %l4, 0x3fc, %l4
a00028dc:	82 18 40 0a 	xor  %g1, %o2, %g1
a00028e0:	e2 04 c0 12 	ld  [ %l3 + %l2 ], %l1
a00028e4:	d4 04 c0 14 	ld  [ %l3 + %l4 ], %o2
a00028e8:	82 18 40 09 	xor  %g1, %o1, %g1
a00028ec:	e6 07 bf 94 	ld  [ %fp + -108 ], %l3
a00028f0:	90 0e e0 ff 	and  %i3, 0xff, %o0
a00028f4:	13 28 00 23 	sethi  %hi(0xa0008c00), %o1
a00028f8:	a5 2c e0 02 	sll  %l3, 2, %l2
a00028fc:	92 12 61 28 	or  %o1, 0x128, %o1
a0002900:	9e 0f 20 ff 	and  %i4, 0xff, %o7
a0002904:	a0 0f 60 ff 	and  %i5, 0xff, %l0
a0002908:	91 2a 20 02 	sll  %o0, 2, %o0
a000290c:	9a 1b 40 0a 	xor  %o5, %o2, %o5
a0002910:	d4 02 40 08 	ld  [ %o1 + %o0 ], %o2
a0002914:	a6 10 00 09 	mov  %o1, %l3
a0002918:	9f 2b e0 02 	sll  %o7, 2, %o7
a000291c:	a1 2c 20 02 	sll  %l0, 2, %l0
a0002920:	d0 04 c0 10 	ld  [ %l3 + %l0 ], %o0
a0002924:	d2 02 40 0f 	ld  [ %o1 + %o7 ], %o1
a0002928:	96 1a c0 19 	xor  %o3, %i1, %o3
a000292c:	de 04 c0 12 	ld  [ %l3 + %l2 ], %o7
a0002930:	9a 1b 40 08 	xor  %o5, %o0, %o5
a0002934:	96 1a c0 1a 	xor  %o3, %i2, %o3
a0002938:	98 1b 00 11 	xor  %o4, %l1, %o4
a000293c:	d0 07 a0 4c 	ld  [ %fp + 0x4c ], %o0
a0002940:	e0 07 a0 4c 	ld  [ %fp + 0x4c ], %l0
a0002944:	96 1a c0 0a 	xor  %o3, %o2, %o3
a0002948:	98 1b 00 09 	xor  %o4, %o1, %o4
a000294c:	82 18 40 0f 	xor  %g1, %o7, %g1
a0002950:	d4 02 20 70 	ld  [ %o0 + 0x70 ], %o2
a0002954:	d2 02 20 74 	ld  [ %o0 + 0x74 ], %o1
a0002958:	de 04 20 7c 	ld  [ %l0 + 0x7c ], %o7
a000295c:	ae 1a c0 0a 	xor  %o3, %o2, %l7
a0002960:	ac 1b 00 09 	xor  %o4, %o1, %l6
a0002964:	b0 18 40 0f 	xor  %g1, %o7, %i0
a0002968:	d0 02 20 78 	ld  [ %o0 + 0x78 ], %o0
a000296c:	a5 35 a0 06 	srl  %l6, 6, %l2
a0002970:	83 35 e0 18 	srl  %l7, 0x18, %g1
a0002974:	27 28 00 26 	sethi  %hi(0xa0009800), %l3
a0002978:	e4 27 bf 8c 	st  %l2, [ %fp + -116 ]
a000297c:	a6 14 e1 28 	or  %l3, 0x128, %l3
a0002980:	83 28 60 02 	sll  %g1, 2, %g1
a0002984:	b2 1b 40 08 	xor  %o5, %o0, %i1
a0002988:	d6 04 c0 01 	ld  [ %l3 + %g1 ], %o3
a000298c:	93 36 60 0e 	srl  %i1, 0xe, %o1
a0002990:	91 36 60 18 	srl  %i1, 0x18, %o0
a0002994:	a3 36 60 06 	srl  %i1, 6, %l1
a0002998:	03 28 00 25 	sethi  %hi(0xa0009400), %g1
a000299c:	82 10 61 28 	or  %g1, 0x128, %g1	! a0009528 <Te1>
a00029a0:	99 35 e0 0e 	srl  %l7, 0xe, %o4
a00029a4:	9b 35 a0 0e 	srl  %l6, 0xe, %o5
a00029a8:	9f 36 20 0e 	srl  %i0, 0xe, %o7
a00029ac:	92 0a 63 fc 	and  %o1, 0x3fc, %o1
a00029b0:	b2 0e 60 ff 	and  %i1, 0xff, %i1
a00029b4:	f4 00 40 09 	ld  [ %g1 + %o1 ], %i2
a00029b8:	f2 27 bf 84 	st  %i1, [ %fp + -124 ]
a00029bc:	a1 36 20 18 	srl  %i0, 0x18, %l0
a00029c0:	95 35 a0 18 	srl  %l6, 0x18, %o2
a00029c4:	9a 0b 63 fc 	and  %o5, 0x3fc, %o5
a00029c8:	9e 0b e3 fc 	and  %o7, 0x3fc, %o7
a00029cc:	98 0b 23 fc 	and  %o4, 0x3fc, %o4
a00029d0:	f2 00 40 0d 	ld  [ %g1 + %o5 ], %i1
a00029d4:	d2 00 40 0f 	ld  [ %g1 + %o7 ], %o1
a00029d8:	d8 27 bf 90 	st  %o4, [ %fp + -112 ]
a00029dc:	95 2a a0 02 	sll  %o2, 2, %o2
a00029e0:	91 2a 20 02 	sll  %o0, 2, %o0
a00029e4:	a1 2c 20 02 	sll  %l0, 2, %l0
a00029e8:	d8 04 c0 0a 	ld  [ %l3 + %o2 ], %o4
a00029ec:	da 04 c0 08 	ld  [ %l3 + %o0 ], %o5
a00029f0:	c2 04 c0 10 	ld  [ %l3 + %l0 ], %g1
a00029f4:	27 28 00 24 	sethi  %hi(0xa0009000), %l3
a00029f8:	a6 14 e1 28 	or  %l3, 0x128, %l3	! a0009128 <Te2>
a00029fc:	e0 07 bf 8c 	ld  [ %fp + -116 ], %l0
a0002a00:	a5 36 20 06 	srl  %i0, 6, %l2
a0002a04:	a2 0c 63 fc 	and  %l1, 0x3fc, %l1
a0002a08:	98 1b 00 1a 	xor  %o4, %i2, %o4
a0002a0c:	f4 04 c0 11 	ld  [ %l3 + %l1 ], %i2
a0002a10:	a4 0c a3 fc 	and  %l2, 0x3fc, %l2
a0002a14:	a0 0c 23 fc 	and  %l0, 0x3fc, %l0
a0002a18:	11 28 00 25 	sethi  %hi(0xa0009400), %o0
a0002a1c:	e2 04 c0 12 	ld  [ %l3 + %l2 ], %l1
a0002a20:	de 07 bf 90 	ld  [ %fp + -112 ], %o7
a0002a24:	e0 27 bf 88 	st  %l0, [ %fp + -120 ]
a0002a28:	90 12 21 28 	or  %o0, 0x128, %o0
a0002a2c:	d4 02 00 0f 	ld  [ %o0 + %o7 ], %o2
a0002a30:	e4 07 bf 88 	ld  [ %fp + -120 ], %l2
a0002a34:	a9 35 e0 06 	srl  %l7, 6, %l4
a0002a38:	9a 1b 40 09 	xor  %o5, %o1, %o5
a0002a3c:	d2 04 c0 12 	ld  [ %l3 + %l2 ], %o1
a0002a40:	a8 0d 23 fc 	and  %l4, 0x3fc, %l4
a0002a44:	82 18 40 0a 	xor  %g1, %o2, %g1
a0002a48:	d4 04 c0 14 	ld  [ %l3 + %l4 ], %o2
a0002a4c:	82 18 40 09 	xor  %g1, %o1, %g1
a0002a50:	e6 07 bf 84 	ld  [ %fp + -124 ], %l3
a0002a54:	90 0e 20 ff 	and  %i0, 0xff, %o0
a0002a58:	13 28 00 23 	sethi  %hi(0xa0008c00), %o1
a0002a5c:	a5 2c e0 02 	sll  %l3, 2, %l2
a0002a60:	92 12 61 28 	or  %o1, 0x128, %o1
a0002a64:	9e 0d e0 ff 	and  %l7, 0xff, %o7
a0002a68:	a0 0d a0 ff 	and  %l6, 0xff, %l0
a0002a6c:	91 2a 20 02 	sll  %o0, 2, %o0
a0002a70:	9a 1b 40 0a 	xor  %o5, %o2, %o5
a0002a74:	d4 02 40 08 	ld  [ %o1 + %o0 ], %o2
a0002a78:	a6 10 00 09 	mov  %o1, %l3
a0002a7c:	9f 2b e0 02 	sll  %o7, 2, %o7
a0002a80:	a1 2c 20 02 	sll  %l0, 2, %l0
a0002a84:	d0 04 c0 10 	ld  [ %l3 + %l0 ], %o0
a0002a88:	d2 02 40 0f 	ld  [ %o1 + %o7 ], %o1
a0002a8c:	96 1a c0 19 	xor  %o3, %i1, %o3
a0002a90:	de 04 c0 12 	ld  [ %l3 + %l2 ], %o7
a0002a94:	9a 1b 40 08 	xor  %o5, %o0, %o5
a0002a98:	96 1a c0 1a 	xor  %o3, %i2, %o3
a0002a9c:	d0 07 a0 4c 	ld  [ %fp + 0x4c ], %o0
a0002aa0:	e0 07 a0 4c 	ld  [ %fp + 0x4c ], %l0
a0002aa4:	96 1a c0 0a 	xor  %o3, %o2, %o3
a0002aa8:	82 18 40 0f 	xor  %g1, %o7, %g1
a0002aac:	d4 02 20 80 	ld  [ %o0 + 0x80 ], %o2
a0002ab0:	de 04 20 8c 	ld  [ %l0 + 0x8c ], %o7
a0002ab4:	98 1b 00 11 	xor  %o4, %l1, %o4
a0002ab8:	b8 1a c0 0a 	xor  %o3, %o2, %i4
a0002abc:	b6 18 40 0f 	xor  %g1, %o7, %i3
a0002ac0:	98 1b 00 09 	xor  %o4, %o1, %o4
a0002ac4:	d2 02 20 84 	ld  [ %o0 + 0x84 ], %o1
a0002ac8:	83 37 20 18 	srl  %i4, 0x18, %g1
a0002acc:	27 28 00 26 	sethi  %hi(0xa0009800), %l3
a0002ad0:	a6 14 e1 28 	or  %l3, 0x128, %l3	! a0009928 <Te0>
a0002ad4:	d0 02 20 88 	ld  [ %o0 + 0x88 ], %o0
a0002ad8:	83 28 60 02 	sll  %g1, 2, %g1
a0002adc:	ba 1b 00 09 	xor  %o4, %o1, %i5
a0002ae0:	b0 1b 40 08 	xor  %o5, %o0, %i0
a0002ae4:	d6 04 c0 01 	ld  [ %l3 + %g1 ], %o3
a0002ae8:	9b 37 60 0e 	srl  %i5, 0xe, %o5
a0002aec:	03 28 00 25 	sethi  %hi(0xa0009400), %g1
a0002af0:	82 10 61 28 	or  %g1, 0x128, %g1	! a0009528 <Te1>
a0002af4:	91 36 20 18 	srl  %i0, 0x18, %o0
a0002af8:	9a 0b 63 fc 	and  %o5, 0x3fc, %o5
a0002afc:	f2 00 40 0d 	ld  [ %g1 + %o5 ], %i1
a0002b00:	99 37 20 0e 	srl  %i4, 0xe, %o4
a0002b04:	93 36 20 0e 	srl  %i0, 0xe, %o1
a0002b08:	91 2a 20 02 	sll  %o0, 2, %o0
a0002b0c:	da 04 c0 08 	ld  [ %l3 + %o0 ], %o5
a0002b10:	9f 36 e0 0e 	srl  %i3, 0xe, %o7
a0002b14:	92 0a 63 fc 	and  %o1, 0x3fc, %o1
a0002b18:	98 0b 23 fc 	and  %o4, 0x3fc, %o4
a0002b1c:	f4 00 40 09 	ld  [ %g1 + %o1 ], %i2
a0002b20:	d8 27 bf 80 	st  %o4, [ %fp + -128 ]
a0002b24:	a3 36 e0 18 	srl  %i3, 0x18, %l1
a0002b28:	95 37 60 18 	srl  %i5, 0x18, %o2
a0002b2c:	9e 0b e3 fc 	and  %o7, 0x3fc, %o7
a0002b30:	11 28 00 25 	sethi  %hi(0xa0009400), %o0
a0002b34:	ea 00 40 0f 	ld  [ %g1 + %o7 ], %l5
a0002b38:	d2 07 bf 80 	ld  [ %fp + -128 ], %o1
a0002b3c:	a5 37 60 06 	srl  %i5, 6, %l2
a0002b40:	95 2a a0 02 	sll  %o2, 2, %o2
a0002b44:	a3 2c 60 02 	sll  %l1, 2, %l1
a0002b48:	90 12 21 28 	or  %o0, 0x128, %o0
a0002b4c:	de 02 00 09 	ld  [ %o0 + %o1 ], %o7
a0002b50:	e4 27 bf 7c 	st  %l2, [ %fp + -132 ]
a0002b54:	d8 04 c0 0a 	ld  [ %l3 + %o2 ], %o4
a0002b58:	c2 04 c0 11 	ld  [ %l3 + %l1 ], %g1
a0002b5c:	d4 07 bf 7c 	ld  [ %fp + -132 ], %o2
a0002b60:	82 18 40 0f 	xor  %g1, %o7, %g1
a0002b64:	a1 36 20 06 	srl  %i0, 6, %l0
a0002b68:	94 0a a3 fc 	and  %o2, 0x3fc, %o2
a0002b6c:	1f 28 00 24 	sethi  %hi(0xa0009000), %o7
a0002b70:	d4 27 bf 78 	st  %o2, [ %fp + -136 ]
a0002b74:	9e 13 e1 28 	or  %o7, 0x128, %o7
a0002b78:	a5 36 e0 06 	srl  %i3, 6, %l2
a0002b7c:	a9 37 20 06 	srl  %i4, 6, %l4
a0002b80:	a0 0c 23 fc 	and  %l0, 0x3fc, %l0
a0002b84:	96 1a c0 19 	xor  %o3, %i1, %o3
a0002b88:	f2 03 c0 10 	ld  [ %o7 + %l0 ], %i1
a0002b8c:	a4 0c a3 fc 	and  %l2, 0x3fc, %l2
a0002b90:	a8 0d 23 fc 	and  %l4, 0x3fc, %l4
a0002b94:	98 1b 00 1a 	xor  %o4, %i2, %o4
a0002b98:	f4 03 c0 12 	ld  [ %o7 + %l2 ], %i2
a0002b9c:	e0 03 c0 14 	ld  [ %o7 + %l4 ], %l0
a0002ba0:	e6 07 bf 78 	ld  [ %fp + -136 ], %l3
a0002ba4:	de 03 c0 13 	ld  [ %o7 + %l3 ], %o7
a0002ba8:	82 18 40 0f 	xor  %g1, %o7, %g1
a0002bac:	94 0e e0 ff 	and  %i3, 0xff, %o2
a0002bb0:	9a 1b 40 15 	xor  %o5, %l5, %o5
a0002bb4:	1f 28 00 23 	sethi  %hi(0xa0008c00), %o7
a0002bb8:	9e 13 e1 28 	or  %o7, 0x128, %o7	! a0008d28 <Te3>
a0002bbc:	92 0f 20 ff 	and  %i4, 0xff, %o1
a0002bc0:	95 2a a0 02 	sll  %o2, 2, %o2
a0002bc4:	9a 1b 40 10 	xor  %o5, %l0, %o5
a0002bc8:	e0 03 c0 0a 	ld  [ %o7 + %o2 ], %l0
a0002bcc:	a4 10 00 0f 	mov  %o7, %l2
a0002bd0:	a2 0e 20 ff 	and  %i0, 0xff, %l1
a0002bd4:	90 0f 60 ff 	and  %i5, 0xff, %o0
a0002bd8:	93 2a 60 02 	sll  %o1, 2, %o1
a0002bdc:	de 03 c0 09 	ld  [ %o7 + %o1 ], %o7
a0002be0:	91 2a 20 02 	sll  %o0, 2, %o0
a0002be4:	a3 2c 60 02 	sll  %l1, 2, %l1
a0002be8:	e6 07 a0 4c 	ld  [ %fp + 0x4c ], %l3
a0002bec:	d4 04 80 08 	ld  [ %l2 + %o0 ], %o2
a0002bf0:	d2 04 80 11 	ld  [ %l2 + %l1 ], %o1
a0002bf4:	98 1b 00 1a 	xor  %o4, %i2, %o4
a0002bf8:	98 1b 00 0f 	xor  %o4, %o7, %o4
a0002bfc:	9a 1b 40 0a 	xor  %o5, %o2, %o5
a0002c00:	82 18 40 09 	xor  %g1, %o1, %g1
a0002c04:	96 1a c0 19 	xor  %o3, %i1, %o3
a0002c08:	e4 04 e0 f0 	ld  [ %l3 + 0xf0 ], %l2
a0002c0c:	96 1a c0 10 	xor  %o3, %l0, %o3
a0002c10:	a5 2c a0 04 	sll  %l2, 4, %l2
a0002c14:	d4 04 e0 90 	ld  [ %l3 + 0x90 ], %o2
a0002c18:	d2 04 e0 94 	ld  [ %l3 + 0x94 ], %o1
a0002c1c:	d0 04 e0 98 	ld  [ %l3 + 0x98 ], %o0
a0002c20:	de 04 e0 9c 	ld  [ %l3 + 0x9c ], %o7
a0002c24:	ae 1a c0 0a 	xor  %o3, %o2, %l7
a0002c28:	ac 1b 00 09 	xor  %o4, %o1, %l6
a0002c2c:	b2 1b 40 08 	xor  %o5, %o0, %i1
a0002c30:	b0 18 40 0f 	xor  %g1, %o7, %i0
a0002c34:	b4 04 c0 12 	add  %l3, %l2, %i2
a0002c38:	01 00 00 00 	nop 
a0002c3c:	11 28 00 24 	sethi  %hi(0xa0009000), %o0
a0002c40:	83 35 e0 18 	srl  %l7, 0x18, %g1
a0002c44:	83 28 60 02 	sll  %g1, 2, %g1
a0002c48:	90 12 21 28 	or  %o0, 0x128, %o0
a0002c4c:	9b 35 a0 0e 	srl  %l6, 0xe, %o5
a0002c50:	13 28 00 23 	sethi  %hi(0xa0008c00), %o1
a0002c54:	d8 02 00 01 	ld  [ %o0 + %g1 ], %o4
a0002c58:	9a 0b 63 fc 	and  %o5, 0x3fc, %o5
a0002c5c:	92 12 61 28 	or  %o1, 0x128, %o1
a0002c60:	97 36 60 06 	srl  %i1, 6, %o3
a0002c64:	1f 28 00 26 	sethi  %hi(0xa0009800), %o7
a0002c68:	d4 02 40 0d 	ld  [ %o1 + %o5 ], %o2
a0002c6c:	27 00 3f c0 	sethi  %hi(0xff0000), %l3
a0002c70:	96 0a e3 fc 	and  %o3, 0x3fc, %o3
a0002c74:	82 0e 20 ff 	and  %i0, 0xff, %g1
a0002c78:	9e 13 e1 28 	or  %o7, 0x128, %o7
a0002c7c:	21 3f c0 00 	sethi  %hi(0xff000000), %l0
a0002c80:	29 00 00 3f 	sethi  %hi(0xfc00), %l4
a0002c84:	11 28 00 25 	sethi  %hi(0xa0009400), %o0
a0002c88:	a8 15 23 00 	or  %l4, 0x300, %l4
a0002c8c:	da 03 c0 0b 	ld  [ %o7 + %o3 ], %o5
a0002c90:	94 0a 80 13 	and  %o2, %l3, %o2
a0002c94:	98 0b 00 10 	and  %o4, %l0, %o4
a0002c98:	83 28 60 02 	sll  %g1, 2, %g1
a0002c9c:	90 12 21 28 	or  %o0, 0x128, %o0
a0002ca0:	d6 02 00 01 	ld  [ %o0 + %g1 ], %o3
a0002ca4:	98 1b 00 0a 	xor  %o4, %o2, %o4
a0002ca8:	9a 0b 40 14 	and  %o5, %l4, %o5
a0002cac:	98 1b 00 0d 	xor  %o4, %o5, %o4
a0002cb0:	96 0a e0 ff 	and  %o3, 0xff, %o3
a0002cb4:	98 1b 00 0b 	xor  %o4, %o3, %o4
a0002cb8:	d4 07 a0 4c 	ld  [ %fp + 0x4c ], %o2
a0002cbc:	83 35 a0 18 	srl  %l6, 0x18, %g1
a0002cc0:	17 28 00 24 	sethi  %hi(0xa0009000), %o3
a0002cc4:	d0 02 80 12 	ld  [ %o2 + %l2 ], %o0
a0002cc8:	83 28 60 02 	sll  %g1, 2, %g1
a0002ccc:	96 12 e1 28 	or  %o3, 0x128, %o3
a0002cd0:	93 36 60 0e 	srl  %i1, 0xe, %o1
a0002cd4:	1f 28 00 23 	sethi  %hi(0xa0008c00), %o7
a0002cd8:	d4 02 c0 01 	ld  [ %o3 + %g1 ], %o2
a0002cdc:	92 0a 63 fc 	and  %o1, 0x3fc, %o1
a0002ce0:	9e 13 e1 28 	or  %o7, 0x128, %o7
a0002ce4:	d6 03 c0 09 	ld  [ %o7 + %o1 ], %o3
a0002ce8:	96 0a c0 13 	and  %o3, %l3, %o3
a0002cec:	9b 36 20 06 	srl  %i0, 6, %o5
a0002cf0:	21 28 00 26 	sethi  %hi(0xa0009800), %l0
a0002cf4:	9a 0b 63 fc 	and  %o5, 0x3fc, %o5
a0002cf8:	a0 14 21 28 	or  %l0, 0x128, %l0
a0002cfc:	25 3f c0 00 	sethi  %hi(0xff000000), %l2
a0002d00:	82 0d e0 ff 	and  %l7, 0xff, %g1
a0002d04:	27 28 00 25 	sethi  %hi(0xa0009400), %l3
a0002d08:	b8 1b 00 08 	xor  %o4, %o0, %i4
a0002d0c:	d2 04 00 0d 	ld  [ %l0 + %o5 ], %o1
a0002d10:	94 0a 80 12 	and  %o2, %l2, %o2
a0002d14:	83 28 60 02 	sll  %g1, 2, %g1
a0002d18:	a6 14 e1 28 	or  %l3, 0x128, %l3
a0002d1c:	d0 04 c0 01 	ld  [ %l3 + %g1 ], %o0
a0002d20:	94 1a 80 0b 	xor  %o2, %o3, %o2
a0002d24:	92 0a 40 14 	and  %o1, %l4, %o1
a0002d28:	e0 07 a0 48 	ld  [ %fp + 0x48 ], %l0
a0002d2c:	9b 37 20 18 	srl  %i4, 0x18, %o5
a0002d30:	94 1a 80 09 	xor  %o2, %o1, %o2
a0002d34:	90 0a 20 ff 	and  %o0, 0xff, %o0
a0002d38:	da 2c 00 00 	stb  %o5, [ %l0 ]
a0002d3c:	94 1a 80 08 	xor  %o2, %o0, %o2
a0002d40:	97 37 20 10 	srl  %i4, 0x10, %o3
a0002d44:	9f 37 20 08 	srl  %i4, 8, %o7
a0002d48:	83 36 60 18 	srl  %i1, 0x18, %g1
a0002d4c:	9b 35 e0 06 	srl  %l7, 6, %o5
a0002d50:	25 28 00 24 	sethi  %hi(0xa0009000), %l2
a0002d54:	11 28 00 26 	sethi  %hi(0xa0009800), %o0
a0002d58:	d6 2c 20 01 	stb  %o3, [ %l0 + 1 ]
a0002d5c:	de 2c 20 02 	stb  %o7, [ %l0 + 2 ]
a0002d60:	f8 2c 20 03 	stb  %i4, [ %l0 + 3 ]
a0002d64:	99 36 20 0e 	srl  %i0, 0xe, %o4
a0002d68:	83 28 60 02 	sll  %g1, 2, %g1
a0002d6c:	a4 14 a1 28 	or  %l2, 0x128, %l2
a0002d70:	9a 0b 63 fc 	and  %o5, 0x3fc, %o5
a0002d74:	90 12 21 28 	or  %o0, 0x128, %o0
a0002d78:	27 28 00 23 	sethi  %hi(0xa0008c00), %l3
a0002d7c:	d2 04 80 01 	ld  [ %l2 + %g1 ], %o1
a0002d80:	e0 02 00 0d 	ld  [ %o0 + %o5 ], %l0
a0002d84:	98 0b 23 fc 	and  %o4, 0x3fc, %o4
a0002d88:	a6 14 e1 28 	or  %l3, 0x128, %l3
a0002d8c:	d6 04 c0 0c 	ld  [ %l3 + %o4 ], %o3
a0002d90:	82 0d a0 ff 	and  %l6, 0xff, %g1
a0002d94:	1b 28 00 25 	sethi  %hi(0xa0009400), %o5
a0002d98:	d8 06 a0 04 	ld  [ %i2 + 4 ], %o4
a0002d9c:	83 28 60 02 	sll  %g1, 2, %g1
a0002da0:	9a 13 61 28 	or  %o5, 0x128, %o5
a0002da4:	ba 1a 80 0c 	xor  %o2, %o4, %i5
a0002da8:	e2 03 40 01 	ld  [ %o5 + %g1 ], %l1
a0002dac:	e4 07 a0 48 	ld  [ %fp + 0x48 ], %l2
a0002db0:	83 37 60 18 	srl  %i5, 0x18, %g1
a0002db4:	c2 2c a0 04 	stb  %g1, [ %l2 + 4 ]
a0002db8:	15 3f c0 00 	sethi  %hi(0xff000000), %o2
a0002dbc:	19 00 3f c0 	sethi  %hi(0xff0000), %o4
a0002dc0:	96 0a c0 0c 	and  %o3, %o4, %o3
a0002dc4:	92 0a 40 0a 	and  %o1, %o2, %o1
a0002dc8:	9f 35 e0 0e 	srl  %l7, 0xe, %o7
a0002dcc:	03 28 00 23 	sethi  %hi(0xa0008c00), %g1
a0002dd0:	92 1a 40 0b 	xor  %o1, %o3, %o1
a0002dd4:	a0 0c 00 14 	and  %l0, %l4, %l0
a0002dd8:	9b 37 60 10 	srl  %i5, 0x10, %o5
a0002ddc:	99 37 60 08 	srl  %i5, 8, %o4
a0002de0:	9e 0b e3 fc 	and  %o7, 0x3fc, %o7
a0002de4:	82 10 61 28 	or  %g1, 0x128, %g1
a0002de8:	d4 00 40 0f 	ld  [ %g1 + %o7 ], %o2
a0002dec:	da 2c a0 05 	stb  %o5, [ %l2 + 5 ]
a0002df0:	d8 2c a0 06 	stb  %o4, [ %l2 + 6 ]
a0002df4:	fa 2c a0 07 	stb  %i5, [ %l2 + 7 ]
a0002df8:	92 1a 40 10 	xor  %o1, %l0, %o1
a0002dfc:	a2 0c 60 ff 	and  %l1, 0xff, %l1
a0002e00:	c2 06 a0 08 	ld  [ %i2 + 8 ], %g1
a0002e04:	91 36 20 18 	srl  %i0, 0x18, %o0
a0002e08:	92 1a 40 11 	xor  %o1, %l1, %o1
a0002e0c:	b0 1a 40 01 	xor  %o1, %g1, %i0
a0002e10:	27 28 00 24 	sethi  %hi(0xa0009000), %l3
a0002e14:	91 2a 20 02 	sll  %o0, 2, %o0
a0002e18:	97 35 a0 06 	srl  %l6, 6, %o3
a0002e1c:	a6 14 e1 28 	or  %l3, 0x128, %l3
a0002e20:	13 28 00 26 	sethi  %hi(0xa0009800), %o1
a0002e24:	d8 04 c0 08 	ld  [ %l3 + %o0 ], %o4
a0002e28:	96 0a e3 fc 	and  %o3, 0x3fc, %o3
a0002e2c:	92 12 61 28 	or  %o1, 0x128, %o1
a0002e30:	d0 02 40 0b 	ld  [ %o1 + %o3 ], %o0
a0002e34:	17 3f c0 00 	sethi  %hi(0xff000000), %o3
a0002e38:	9a 0e 60 ff 	and  %i1, 0xff, %o5
a0002e3c:	1f 00 3f c0 	sethi  %hi(0xff0000), %o7
a0002e40:	21 28 00 25 	sethi  %hi(0xa0009400), %l0
a0002e44:	98 0b 00 0b 	and  %o4, %o3, %o4
a0002e48:	94 0a 80 0f 	and  %o2, %o7, %o2
a0002e4c:	9b 2b 60 02 	sll  %o5, 2, %o5
a0002e50:	a0 14 21 28 	or  %l0, 0x128, %l0
a0002e54:	d6 04 00 0d 	ld  [ %l0 + %o5 ], %o3
a0002e58:	98 1b 00 0a 	xor  %o4, %o2, %o4
a0002e5c:	83 36 20 18 	srl  %i0, 0x18, %g1
a0002e60:	9b 36 20 10 	srl  %i0, 0x10, %o5
a0002e64:	95 36 20 08 	srl  %i0, 8, %o2
a0002e68:	c2 2c a0 08 	stb  %g1, [ %l2 + 8 ]
a0002e6c:	da 2c a0 09 	stb  %o5, [ %l2 + 9 ]
a0002e70:	90 0a 00 14 	and  %o0, %l4, %o0
a0002e74:	d4 2c a0 0a 	stb  %o2, [ %l2 + 0xa ]
a0002e78:	f0 2c a0 0b 	stb  %i0, [ %l2 + 0xb ]
a0002e7c:	98 1b 00 08 	xor  %o4, %o0, %o4
a0002e80:	96 0a e0 ff 	and  %o3, 0xff, %o3
a0002e84:	c2 06 a0 0c 	ld  [ %i2 + 0xc ], %g1
a0002e88:	98 1b 00 0b 	xor  %o4, %o3, %o4
a0002e8c:	b6 1b 00 01 	xor  %o4, %g1, %i3
a0002e90:	9b 36 e0 18 	srl  %i3, 0x18, %o5
a0002e94:	da 2c a0 0c 	stb  %o5, [ %l2 + 0xc ]
a0002e98:	83 36 e0 10 	srl  %i3, 0x10, %g1
a0002e9c:	9b 36 e0 08 	srl  %i3, 8, %o5
a0002ea0:	c2 2c a0 0d 	stb  %g1, [ %l2 + 0xd ]
a0002ea4:	f6 2c a0 0f 	stb  %i3, [ %l2 + 0xf ]
a0002ea8:	da 2c a0 0e 	stb  %o5, [ %l2 + 0xe ]
a0002eac:	81 c7 e0 08 	ret 
a0002eb0:	81 e8 00 00 	restore 

a0002eb4 <main>:
a0002eb4:	9d e3 bd 98 	save  %sp, -616, %sp
a0002eb8:	01 00 00 00 	nop 
a0002ebc:	01 00 00 00 	nop 
a0002ec0:	01 00 00 00 	nop 
a0002ec4:	01 00 00 00 	nop 
a0002ec8:	01 00 00 00 	nop 
a0002ecc:	01 00 00 00 	nop 
a0002ed0:	13 28 00 27 	sethi  %hi(0xa0009c00), %o1
a0002ed4:	a2 07 bf e8 	add  %fp, -24, %l1
a0002ed8:	92 12 61 71 	or  %o1, 0x171, %o1
a0002edc:	90 10 00 11 	mov  %l1, %o0
a0002ee0:	40 00 00 34 	call  a0002fb0 <memcpy>
a0002ee4:	94 10 20 10 	mov  0x10, %o2
a0002ee8:	a0 07 be f0 	add  %fp, -272, %l0
a0002eec:	11 28 00 23 	sethi  %hi(0xa0008c00), %o0
a0002ef0:	94 10 00 10 	mov  %l0, %o2
a0002ef4:	92 10 20 80 	mov  0x80, %o1
a0002ef8:	7f ff fa aa 	call  a00019a0 <private_AES_set_encrypt_key>
a0002efc:	90 12 21 18 	or  %o0, 0x118, %o0
a0002f00:	13 28 00 2a 	sethi  %hi(0xa000a800), %o1
a0002f04:	90 10 00 11 	mov  %l1, %o0
a0002f08:	92 12 61 d0 	or  %o1, 0x1d0, %o1
a0002f0c:	7f ff fb f0 	call  a0001ecc <AES_encrypt>
a0002f10:	94 10 00 10 	mov  %l0, %o2
a0002f14:	01 00 00 00 	nop 
a0002f18:	01 00 00 00 	nop 
a0002f1c:	01 00 00 00 	nop 
a0002f20:	01 00 00 00 	nop 
a0002f24:	01 00 00 00 	nop 
a0002f28:	81 c7 e0 08 	ret 
a0002f2c:	91 e8 20 00 	restore  %g0, 0, %o0

a0002f30 <__assert>:
a0002f30:	9d e3 bf 98 	save  %sp, -104, %sp
a0002f34:	03 28 00 29 	sethi  %hi(0xa000a400), %g1
a0002f38:	da 00 60 30 	ld  [ %g1 + 0x30 ], %o5	! a000a430 <_impure_ptr>
a0002f3c:	13 28 00 27 	sethi  %hi(0xa0009c00), %o1
a0002f40:	92 12 61 88 	or  %o1, 0x188, %o1	! a0009d88 <rcon+0x60>
a0002f44:	94 10 00 1a 	mov  %i2, %o2
a0002f48:	96 10 00 18 	mov  %i0, %o3
a0002f4c:	98 10 00 19 	mov  %i1, %o4
a0002f50:	40 00 00 0d 	call  a0002f84 <fiprintf>
a0002f54:	d0 03 60 0c 	ld  [ %o5 + 0xc ], %o0
a0002f58:	40 00 06 97 	call  a00049b4 <abort>
a0002f5c:	01 00 00 00 	nop 
a0002f60:	01 00 00 00 	nop 

a0002f64 <_atexit>:
a0002f64:	92 10 00 08 	mov  %o0, %o1
a0002f68:	90 10 20 00 	clr  %o0
a0002f6c:	94 10 20 00 	clr  %o2
a0002f70:	96 10 20 00 	clr  %o3
a0002f74:	82 13 c0 00 	mov  %o7, %g1
a0002f78:	40 00 06 53 	call  a00048c4 <__register_exitproc>
a0002f7c:	9e 10 40 00 	mov  %g1, %o7
a0002f80:	01 00 00 00 	nop 

a0002f84 <fiprintf>:
a0002f84:	9d e3 bf 98 	save  %sp, -104, %sp
a0002f88:	90 10 00 18 	mov  %i0, %o0
a0002f8c:	f4 27 a0 4c 	st  %i2, [ %fp + 0x4c ]
a0002f90:	f6 27 a0 50 	st  %i3, [ %fp + 0x50 ]
a0002f94:	f8 27 a0 54 	st  %i4, [ %fp + 0x54 ]
a0002f98:	fa 27 a0 58 	st  %i5, [ %fp + 0x58 ]
a0002f9c:	92 10 00 19 	mov  %i1, %o1
a0002fa0:	40 00 04 62 	call  a0004128 <vfiprintf>
a0002fa4:	94 07 a0 4c 	add  %fp, 0x4c, %o2
a0002fa8:	81 c7 e0 08 	ret 
a0002fac:	91 e8 00 08 	restore  %g0, %o0, %o0

a0002fb0 <memcpy>:
a0002fb0:	80 a2 a0 0f 	cmp  %o2, 0xf
a0002fb4:	08 80 00 06 	bleu  a0002fcc <memcpy+0x1c>
a0002fb8:	9a 10 00 08 	mov  %o0, %o5
a0002fbc:	82 12 40 08 	or  %o1, %o0, %g1
a0002fc0:	80 88 60 03 	btst  3, %g1
a0002fc4:	22 80 00 0f 	be,a   a0003000 <memcpy+0x50>
a0002fc8:	c2 02 40 00 	ld  [ %o1 ], %g1
a0002fcc:	94 02 bf ff 	add  %o2, -1, %o2
a0002fd0:	80 a2 bf ff 	cmp  %o2, -1
a0002fd4:	02 80 00 28 	be  a0003074 <memcpy+0xc4>
a0002fd8:	01 00 00 00 	nop 
a0002fdc:	c2 0a 40 00 	ldub  [ %o1 ], %g1
a0002fe0:	c2 2b 40 00 	stb  %g1, [ %o5 ]
a0002fe4:	94 02 bf ff 	add  %o2, -1, %o2
a0002fe8:	92 02 60 01 	inc  %o1
a0002fec:	80 a2 bf ff 	cmp  %o2, -1
a0002ff0:	12 bf ff fb 	bne  a0002fdc <memcpy+0x2c>
a0002ff4:	9a 03 60 01 	inc  %o5
a0002ff8:	30 80 00 1f 	b,a   a0003074 <memcpy+0xc4>
a0002ffc:	c2 02 40 00 	ld  [ %o1 ], %g1
a0003000:	c2 23 40 00 	st  %g1, [ %o5 ]
a0003004:	92 02 60 04 	add  %o1, 4, %o1
a0003008:	c2 02 40 00 	ld  [ %o1 ], %g1
a000300c:	9a 03 60 04 	add  %o5, 4, %o5
a0003010:	c2 23 40 00 	st  %g1, [ %o5 ]
a0003014:	92 02 60 04 	add  %o1, 4, %o1
a0003018:	c2 02 40 00 	ld  [ %o1 ], %g1
a000301c:	9a 03 60 04 	add  %o5, 4, %o5
a0003020:	c2 23 40 00 	st  %g1, [ %o5 ]
a0003024:	92 02 60 04 	add  %o1, 4, %o1
a0003028:	9a 03 60 04 	add  %o5, 4, %o5
a000302c:	c2 02 40 00 	ld  [ %o1 ], %g1
a0003030:	c2 23 40 00 	st  %g1, [ %o5 ]
a0003034:	94 02 bf f0 	add  %o2, -16, %o2
a0003038:	92 02 60 04 	add  %o1, 4, %o1
a000303c:	80 a2 a0 0f 	cmp  %o2, 0xf
a0003040:	18 bf ff ef 	bgu  a0002ffc <memcpy+0x4c>
a0003044:	9a 03 60 04 	add  %o5, 4, %o5
a0003048:	10 80 00 07 	b  a0003064 <memcpy+0xb4>
a000304c:	80 a2 a0 03 	cmp  %o2, 3
a0003050:	c2 23 40 00 	st  %g1, [ %o5 ]
a0003054:	94 02 bf fc 	add  %o2, -4, %o2
a0003058:	92 02 60 04 	add  %o1, 4, %o1
a000305c:	9a 03 60 04 	add  %o5, 4, %o5
a0003060:	80 a2 a0 03 	cmp  %o2, 3
a0003064:	38 bf ff fb 	bgu,a   a0003050 <memcpy+0xa0>
a0003068:	c2 02 40 00 	ld  [ %o1 ], %g1
a000306c:	10 bf ff d9 	b  a0002fd0 <memcpy+0x20>
a0003070:	94 02 bf ff 	add  %o2, -1, %o2
a0003074:	81 c3 e0 08 	retl 
a0003078:	01 00 00 00 	nop 
a000307c:	a0 00 3a bc 	add  %g0, -1348, %l0	! fffffabc <__end+0x5fff48b4>
a0003080:	a0 00 3a 08 	add  %g0, -1528, %l0
a0003084:	a0 00 3a 08 	add  %g0, -1528, %l0
a0003088:	a0 00 3a b4 	add  %g0, -1356, %l0
a000308c:	a0 00 3a 08 	add  %g0, -1528, %l0
a0003090:	a0 00 3a 08 	add  %g0, -1528, %l0
a0003094:	a0 00 3a 08 	add  %g0, -1528, %l0
a0003098:	a0 00 3a 08 	add  %g0, -1528, %l0
a000309c:	a0 00 3a 08 	add  %g0, -1528, %l0
a00030a0:	a0 00 3a 08 	add  %g0, -1528, %l0
a00030a4:	a0 00 39 d8 	add  %g0, -1576, %l0
a00030a8:	a0 00 3a a8 	add  %g0, -1368, %l0
a00030ac:	a0 00 3a 08 	add  %g0, -1528, %l0
a00030b0:	a0 00 39 f4 	add  %g0, -1548, %l0
a00030b4:	a0 00 3a d8 	add  %g0, -1320, %l0
a00030b8:	a0 00 3a 08 	add  %g0, -1528, %l0
a00030bc:	a0 00 3a a0 	add  %g0, -1376, %l0
a00030c0:	a0 00 3a 6c 	add  %g0, -1428, %l0
a00030c4:	a0 00 3a 6c 	add  %g0, -1428, %l0
a00030c8:	a0 00 3a 6c 	add  %g0, -1428, %l0
a00030cc:	a0 00 3a 6c 	add  %g0, -1428, %l0
a00030d0:	a0 00 3a 6c 	add  %g0, -1428, %l0
a00030d4:	a0 00 3a 6c 	add  %g0, -1428, %l0
a00030d8:	a0 00 3a 6c 	add  %g0, -1428, %l0
a00030dc:	a0 00 3a 6c 	add  %g0, -1428, %l0
a00030e0:	a0 00 3a 6c 	add  %g0, -1428, %l0
a00030e4:	a0 00 3a 08 	add  %g0, -1528, %l0
a00030e8:	a0 00 3a 08 	add  %g0, -1528, %l0
a00030ec:	a0 00 3a 08 	add  %g0, -1528, %l0
a00030f0:	a0 00 3a 08 	add  %g0, -1528, %l0
a00030f4:	a0 00 3a 08 	add  %g0, -1528, %l0
a00030f8:	a0 00 3a 08 	add  %g0, -1528, %l0
a00030fc:	a0 00 3a 08 	add  %g0, -1528, %l0
a0003100:	a0 00 3a 08 	add  %g0, -1528, %l0
a0003104:	a0 00 3a 08 	add  %g0, -1528, %l0
a0003108:	a0 00 3b 8c 	add  %g0, -1140, %l0
a000310c:	a0 00 35 4c 	add  %g0, -2740, %l0
a0003110:	a0 00 3a 08 	add  %g0, -1528, %l0
a0003114:	a0 00 3a 08 	add  %g0, -1528, %l0
a0003118:	a0 00 3a 08 	add  %g0, -1528, %l0
a000311c:	a0 00 3a 08 	add  %g0, -1528, %l0
a0003120:	a0 00 3a 08 	add  %g0, -1528, %l0
a0003124:	a0 00 3a 08 	add  %g0, -1528, %l0
a0003128:	a0 00 3a 08 	add  %g0, -1528, %l0
a000312c:	a0 00 3a 08 	add  %g0, -1528, %l0
a0003130:	a0 00 3a 08 	add  %g0, -1528, %l0
a0003134:	a0 00 3a 08 	add  %g0, -1528, %l0
a0003138:	a0 00 35 18 	add  %g0, -2792, %l0
a000313c:	a0 00 3a 08 	add  %g0, -1528, %l0
a0003140:	a0 00 3a 08 	add  %g0, -1528, %l0
a0003144:	a0 00 3a 08 	add  %g0, -1528, %l0
a0003148:	a0 00 3b fc 	add  %g0, -1028, %l0
a000314c:	a0 00 3a 08 	add  %g0, -1528, %l0
a0003150:	a0 00 34 e4 	add  %g0, -2844, %l0
a0003154:	a0 00 3a 08 	add  %g0, -1528, %l0
a0003158:	a0 00 3a 08 	add  %g0, -1528, %l0
a000315c:	a0 00 3b 60 	add  %g0, -1184, %l0
a0003160:	a0 00 3a 08 	add  %g0, -1528, %l0
a0003164:	a0 00 3a 08 	add  %g0, -1528, %l0
a0003168:	a0 00 3a 08 	add  %g0, -1528, %l0
a000316c:	a0 00 3a 08 	add  %g0, -1528, %l0
a0003170:	a0 00 3a 08 	add  %g0, -1528, %l0
a0003174:	a0 00 3a 08 	add  %g0, -1528, %l0
a0003178:	a0 00 3a 08 	add  %g0, -1528, %l0
a000317c:	a0 00 3a 08 	add  %g0, -1528, %l0
a0003180:	a0 00 3a 08 	add  %g0, -1528, %l0
a0003184:	a0 00 3a 08 	add  %g0, -1528, %l0
a0003188:	a0 00 3b 8c 	add  %g0, -1140, %l0
a000318c:	a0 00 35 50 	add  %g0, -2736, %l0
a0003190:	a0 00 3a 08 	add  %g0, -1528, %l0
a0003194:	a0 00 3a 08 	add  %g0, -1528, %l0
a0003198:	a0 00 3a 08 	add  %g0, -1528, %l0
a000319c:	a0 00 3b 84 	add  %g0, -1148, %l0
a00031a0:	a0 00 35 50 	add  %g0, -2736, %l0
a00031a4:	a0 00 3a 08 	add  %g0, -1528, %l0
a00031a8:	a0 00 3a 08 	add  %g0, -1528, %l0
a00031ac:	a0 00 3b e4 	add  %g0, -1052, %l0
a00031b0:	a0 00 3a 08 	add  %g0, -1528, %l0
a00031b4:	a0 00 3c f8 	add  %g0, -776, %l0
a00031b8:	a0 00 35 1c 	add  %g0, -2788, %l0
a00031bc:	a0 00 3b 34 	add  %g0, -1228, %l0
a00031c0:	a0 00 3a 00 	add  %g0, -1536, %l0
a00031c4:	a0 00 3a 08 	add  %g0, -1528, %l0
a00031c8:	a0 00 3b fc 	add  %g0, -1028, %l0
a00031cc:	a0 00 3a 08 	add  %g0, -1528, %l0
a00031d0:	a0 00 34 e8 	add  %g0, -2840, %l0
a00031d4:	a0 00 3a 08 	add  %g0, -1528, %l0
a00031d8:	a0 00 3a 08 	add  %g0, -1528, %l0
a00031dc:	a0 00 3a 24 	add  %g0, -1500, %l0

a00031e0 <__sprint>:
a00031e0:	9d e3 bf 98 	save  %sp, -104, %sp
a00031e4:	c2 06 60 08 	ld  [ %i1 + 8 ], %g1
a00031e8:	90 10 00 18 	mov  %i0, %o0
a00031ec:	92 10 00 19 	mov  %i1, %o1
a00031f0:	80 a0 60 00 	cmp  %g1, 0
a00031f4:	12 80 00 04 	bne  a0003204 <__sprint+0x24>
a00031f8:	b0 10 20 00 	clr  %i0
a00031fc:	10 80 00 07 	b  a0003218 <__sprint+0x38>
a0003200:	c0 26 60 04 	clr  [ %i1 + 4 ]
a0003204:	40 00 08 03 	call  a0005210 <__sfvwrite>
a0003208:	01 00 00 00 	nop 
a000320c:	c0 26 60 04 	clr  [ %i1 + 4 ]
a0003210:	c0 26 60 08 	clr  [ %i1 + 8 ]
a0003214:	b0 10 00 08 	mov  %o0, %i0
a0003218:	81 c7 e0 08 	ret 
a000321c:	81 e8 00 00 	restore 

a0003220 <_vfiprintf_r>:
a0003220:	9d e3 ba 10 	save  %sp, -1520, %sp
a0003224:	c2 16 60 0c 	lduh  [ %i1 + 0xc ], %g1
a0003228:	80 88 62 00 	btst  0x200, %g1
a000322c:	f0 27 a0 44 	st  %i0, [ %fp + 0x44 ]
a0003230:	c0 27 ba 74 	clr  [ %fp + -1420 ]
a0003234:	02 80 00 a8 	be  a00034d4 <_vfiprintf_r+0x2b4>
a0003238:	c0 27 ba 70 	clr  [ %fp + -1424 ]
a000323c:	03 28 00 29 	sethi  %hi(0xa000a400), %g1
a0003240:	d0 00 60 30 	ld  [ %g1 + 0x30 ], %o0	! a000a430 <_impure_ptr>
a0003244:	80 a2 20 00 	cmp  %o0, 0
a0003248:	22 80 00 07 	be,a   a0003264 <_vfiprintf_r+0x44>
a000324c:	c2 16 60 0c 	lduh  [ %i1 + 0xc ], %g1
a0003250:	c2 02 20 38 	ld  [ %o0 + 0x38 ], %g1
a0003254:	80 a0 60 00 	cmp  %g1, 0
a0003258:	02 80 02 b3 	be  a0003d24 <_vfiprintf_r+0xb04>
a000325c:	01 00 00 00 	nop 
a0003260:	c2 16 60 0c 	lduh  [ %i1 + 0xc ], %g1
a0003264:	80 88 60 08 	btst  8, %g1
a0003268:	02 80 00 4d 	be  a000339c <_vfiprintf_r+0x17c>
a000326c:	98 10 00 01 	mov  %g1, %o4
a0003270:	c2 06 60 10 	ld  [ %i1 + 0x10 ], %g1
a0003274:	80 a0 60 00 	cmp  %g1, 0
a0003278:	02 80 00 49 	be  a000339c <_vfiprintf_r+0x17c>
a000327c:	83 2b 20 10 	sll  %o4, 0x10, %g1
a0003280:	97 30 60 10 	srl  %g1, 0x10, %o3
a0003284:	9a 0a e0 1a 	and  %o3, 0x1a, %o5
a0003288:	80 a3 60 0a 	cmp  %o5, 0xa
a000328c:	22 80 00 51 	be,a   a00033d0 <_vfiprintf_r+0x1b0>
a0003290:	c2 56 60 0e 	ldsh  [ %i1 + 0xe ], %g1
a0003294:	b8 07 bf a8 	add  %fp, -88, %i4
a0003298:	f8 27 bf e8 	st  %i4, [ %fp + -24 ]
a000329c:	c0 27 bf f0 	clr  [ %fp + -16 ]
a00032a0:	c0 27 bf ec 	clr  [ %fp + -20 ]
a00032a4:	a4 10 00 1c 	mov  %i4, %l2
a00032a8:	c0 27 ba 7c 	clr  [ %fp + -1412 ]
a00032ac:	c2 4e 80 00 	ldsb  [ %i2 ], %g1
a00032b0:	80 a0 00 01 	cmp  %g0, %g1
a00032b4:	98 40 20 00 	addx  %g0, 0, %o4
a00032b8:	82 18 60 25 	xor  %g1, 0x25, %g1
a00032bc:	80 a0 00 01 	cmp  %g0, %g1
a00032c0:	9a 40 20 00 	addx  %g0, 0, %o5
a00032c4:	a6 10 00 1a 	mov  %i2, %l3
a00032c8:	80 8b 00 0d 	btst  %o4, %o5
a00032cc:	02 80 00 0c 	be  a00032fc <_vfiprintf_r+0xdc>
a00032d0:	c2 0e 80 00 	ldub  [ %i2 ], %g1
a00032d4:	b4 06 a0 01 	inc  %i2
a00032d8:	c2 4e 80 00 	ldsb  [ %i2 ], %g1
a00032dc:	80 a0 00 01 	cmp  %g0, %g1
a00032e0:	98 40 20 00 	addx  %g0, 0, %o4
a00032e4:	82 18 60 25 	xor  %g1, 0x25, %g1
a00032e8:	80 a0 00 01 	cmp  %g0, %g1
a00032ec:	9a 40 20 00 	addx  %g0, 0, %o5
a00032f0:	80 8b 00 0d 	btst  %o4, %o5
a00032f4:	12 bf ff f8 	bne  a00032d4 <_vfiprintf_r+0xb4>
a00032f8:	c2 0e 80 00 	ldub  [ %i2 ], %g1
a00032fc:	a2 a6 80 13 	subcc  %i2, %l3, %l1
a0003300:	02 80 00 12 	be  a0003348 <_vfiprintf_r+0x128>
a0003304:	83 28 60 18 	sll  %g1, 0x18, %g1
a0003308:	e2 24 a0 04 	st  %l1, [ %l2 + 4 ]
a000330c:	da 07 bf ec 	ld  [ %fp + -20 ], %o5
a0003310:	c2 07 bf f0 	ld  [ %fp + -16 ], %g1
a0003314:	9a 03 60 01 	inc  %o5
a0003318:	e6 24 80 00 	st  %l3, [ %l2 ]
a000331c:	82 00 40 11 	add  %g1, %l1, %g1
a0003320:	c2 27 bf f0 	st  %g1, [ %fp + -16 ]
a0003324:	80 a3 60 07 	cmp  %o5, 7
a0003328:	a4 04 a0 08 	add  %l2, 8, %l2
a000332c:	14 80 00 62 	bg  a00034b4 <_vfiprintf_r+0x294>
a0003330:	da 27 bf ec 	st  %o5, [ %fp + -20 ]
a0003334:	c2 07 ba 7c 	ld  [ %fp + -1412 ], %g1
a0003338:	82 00 40 11 	add  %g1, %l1, %g1
a000333c:	c2 27 ba 7c 	st  %g1, [ %fp + -1412 ]
a0003340:	c2 0e 80 00 	ldub  [ %i2 ], %g1
a0003344:	83 28 60 18 	sll  %g1, 0x18, %g1
a0003348:	80 a0 60 00 	cmp  %g1, 0
a000334c:	02 80 02 e8 	be  a0003eec <_vfiprintf_r+0xccc>
a0003350:	b4 06 a0 01 	inc  %i2
a0003354:	c0 2f ba 83 	clrb  [ %fp + -1405 ]
a0003358:	ae 10 20 00 	clr  %l7
a000335c:	b0 10 20 00 	clr  %i0
a0003360:	c0 27 ba 78 	clr  [ %fp + -1416 ]
a0003364:	ac 10 3f ff 	mov  -1, %l6
a0003368:	c2 0e 80 00 	ldub  [ %i2 ], %g1
a000336c:	83 28 60 18 	sll  %g1, 0x18, %g1
a0003370:	a9 38 60 18 	sra  %g1, 0x18, %l4
a0003374:	b4 06 a0 01 	inc  %i2
a0003378:	82 05 3f e0 	add  %l4, -32, %g1
a000337c:	80 a0 60 58 	cmp  %g1, 0x58
a0003380:	18 80 01 a2 	bgu  a0003a08 <_vfiprintf_r+0x7e8>
a0003384:	1b 28 00 0c 	sethi  %hi(0xa0003000), %o5
a0003388:	83 28 60 02 	sll  %g1, 2, %g1
a000338c:	9a 13 60 7c 	or  %o5, 0x7c, %o5
a0003390:	d8 03 40 01 	ld  [ %o5 + %g1 ], %o4
a0003394:	81 c3 00 00 	jmp  %o4
a0003398:	01 00 00 00 	nop 
a000339c:	40 00 04 fc 	call  a000478c <__swsetup>
a00033a0:	90 10 00 19 	mov  %i1, %o0
a00033a4:	80 a2 20 00 	cmp  %o0, 0
a00033a8:	32 80 03 42 	bne,a   a00040b0 <_vfiprintf_r+0xe90>
a00033ac:	c2 16 60 0c 	lduh  [ %i1 + 0xc ], %g1
a00033b0:	d8 16 60 0c 	lduh  [ %i1 + 0xc ], %o4
a00033b4:	83 2b 20 10 	sll  %o4, 0x10, %g1
a00033b8:	97 30 60 10 	srl  %g1, 0x10, %o3
a00033bc:	9a 0a e0 1a 	and  %o3, 0x1a, %o5
a00033c0:	80 a3 60 0a 	cmp  %o5, 0xa
a00033c4:	12 bf ff b5 	bne  a0003298 <_vfiprintf_r+0x78>
a00033c8:	b8 07 bf a8 	add  %fp, -88, %i4
a00033cc:	c2 56 60 0e 	ldsh  [ %i1 + 0xe ], %g1
a00033d0:	80 a0 60 00 	cmp  %g1, 0
a00033d4:	06 bf ff b0 	bl  a0003294 <_vfiprintf_r+0x74>
a00033d8:	d2 16 60 0e 	lduh  [ %i1 + 0xe ], %o1
a00033dc:	80 8a e2 00 	btst  0x200, %o3
a00033e0:	02 80 02 55 	be  a0003d34 <_vfiprintf_r+0xb14>
a00033e4:	01 00 00 00 	nop 
a00033e8:	82 07 ba a8 	add  %fp, -1368, %g1
a00033ec:	9a 10 24 00 	mov  0x400, %o5
a00033f0:	98 0b 3f fd 	and  %o4, -3, %o4
a00033f4:	d6 06 60 1c 	ld  [ %i1 + 0x1c ], %o3
a00033f8:	d4 06 60 24 	ld  [ %i1 + 0x24 ], %o2
a00033fc:	a0 07 ba 98 	add  %fp, -1384, %l0
a0003400:	d8 37 be b4 	sth  %o4, [ %fp + -332 ]
a0003404:	d6 27 be c4 	st  %o3, [ %fp + -316 ]
a0003408:	d4 27 be cc 	st  %o2, [ %fp + -308 ]
a000340c:	c2 27 be b8 	st  %g1, [ %fp + -328 ]
a0003410:	da 27 be bc 	st  %o5, [ %fp + -324 ]
a0003414:	c2 27 be a8 	st  %g1, [ %fp + -344 ]
a0003418:	da 27 be b0 	st  %o5, [ %fp + -336 ]
a000341c:	d2 37 be b6 	sth  %o1, [ %fp + -330 ]
a0003420:	90 10 00 10 	mov  %l0, %o0
a0003424:	40 00 14 83 	call  a0008630 <___st_pthread_mutexattr_init>
a0003428:	c0 27 be c0 	clr  [ %fp + -320 ]
a000342c:	90 10 00 10 	mov  %l0, %o0
a0003430:	40 00 14 98 	call  a0008690 <___st_pthread_mutexattr_settype>
a0003434:	92 10 20 01 	mov  1, %o1
a0003438:	a2 07 bf 00 	add  %fp, -256, %l1
a000343c:	92 10 00 10 	mov  %l0, %o1
a0003440:	40 00 14 3f 	call  a000853c <___st_pthread_mutex_init>
a0003444:	90 10 00 11 	mov  %l1, %o0
a0003448:	40 00 14 86 	call  a0008660 <___st_pthread_mutexattr_destroy>
a000344c:	90 10 00 10 	mov  %l0, %o0
a0003450:	a0 07 be a8 	add  %fp, -344, %l0
a0003454:	d0 07 a0 44 	ld  [ %fp + 0x44 ], %o0
a0003458:	92 10 00 10 	mov  %l0, %o1
a000345c:	94 10 00 1a 	mov  %i2, %o2
a0003460:	7f ff ff 70 	call  a0003220 <_vfiprintf_r>
a0003464:	96 10 00 1b 	mov  %i3, %o3
a0003468:	b0 92 20 00 	orcc  %o0, 0, %i0
a000346c:	06 80 00 08 	bl  a000348c <_vfiprintf_r+0x26c>
a0003470:	c2 17 be b4 	lduh  [ %fp + -332 ], %g1
a0003474:	40 00 05 56 	call  a00049cc <fflush>
a0003478:	90 10 00 10 	mov  %l0, %o0
a000347c:	80 a2 20 00 	cmp  %o0, 0
a0003480:	32 80 00 02 	bne,a   a0003488 <_vfiprintf_r+0x268>
a0003484:	b0 10 3f ff 	mov  -1, %i0
a0003488:	c2 17 be b4 	lduh  [ %fp + -332 ], %g1
a000348c:	80 88 60 40 	btst  0x40, %g1
a0003490:	02 80 00 05 	be  a00034a4 <_vfiprintf_r+0x284>
a0003494:	01 00 00 00 	nop 
a0003498:	c2 16 60 0c 	lduh  [ %i1 + 0xc ], %g1
a000349c:	82 10 60 40 	or  %g1, 0x40, %g1
a00034a0:	c2 36 60 0c 	sth  %g1, [ %i1 + 0xc ]
a00034a4:	40 00 14 33 	call  a0008570 <___st_pthread_mutex_destroy>
a00034a8:	90 10 00 11 	mov  %l1, %o0
a00034ac:	10 80 03 1d 	b  a0004120 <_vfiprintf_r+0xf00>
a00034b0:	90 10 00 18 	mov  %i0, %o0
a00034b4:	90 10 00 19 	mov  %i1, %o0
a00034b8:	7f ff ff 4a 	call  a00031e0 <__sprint>
a00034bc:	92 07 bf e8 	add  %fp, -24, %o1
a00034c0:	80 a2 20 00 	cmp  %o0, 0
a00034c4:	12 80 02 95 	bne  a0003f18 <_vfiprintf_r+0xcf8>
a00034c8:	a4 10 00 1c 	mov  %i4, %l2
a00034cc:	10 bf ff 9b 	b  a0003338 <_vfiprintf_r+0x118>
a00034d0:	c2 07 ba 7c 	ld  [ %fp + -1412 ], %g1
a00034d4:	40 00 14 33 	call  a00085a0 <___st_pthread_mutex_lock>
a00034d8:	90 06 60 58 	add  %i1, 0x58, %o0
a00034dc:	10 bf ff 59 	b  a0003240 <_vfiprintf_r+0x20>
a00034e0:	03 28 00 29 	sethi  %hi(0xa000a400), %g1
a00034e4:	ae 15 e0 10 	or  %l7, 0x10, %l7
a00034e8:	80 8d e0 10 	btst  0x10, %l7
a00034ec:	12 80 02 aa 	bne  a0003f94 <_vfiprintf_r+0xd74>
a00034f0:	82 10 00 1b 	mov  %i3, %g1
a00034f4:	80 8d e0 40 	btst  0x40, %l7
a00034f8:	22 80 02 a8 	be,a   a0003f98 <_vfiprintf_r+0xd78>
a00034fc:	b6 06 e0 04 	add  %i3, 4, %i3
a0003500:	82 10 00 1b 	mov  %i3, %g1
a0003504:	b6 06 e0 04 	add  %i3, 4, %i3
a0003508:	e0 10 60 02 	lduh  [ %g1 + 2 ], %l0
a000350c:	98 10 20 01 	mov  1, %o4
a0003510:	10 80 00 1d 	b  a0003584 <_vfiprintf_r+0x364>
a0003514:	c0 2f ba 83 	clrb  [ %fp + -1405 ]
a0003518:	ae 15 e0 10 	or  %l7, 0x10, %l7
a000351c:	80 8d e0 10 	btst  0x10, %l7
a0003520:	12 80 02 a4 	bne  a0003fb0 <_vfiprintf_r+0xd90>
a0003524:	82 10 00 1b 	mov  %i3, %g1
a0003528:	80 8d e0 40 	btst  0x40, %l7
a000352c:	22 80 02 a2 	be,a   a0003fb4 <_vfiprintf_r+0xd94>
a0003530:	b6 06 e0 04 	add  %i3, 4, %i3
a0003534:	82 10 00 1b 	mov  %i3, %g1
a0003538:	b6 06 e0 04 	add  %i3, 4, %i3
a000353c:	e0 10 60 02 	lduh  [ %g1 + 2 ], %l0
a0003540:	98 10 20 00 	clr  %o4
a0003544:	10 80 00 10 	b  a0003584 <_vfiprintf_r+0x364>
a0003548:	c0 2f ba 83 	clrb  [ %fp + -1405 ]
a000354c:	ae 15 e0 10 	or  %l7, 0x10, %l7
a0003550:	80 8d e0 10 	btst  0x10, %l7
a0003554:	12 80 02 94 	bne  a0003fa4 <_vfiprintf_r+0xd84>
a0003558:	82 10 00 1b 	mov  %i3, %g1
a000355c:	80 8d e0 40 	btst  0x40, %l7
a0003560:	22 80 02 92 	be,a   a0003fa8 <_vfiprintf_r+0xd88>
a0003564:	b6 06 e0 04 	add  %i3, 4, %i3
a0003568:	82 10 00 1b 	mov  %i3, %g1
a000356c:	b6 06 e0 04 	add  %i3, 4, %i3
a0003570:	e0 50 60 02 	ldsh  [ %g1 + 2 ], %l0
a0003574:	80 a4 20 00 	cmp  %l0, 0
a0003578:	06 80 01 e8 	bl  a0003d18 <_vfiprintf_r+0xaf8>
a000357c:	82 10 20 2d 	mov  0x2d, %g1
a0003580:	98 10 20 01 	mov  1, %o4
a0003584:	b0 95 a0 00 	orcc  %l6, 0, %i0
a0003588:	36 80 00 02 	bge,a   a0003590 <_vfiprintf_r+0x370>
a000358c:	ae 0d ff 7f 	and  %l7, -129, %l7
a0003590:	80 a0 00 10 	cmp  %g0, %l0
a0003594:	9a 40 20 00 	addx  %g0, 0, %o5
a0003598:	80 a0 00 18 	cmp  %g0, %i0
a000359c:	82 40 20 00 	addx  %g0, 0, %g1
a00035a0:	80 93 40 01 	orcc  %o5, %g1, %g0
a00035a4:	02 80 02 3e 	be  a0003e9c <_vfiprintf_r+0xc7c>
a00035a8:	a6 10 00 1c 	mov  %i4, %l3
a00035ac:	82 0b 20 ff 	and  %o4, 0xff, %g1
a00035b0:	80 a0 60 01 	cmp  %g1, 1
a00035b4:	22 80 00 ef 	be,a   a0003970 <_vfiprintf_r+0x750>
a00035b8:	80 a4 20 09 	cmp  %l0, 9
a00035bc:	04 80 02 81 	ble  a0003fc0 <_vfiprintf_r+0xda0>
a00035c0:	80 a0 60 02 	cmp  %g1, 2
a00035c4:	02 80 00 f4 	be  a0003994 <_vfiprintf_r+0x774>
a00035c8:	82 0c 20 0f 	and  %l0, 0xf, %g1
a00035cc:	03 28 00 27 	sethi  %hi(0xa0009c00), %g1
a00035d0:	a6 10 61 e0 	or  %g1, 0x1e0, %l3	! a0009de0 <zeroes.1+0x10>
a00035d4:	40 00 0e 0b 	call  a0006e00 <strlen>
a00035d8:	90 10 00 13 	mov  %l3, %o0
a00035dc:	aa 10 00 08 	mov  %o0, %l5
a00035e0:	80 a5 40 18 	cmp  %l5, %i0
a00035e4:	16 80 00 03 	bge  a00035f0 <_vfiprintf_r+0x3d0>
a00035e8:	ac 10 00 15 	mov  %l5, %l6
a00035ec:	ac 10 00 18 	mov  %i0, %l6
a00035f0:	c2 4f ba 83 	ldsb  [ %fp + -1405 ], %g1
a00035f4:	80 a0 60 00 	cmp  %g1, 0
a00035f8:	02 80 01 d4 	be  a0003d48 <_vfiprintf_r+0xb28>
a00035fc:	c2 0f ba 83 	ldub  [ %fp + -1405 ], %g1
a0003600:	ac 05 a0 01 	inc  %l6
a0003604:	ba 8d e0 84 	andcc  %l7, 0x84, %i5
a0003608:	32 80 00 33 	bne,a   a00036d4 <_vfiprintf_r+0x4b4>
a000360c:	83 28 60 18 	sll  %g1, 0x18, %g1
a0003610:	da 07 ba 78 	ld  [ %fp + -1416 ], %o5
a0003614:	a0 23 40 16 	sub  %o5, %l6, %l0
a0003618:	80 a4 20 00 	cmp  %l0, 0
a000361c:	04 80 00 2d 	ble  a00036d0 <_vfiprintf_r+0x4b0>
a0003620:	80 a4 20 10 	cmp  %l0, 0x10
a0003624:	04 80 00 1d 	ble  a0003698 <_vfiprintf_r+0x478>
a0003628:	03 28 00 27 	sethi  %hi(0xa0009c00), %g1
a000362c:	10 80 00 06 	b  a0003644 <_vfiprintf_r+0x424>
a0003630:	a2 10 61 c0 	or  %g1, 0x1c0, %l1	! a0009dc0 <blanks.0>
a0003634:	a0 04 3f f0 	add  %l0, -16, %l0
a0003638:	80 a4 20 10 	cmp  %l0, 0x10
a000363c:	04 80 00 18 	ble  a000369c <_vfiprintf_r+0x47c>
a0003640:	17 28 00 27 	sethi  %hi(0xa0009c00), %o3
a0003644:	82 10 20 10 	mov  0x10, %g1
a0003648:	c2 24 a0 04 	st  %g1, [ %l2 + 4 ]
a000364c:	da 07 bf ec 	ld  [ %fp + -20 ], %o5
a0003650:	c2 07 bf f0 	ld  [ %fp + -16 ], %g1
a0003654:	9a 03 60 01 	inc  %o5
a0003658:	e2 24 80 00 	st  %l1, [ %l2 ]
a000365c:	82 00 60 10 	add  %g1, 0x10, %g1
a0003660:	c2 27 bf f0 	st  %g1, [ %fp + -16 ]
a0003664:	80 a3 60 07 	cmp  %o5, 7
a0003668:	a4 04 a0 08 	add  %l2, 8, %l2
a000366c:	04 bf ff f2 	ble  a0003634 <_vfiprintf_r+0x414>
a0003670:	da 27 bf ec 	st  %o5, [ %fp + -20 ]
a0003674:	90 10 00 19 	mov  %i1, %o0
a0003678:	7f ff fe da 	call  a00031e0 <__sprint>
a000367c:	92 07 bf e8 	add  %fp, -24, %o1
a0003680:	80 a2 20 00 	cmp  %o0, 0
a0003684:	12 80 02 25 	bne  a0003f18 <_vfiprintf_r+0xcf8>
a0003688:	a0 04 3f f0 	add  %l0, -16, %l0
a000368c:	80 a4 20 10 	cmp  %l0, 0x10
a0003690:	14 bf ff ed 	bg  a0003644 <_vfiprintf_r+0x424>
a0003694:	a4 10 00 1c 	mov  %i4, %l2
a0003698:	17 28 00 27 	sethi  %hi(0xa0009c00), %o3
a000369c:	82 12 e1 c0 	or  %o3, 0x1c0, %g1	! a0009dc0 <blanks.0>
a00036a0:	e0 24 a0 04 	st  %l0, [ %l2 + 4 ]
a00036a4:	c2 24 80 00 	st  %g1, [ %l2 ]
a00036a8:	da 07 bf f0 	ld  [ %fp + -16 ], %o5
a00036ac:	c2 07 bf ec 	ld  [ %fp + -20 ], %g1
a00036b0:	82 00 60 01 	inc  %g1
a00036b4:	9a 03 40 10 	add  %o5, %l0, %o5
a00036b8:	da 27 bf f0 	st  %o5, [ %fp + -16 ]
a00036bc:	80 a0 60 07 	cmp  %g1, 7
a00036c0:	a4 04 a0 08 	add  %l2, 8, %l2
a00036c4:	14 80 02 02 	bg  a0003ecc <_vfiprintf_r+0xcac>
a00036c8:	c2 27 bf ec 	st  %g1, [ %fp + -20 ]
a00036cc:	c2 0f ba 83 	ldub  [ %fp + -1405 ], %g1
a00036d0:	83 28 60 18 	sll  %g1, 0x18, %g1
a00036d4:	80 a0 60 00 	cmp  %g1, 0
a00036d8:	02 80 01 a1 	be  a0003d5c <_vfiprintf_r+0xb3c>
a00036dc:	80 8d e0 02 	btst  2, %l7
a00036e0:	82 10 20 01 	mov  1, %g1
a00036e4:	c2 24 a0 04 	st  %g1, [ %l2 + 4 ]
a00036e8:	d8 07 bf ec 	ld  [ %fp + -20 ], %o4
a00036ec:	c2 07 bf f0 	ld  [ %fp + -16 ], %g1
a00036f0:	9a 07 ba 83 	add  %fp, -1405, %o5
a00036f4:	98 03 20 01 	inc  %o4
a00036f8:	da 24 80 00 	st  %o5, [ %l2 ]
a00036fc:	82 00 60 01 	inc  %g1
a0003700:	c2 27 bf f0 	st  %g1, [ %fp + -16 ]
a0003704:	80 a3 20 07 	cmp  %o4, 7
a0003708:	a4 04 a0 08 	add  %l2, 8, %l2
a000370c:	14 80 01 a6 	bg  a0003da4 <_vfiprintf_r+0xb84>
a0003710:	d8 27 bf ec 	st  %o4, [ %fp + -20 ]
a0003714:	80 a7 60 80 	cmp  %i5, 0x80
a0003718:	22 80 01 ac 	be,a   a0003dc8 <_vfiprintf_r+0xba8>
a000371c:	d8 07 ba 78 	ld  [ %fp + -1416 ], %o4
a0003720:	a0 26 00 15 	sub  %i0, %l5, %l0
a0003724:	80 a4 20 00 	cmp  %l0, 0
a0003728:	04 80 00 31 	ble  a00037ec <_vfiprintf_r+0x5cc>
a000372c:	80 a4 20 10 	cmp  %l0, 0x10
a0003730:	04 80 00 1d 	ble  a00037a4 <_vfiprintf_r+0x584>
a0003734:	29 28 00 27 	sethi  %hi(0xa0009c00), %l4
a0003738:	10 80 00 06 	b  a0003750 <_vfiprintf_r+0x530>
a000373c:	a2 15 21 d0 	or  %l4, 0x1d0, %l1	! a0009dd0 <zeroes.1>
a0003740:	a0 04 3f f0 	add  %l0, -16, %l0
a0003744:	80 a4 20 10 	cmp  %l0, 0x10
a0003748:	04 80 00 18 	ble  a00037a8 <_vfiprintf_r+0x588>
a000374c:	82 15 21 d0 	or  %l4, 0x1d0, %g1
a0003750:	82 10 20 10 	mov  0x10, %g1
a0003754:	c2 24 a0 04 	st  %g1, [ %l2 + 4 ]
a0003758:	da 07 bf ec 	ld  [ %fp + -20 ], %o5
a000375c:	c2 07 bf f0 	ld  [ %fp + -16 ], %g1
a0003760:	9a 03 60 01 	inc  %o5
a0003764:	e2 24 80 00 	st  %l1, [ %l2 ]
a0003768:	82 00 60 10 	add  %g1, 0x10, %g1
a000376c:	c2 27 bf f0 	st  %g1, [ %fp + -16 ]
a0003770:	80 a3 60 07 	cmp  %o5, 7
a0003774:	a4 04 a0 08 	add  %l2, 8, %l2
a0003778:	04 bf ff f2 	ble  a0003740 <_vfiprintf_r+0x520>
a000377c:	da 27 bf ec 	st  %o5, [ %fp + -20 ]
a0003780:	90 10 00 19 	mov  %i1, %o0
a0003784:	7f ff fe 97 	call  a00031e0 <__sprint>
a0003788:	92 07 bf e8 	add  %fp, -24, %o1
a000378c:	80 a2 20 00 	cmp  %o0, 0
a0003790:	12 80 01 e2 	bne  a0003f18 <_vfiprintf_r+0xcf8>
a0003794:	a0 04 3f f0 	add  %l0, -16, %l0
a0003798:	80 a4 20 10 	cmp  %l0, 0x10
a000379c:	14 bf ff ed 	bg  a0003750 <_vfiprintf_r+0x530>
a00037a0:	a4 10 00 1c 	mov  %i4, %l2
a00037a4:	82 15 21 d0 	or  %l4, 0x1d0, %g1
a00037a8:	e0 24 a0 04 	st  %l0, [ %l2 + 4 ]
a00037ac:	c2 24 80 00 	st  %g1, [ %l2 ]
a00037b0:	da 07 bf f0 	ld  [ %fp + -16 ], %o5
a00037b4:	c2 07 bf ec 	ld  [ %fp + -20 ], %g1
a00037b8:	82 00 60 01 	inc  %g1
a00037bc:	9a 03 40 10 	add  %o5, %l0, %o5
a00037c0:	da 27 bf f0 	st  %o5, [ %fp + -16 ]
a00037c4:	80 a0 60 07 	cmp  %g1, 7
a00037c8:	a4 04 a0 08 	add  %l2, 8, %l2
a00037cc:	04 80 00 08 	ble  a00037ec <_vfiprintf_r+0x5cc>
a00037d0:	c2 27 bf ec 	st  %g1, [ %fp + -20 ]
a00037d4:	90 10 00 19 	mov  %i1, %o0
a00037d8:	7f ff fe 82 	call  a00031e0 <__sprint>
a00037dc:	92 07 bf e8 	add  %fp, -24, %o1
a00037e0:	80 a2 20 00 	cmp  %o0, 0
a00037e4:	12 80 01 cd 	bne  a0003f18 <_vfiprintf_r+0xcf8>
a00037e8:	a4 10 00 1c 	mov  %i4, %l2
a00037ec:	ea 24 a0 04 	st  %l5, [ %l2 + 4 ]
a00037f0:	c2 07 bf f0 	ld  [ %fp + -16 ], %g1
a00037f4:	da 07 bf ec 	ld  [ %fp + -20 ], %o5
a00037f8:	9a 03 60 01 	inc  %o5
a00037fc:	e6 24 80 00 	st  %l3, [ %l2 ]
a0003800:	82 00 40 15 	add  %g1, %l5, %g1
a0003804:	c2 27 bf f0 	st  %g1, [ %fp + -16 ]
a0003808:	80 a3 60 07 	cmp  %o5, 7
a000380c:	a4 04 a0 08 	add  %l2, 8, %l2
a0003810:	14 80 01 d1 	bg  a0003f54 <_vfiprintf_r+0xd34>
a0003814:	da 27 bf ec 	st  %o5, [ %fp + -20 ]
a0003818:	80 8d e0 04 	btst  4, %l7
a000381c:	02 80 00 37 	be  a00038f8 <_vfiprintf_r+0x6d8>
a0003820:	d8 07 ba 78 	ld  [ %fp + -1416 ], %o4
a0003824:	da 07 ba 78 	ld  [ %fp + -1416 ], %o5
a0003828:	a0 23 40 16 	sub  %o5, %l6, %l0
a000382c:	80 a4 20 00 	cmp  %l0, 0
a0003830:	04 80 00 32 	ble  a00038f8 <_vfiprintf_r+0x6d8>
a0003834:	80 a4 20 10 	cmp  %l0, 0x10
a0003838:	04 80 00 1d 	ble  a00038ac <_vfiprintf_r+0x68c>
a000383c:	03 28 00 27 	sethi  %hi(0xa0009c00), %g1
a0003840:	10 80 00 06 	b  a0003858 <_vfiprintf_r+0x638>
a0003844:	a2 10 61 c0 	or  %g1, 0x1c0, %l1	! a0009dc0 <blanks.0>
a0003848:	a0 04 3f f0 	add  %l0, -16, %l0
a000384c:	80 a4 20 10 	cmp  %l0, 0x10
a0003850:	24 80 00 18 	ble,a   a00038b0 <_vfiprintf_r+0x690>
a0003854:	e0 24 a0 04 	st  %l0, [ %l2 + 4 ]
a0003858:	82 10 20 10 	mov  0x10, %g1
a000385c:	c2 24 a0 04 	st  %g1, [ %l2 + 4 ]
a0003860:	da 07 bf ec 	ld  [ %fp + -20 ], %o5
a0003864:	c2 07 bf f0 	ld  [ %fp + -16 ], %g1
a0003868:	9a 03 60 01 	inc  %o5
a000386c:	e2 24 80 00 	st  %l1, [ %l2 ]
a0003870:	82 00 60 10 	add  %g1, 0x10, %g1
a0003874:	c2 27 bf f0 	st  %g1, [ %fp + -16 ]
a0003878:	80 a3 60 07 	cmp  %o5, 7
a000387c:	a4 04 a0 08 	add  %l2, 8, %l2
a0003880:	04 bf ff f2 	ble  a0003848 <_vfiprintf_r+0x628>
a0003884:	da 27 bf ec 	st  %o5, [ %fp + -20 ]
a0003888:	90 10 00 19 	mov  %i1, %o0
a000388c:	7f ff fe 55 	call  a00031e0 <__sprint>
a0003890:	92 07 bf e8 	add  %fp, -24, %o1
a0003894:	80 a2 20 00 	cmp  %o0, 0
a0003898:	12 80 01 a0 	bne  a0003f18 <_vfiprintf_r+0xcf8>
a000389c:	a0 04 3f f0 	add  %l0, -16, %l0
a00038a0:	80 a4 20 10 	cmp  %l0, 0x10
a00038a4:	14 bf ff ed 	bg  a0003858 <_vfiprintf_r+0x638>
a00038a8:	a4 10 00 1c 	mov  %i4, %l2
a00038ac:	e0 24 a0 04 	st  %l0, [ %l2 + 4 ]
a00038b0:	d8 07 bf f0 	ld  [ %fp + -16 ], %o4
a00038b4:	da 07 bf ec 	ld  [ %fp + -20 ], %o5
a00038b8:	17 28 00 27 	sethi  %hi(0xa0009c00), %o3
a00038bc:	9a 03 60 01 	inc  %o5
a00038c0:	98 03 00 10 	add  %o4, %l0, %o4
a00038c4:	82 12 e1 c0 	or  %o3, 0x1c0, %g1
a00038c8:	c2 24 80 00 	st  %g1, [ %l2 ]
a00038cc:	d8 27 bf f0 	st  %o4, [ %fp + -16 ]
a00038d0:	80 a3 60 07 	cmp  %o5, 7
a00038d4:	04 80 00 08 	ble  a00038f4 <_vfiprintf_r+0x6d4>
a00038d8:	da 27 bf ec 	st  %o5, [ %fp + -20 ]
a00038dc:	90 10 00 19 	mov  %i1, %o0
a00038e0:	7f ff fe 40 	call  a00031e0 <__sprint>
a00038e4:	92 07 bf e8 	add  %fp, -24, %o1
a00038e8:	80 a2 20 00 	cmp  %o0, 0
a00038ec:	12 80 01 8c 	bne  a0003f1c <_vfiprintf_r+0xcfc>
a00038f0:	d6 07 ba 70 	ld  [ %fp + -1424 ], %o3
a00038f4:	d8 07 ba 78 	ld  [ %fp + -1416 ], %o4
a00038f8:	80 a5 80 0c 	cmp  %l6, %o4
a00038fc:	16 80 00 03 	bge  a0003908 <_vfiprintf_r+0x6e8>
a0003900:	82 10 00 16 	mov  %l6, %g1
a0003904:	82 10 00 0c 	mov  %o4, %g1
a0003908:	da 07 ba 7c 	ld  [ %fp + -1412 ], %o5
a000390c:	9a 03 40 01 	add  %o5, %g1, %o5
a0003910:	c2 07 bf f0 	ld  [ %fp + -16 ], %g1
a0003914:	80 a0 60 00 	cmp  %g1, 0
a0003918:	12 80 01 97 	bne  a0003f74 <_vfiprintf_r+0xd54>
a000391c:	da 27 ba 7c 	st  %o5, [ %fp + -1412 ]
a0003920:	c2 07 ba 70 	ld  [ %fp + -1424 ], %g1
a0003924:	c0 27 bf ec 	clr  [ %fp + -20 ]
a0003928:	80 a0 60 00 	cmp  %g1, 0
a000392c:	02 bf fe 60 	be  a00032ac <_vfiprintf_r+0x8c>
a0003930:	a4 10 00 1c 	mov  %i4, %l2
a0003934:	92 10 00 01 	mov  %g1, %o1
a0003938:	40 00 05 95 	call  a0004f8c <_free_r>
a000393c:	d0 07 a0 44 	ld  [ %fp + 0x44 ], %o0
a0003940:	10 bf fe 5b 	b  a00032ac <_vfiprintf_r+0x8c>
a0003944:	c0 27 ba 70 	clr  [ %fp + -1424 ]
a0003948:	40 00 0f 5b 	call  a00076b4 <.urem>
a000394c:	92 10 20 0a 	mov  0xa, %o1
a0003950:	90 02 20 30 	add  %o0, 0x30, %o0
a0003954:	a6 04 ff ff 	add  %l3, -1, %l3
a0003958:	d0 2c c0 00 	stb  %o0, [ %l3 ]
a000395c:	90 10 00 10 	mov  %l0, %o0
a0003960:	40 00 0e a9 	call  a0007404 <.udiv>
a0003964:	92 10 20 0a 	mov  0xa, %o1
a0003968:	a0 10 00 08 	mov  %o0, %l0
a000396c:	80 a4 20 09 	cmp  %l0, 9
a0003970:	18 bf ff f6 	bgu  a0003948 <_vfiprintf_r+0x728>
a0003974:	90 10 00 10 	mov  %l0, %o0
a0003978:	a6 04 ff ff 	add  %l3, -1, %l3
a000397c:	82 04 20 30 	add  %l0, 0x30, %g1
a0003980:	c2 2c c0 00 	stb  %g1, [ %l3 ]
a0003984:	82 27 80 13 	sub  %fp, %l3, %g1
a0003988:	10 bf ff 16 	b  a00035e0 <_vfiprintf_r+0x3c0>
a000398c:	aa 00 7f a8 	add  %g1, -88, %l5
a0003990:	82 0c 20 0f 	and  %l0, 0xf, %g1
a0003994:	d8 07 ba 74 	ld  [ %fp + -1420 ], %o4
a0003998:	a6 04 ff ff 	add  %l3, -1, %l3
a000399c:	da 08 40 0c 	ldub  [ %g1 + %o4 ], %o5
a00039a0:	a1 34 20 04 	srl  %l0, 4, %l0
a00039a4:	80 a4 20 00 	cmp  %l0, 0
a00039a8:	02 bf ff f7 	be  a0003984 <_vfiprintf_r+0x764>
a00039ac:	da 2c c0 00 	stb  %o5, [ %l3 ]
a00039b0:	82 0c 20 0f 	and  %l0, 0xf, %g1
a00039b4:	d8 07 ba 74 	ld  [ %fp + -1420 ], %o4
a00039b8:	a6 04 ff ff 	add  %l3, -1, %l3
a00039bc:	da 08 40 0c 	ldub  [ %g1 + %o4 ], %o5
a00039c0:	a1 34 20 04 	srl  %l0, 4, %l0
a00039c4:	80 a4 20 00 	cmp  %l0, 0
a00039c8:	12 bf ff f2 	bne  a0003990 <_vfiprintf_r+0x770>
a00039cc:	da 2c c0 00 	stb  %o5, [ %l3 ]
a00039d0:	10 bf ff ee 	b  a0003988 <_vfiprintf_r+0x768>
a00039d4:	82 27 80 13 	sub  %fp, %l3, %g1
a00039d8:	c2 06 c0 00 	ld  [ %i3 ], %g1
a00039dc:	c2 27 ba 78 	st  %g1, [ %fp + -1416 ]
a00039e0:	80 a0 60 00 	cmp  %g1, 0
a00039e4:	16 bf fe 61 	bge  a0003368 <_vfiprintf_r+0x148>
a00039e8:	b6 06 e0 04 	add  %i3, 4, %i3
a00039ec:	82 20 00 01 	neg  %g1
a00039f0:	c2 27 ba 78 	st  %g1, [ %fp + -1416 ]
a00039f4:	10 bf fe 5d 	b  a0003368 <_vfiprintf_r+0x148>
a00039f8:	ae 15 e0 04 	or  %l7, 4, %l7
a00039fc:	b4 06 a0 01 	inc  %i2
a0003a00:	10 bf fe 5a 	b  a0003368 <_vfiprintf_r+0x148>
a0003a04:	ae 15 e0 10 	or  %l7, 0x10, %l7
a0003a08:	80 a5 20 00 	cmp  %l4, 0
a0003a0c:	02 80 01 38 	be  a0003eec <_vfiprintf_r+0xccc>
a0003a10:	a6 07 bf 80 	add  %fp, -128, %l3
a0003a14:	e8 2f bf 80 	stb  %l4, [ %fp + -128 ]
a0003a18:	c0 2f ba 83 	clrb  [ %fp + -1405 ]
a0003a1c:	10 bf fe f1 	b  a00035e0 <_vfiprintf_r+0x3c0>
a0003a20:	aa 10 20 01 	mov  1, %l5
a0003a24:	03 28 00 27 	sethi  %hi(0xa0009c00), %g1
a0003a28:	82 10 62 00 	or  %g1, 0x200, %g1	! a0009e00 <zeroes.1+0x30>
a0003a2c:	80 8d e0 10 	btst  0x10, %l7
a0003a30:	12 80 00 51 	bne  a0003b74 <_vfiprintf_r+0x954>
a0003a34:	c2 27 ba 74 	st  %g1, [ %fp + -1420 ]
a0003a38:	80 8d e0 40 	btst  0x40, %l7
a0003a3c:	02 80 00 4f 	be  a0003b78 <_vfiprintf_r+0x958>
a0003a40:	82 10 00 1b 	mov  %i3, %g1
a0003a44:	b6 06 e0 04 	add  %i3, 4, %i3
a0003a48:	e0 10 60 02 	lduh  [ %g1 + 2 ], %l0
a0003a4c:	80 a0 00 10 	cmp  %g0, %l0
a0003a50:	82 40 20 00 	addx  %g0, 0, %g1
a0003a54:	80 8d c0 01 	btst  %l7, %g1
a0003a58:	02 bf fe ae 	be  a0003510 <_vfiprintf_r+0x2f0>
a0003a5c:	98 10 20 02 	mov  2, %o4
a0003a60:	ae 15 e0 02 	or  %l7, 2, %l7
a0003a64:	10 bf fe c8 	b  a0003584 <_vfiprintf_r+0x364>
a0003a68:	c0 2f ba 83 	clrb  [ %fp + -1405 ]
a0003a6c:	a0 10 20 00 	clr  %l0
a0003a70:	83 2c 20 02 	sll  %l0, 2, %g1
a0003a74:	82 00 40 10 	add  %g1, %l0, %g1
a0003a78:	82 00 40 01 	add  %g1, %g1, %g1
a0003a7c:	82 00 40 14 	add  %g1, %l4, %g1
a0003a80:	e8 4e 80 00 	ldsb  [ %i2 ], %l4
a0003a84:	9a 05 3f d0 	add  %l4, -48, %o5
a0003a88:	80 a3 60 09 	cmp  %o5, 9
a0003a8c:	a0 00 7f d0 	add  %g1, -48, %l0
a0003a90:	08 bf ff f8 	bleu  a0003a70 <_vfiprintf_r+0x850>
a0003a94:	b4 06 a0 01 	inc  %i2
a0003a98:	10 bf fe 38 	b  a0003378 <_vfiprintf_r+0x158>
a0003a9c:	e0 27 ba 78 	st  %l0, [ %fp + -1416 ]
a0003aa0:	10 bf fe 32 	b  a0003368 <_vfiprintf_r+0x148>
a0003aa4:	ae 15 e0 80 	or  %l7, 0x80, %l7
a0003aa8:	82 10 20 2b 	mov  0x2b, %g1
a0003aac:	10 bf fe 2f 	b  a0003368 <_vfiprintf_r+0x148>
a0003ab0:	c2 2f ba 83 	stb  %g1, [ %fp + -1405 ]
a0003ab4:	10 bf fe 2d 	b  a0003368 <_vfiprintf_r+0x148>
a0003ab8:	ae 15 e0 01 	or  %l7, 1, %l7
a0003abc:	c2 4f ba 83 	ldsb  [ %fp + -1405 ], %g1
a0003ac0:	80 a0 60 00 	cmp  %g1, 0
a0003ac4:	32 bf fe 2a 	bne,a   a000336c <_vfiprintf_r+0x14c>
a0003ac8:	c2 0e 80 00 	ldub  [ %i2 ], %g1
a0003acc:	82 10 20 20 	mov  0x20, %g1
a0003ad0:	10 bf fe 26 	b  a0003368 <_vfiprintf_r+0x148>
a0003ad4:	c2 2f ba 83 	stb  %g1, [ %fp + -1405 ]
a0003ad8:	e8 4e 80 00 	ldsb  [ %i2 ], %l4
a0003adc:	80 a5 20 2a 	cmp  %l4, 0x2a
a0003ae0:	02 80 01 86 	be  a00040f8 <_vfiprintf_r+0xed8>
a0003ae4:	b4 06 a0 01 	inc  %i2
a0003ae8:	82 05 3f d0 	add  %l4, -48, %g1
a0003aec:	80 a0 60 09 	cmp  %g1, 9
a0003af0:	18 80 00 0c 	bgu  a0003b20 <_vfiprintf_r+0x900>
a0003af4:	a0 10 20 00 	clr  %l0
a0003af8:	83 2c 20 02 	sll  %l0, 2, %g1
a0003afc:	82 00 40 10 	add  %g1, %l0, %g1
a0003b00:	82 00 40 01 	add  %g1, %g1, %g1
a0003b04:	82 00 40 14 	add  %g1, %l4, %g1
a0003b08:	e8 4e 80 00 	ldsb  [ %i2 ], %l4
a0003b0c:	9a 05 3f d0 	add  %l4, -48, %o5
a0003b10:	80 a3 60 09 	cmp  %o5, 9
a0003b14:	a0 00 7f d0 	add  %g1, -48, %l0
a0003b18:	08 bf ff f8 	bleu  a0003af8 <_vfiprintf_r+0x8d8>
a0003b1c:	b4 06 a0 01 	inc  %i2
a0003b20:	80 a4 3f ff 	cmp  %l0, -1
a0003b24:	16 bf fe 15 	bge  a0003378 <_vfiprintf_r+0x158>
a0003b28:	ac 10 00 10 	mov  %l0, %l6
a0003b2c:	10 bf fe 13 	b  a0003378 <_vfiprintf_r+0x158>
a0003b30:	ac 10 3f ff 	mov  -1, %l6
a0003b34:	9a 10 00 1b 	mov  %i3, %o5
a0003b38:	03 28 00 27 	sethi  %hi(0xa0009c00), %g1
a0003b3c:	e0 03 40 00 	ld  [ %o5 ], %l0
a0003b40:	82 10 62 00 	or  %g1, 0x200, %g1
a0003b44:	b6 06 e0 04 	add  %i3, 4, %i3
a0003b48:	c2 27 ba 74 	st  %g1, [ %fp + -1420 ]
a0003b4c:	ae 15 e0 02 	or  %l7, 2, %l7
a0003b50:	98 10 20 02 	mov  2, %o4
a0003b54:	a8 10 20 78 	mov  0x78, %l4
a0003b58:	10 bf fe 8b 	b  a0003584 <_vfiprintf_r+0x364>
a0003b5c:	c0 2f ba 83 	clrb  [ %fp + -1405 ]
a0003b60:	03 28 00 27 	sethi  %hi(0xa0009c00), %g1
a0003b64:	82 10 62 18 	or  %g1, 0x218, %g1	! a0009e18 <zeroes.1+0x48>
a0003b68:	80 8d e0 10 	btst  0x10, %l7
a0003b6c:	02 bf ff b3 	be  a0003a38 <_vfiprintf_r+0x818>
a0003b70:	c2 27 ba 74 	st  %g1, [ %fp + -1420 ]
a0003b74:	82 10 00 1b 	mov  %i3, %g1
a0003b78:	b6 06 e0 04 	add  %i3, 4, %i3
a0003b7c:	10 bf ff b4 	b  a0003a4c <_vfiprintf_r+0x82c>
a0003b80:	e0 00 40 00 	ld  [ %g1 ], %l0
a0003b84:	10 bf fd f9 	b  a0003368 <_vfiprintf_r+0x148>
a0003b88:	ae 15 e0 40 	or  %l7, 0x40, %l7
a0003b8c:	80 a5 20 43 	cmp  %l4, 0x43
a0003b90:	02 80 00 05 	be  a0003ba4 <_vfiprintf_r+0x984>
a0003b94:	a6 07 bf 80 	add  %fp, -128, %l3
a0003b98:	80 8d e0 10 	btst  0x10, %l7
a0003b9c:	22 80 01 26 	be,a   a0004034 <_vfiprintf_r+0xe14>
a0003ba0:	da 06 c0 00 	ld  [ %i3 ], %o5
a0003ba4:	a0 07 ba 90 	add  %fp, -1392, %l0
a0003ba8:	92 10 20 00 	clr  %o1
a0003bac:	94 10 20 08 	mov  8, %o2
a0003bb0:	40 00 09 ea 	call  a0006358 <memset>
a0003bb4:	90 10 00 10 	mov  %l0, %o0
a0003bb8:	d4 06 c0 00 	ld  [ %i3 ], %o2
a0003bbc:	96 10 00 10 	mov  %l0, %o3
a0003bc0:	d0 07 a0 44 	ld  [ %fp + 0x44 ], %o0
a0003bc4:	40 00 01 64 	call  a0004154 <_wcrtomb_r>
a0003bc8:	92 10 00 13 	mov  %l3, %o1
a0003bcc:	aa 10 00 08 	mov  %o0, %l5
a0003bd0:	80 a2 3f ff 	cmp  %o0, -1
a0003bd4:	02 80 01 33 	be  a00040a0 <_vfiprintf_r+0xe80>
a0003bd8:	b6 06 e0 04 	add  %i3, 4, %i3
a0003bdc:	10 bf fe 81 	b  a00035e0 <_vfiprintf_r+0x3c0>
a0003be0:	c0 2f ba 83 	clrb  [ %fp + -1405 ]
a0003be4:	c2 4e 80 00 	ldsb  [ %i2 ], %g1
a0003be8:	80 a0 60 6c 	cmp  %g1, 0x6c
a0003bec:	02 bf ff 84 	be  a00039fc <_vfiprintf_r+0x7dc>
a0003bf0:	c2 0e 80 00 	ldub  [ %i2 ], %g1
a0003bf4:	10 bf fd de 	b  a000336c <_vfiprintf_r+0x14c>
a0003bf8:	ae 15 e0 10 	or  %l7, 0x10, %l7
a0003bfc:	e6 06 c0 00 	ld  [ %i3 ], %l3
a0003c00:	c0 2f ba 83 	clrb  [ %fp + -1405 ]
a0003c04:	80 a4 e0 00 	cmp  %l3, 0
a0003c08:	02 80 01 22 	be  a0004090 <_vfiprintf_r+0xe70>
a0003c0c:	b6 06 e0 04 	add  %i3, 4, %i3
a0003c10:	80 a5 20 53 	cmp  %l4, 0x53
a0003c14:	02 80 00 04 	be  a0003c24 <_vfiprintf_r+0xa04>
a0003c18:	80 8d e0 10 	btst  0x10, %l7
a0003c1c:	02 80 01 0b 	be  a0004048 <_vfiprintf_r+0xe28>
a0003c20:	80 a5 a0 00 	cmp  %l6, 0
a0003c24:	ba 07 ba 88 	add  %fp, -1400, %i5
a0003c28:	e6 27 ba 84 	st  %l3, [ %fp + -1404 ]
a0003c2c:	90 10 00 1d 	mov  %i5, %o0
a0003c30:	92 10 20 00 	clr  %o1
a0003c34:	40 00 09 c9 	call  a0006358 <memset>
a0003c38:	94 10 20 08 	mov  8, %o2
a0003c3c:	80 a5 a0 00 	cmp  %l6, 0
a0003c40:	a2 10 20 00 	clr  %l1
a0003c44:	06 80 01 22 	bl  a00040cc <_vfiprintf_r+0xeac>
a0003c48:	aa 10 20 00 	clr  %l5
a0003c4c:	9b 2c 60 02 	sll  %l1, 2, %o5
a0003c50:	c2 07 ba 84 	ld  [ %fp + -1404 ], %g1
a0003c54:	d4 00 40 0d 	ld  [ %g1 + %o5 ], %o2
a0003c58:	80 a2 a0 00 	cmp  %o2, 0
a0003c5c:	02 80 00 0e 	be  a0003c94 <_vfiprintf_r+0xa74>
a0003c60:	d0 07 a0 44 	ld  [ %fp + 0x44 ], %o0
a0003c64:	92 07 bf 80 	add  %fp, -128, %o1
a0003c68:	40 00 01 3b 	call  a0004154 <_wcrtomb_r>
a0003c6c:	96 10 00 1d 	mov  %i5, %o3
a0003c70:	80 a2 3f ff 	cmp  %o0, -1
a0003c74:	02 80 01 0b 	be  a00040a0 <_vfiprintf_r+0xe80>
a0003c78:	82 02 00 15 	add  %o0, %l5, %g1
a0003c7c:	80 a0 40 16 	cmp  %g1, %l6
a0003c80:	34 80 00 06 	bg,a   a0003c98 <_vfiprintf_r+0xa78>
a0003c84:	80 a5 60 00 	cmp  %l5, 0
a0003c88:	aa 10 00 01 	mov  %g1, %l5
a0003c8c:	12 bf ff f0 	bne  a0003c4c <_vfiprintf_r+0xa2c>
a0003c90:	a2 04 60 01 	inc  %l1
a0003c94:	80 a5 60 00 	cmp  %l5, 0
a0003c98:	02 bf fe 53 	be  a00035e4 <_vfiprintf_r+0x3c4>
a0003c9c:	80 a5 40 18 	cmp  %l5, %i0
a0003ca0:	d0 07 a0 44 	ld  [ %fp + 0x44 ], %o0
a0003ca4:	40 00 07 6f 	call  a0005a60 <_malloc_r>
a0003ca8:	92 05 60 01 	add  %l5, 1, %o1
a0003cac:	80 a2 20 00 	cmp  %o0, 0
a0003cb0:	02 80 01 18 	be  a0004110 <_vfiprintf_r+0xef0>
a0003cb4:	d0 27 ba 70 	st  %o0, [ %fp + -1424 ]
a0003cb8:	92 10 20 00 	clr  %o1
a0003cbc:	94 10 20 08 	mov  8, %o2
a0003cc0:	40 00 09 a6 	call  a0006358 <memset>
a0003cc4:	90 10 00 1d 	mov  %i5, %o0
a0003cc8:	d0 07 a0 44 	ld  [ %fp + 0x44 ], %o0
a0003ccc:	d2 07 ba 70 	ld  [ %fp + -1424 ], %o1
a0003cd0:	98 10 00 1d 	mov  %i5, %o4
a0003cd4:	94 07 ba 84 	add  %fp, -1404, %o2
a0003cd8:	40 00 01 3e 	call  a00041d0 <_wcsrtombs_r>
a0003cdc:	96 10 00 15 	mov  %l5, %o3
a0003ce0:	80 a2 00 15 	cmp  %o0, %l5
a0003ce4:	12 80 00 ef 	bne  a00040a0 <_vfiprintf_r+0xe80>
a0003ce8:	d6 07 ba 70 	ld  [ %fp + -1424 ], %o3
a0003cec:	c0 2a c0 15 	clrb  [ %o3 + %l5 ]
a0003cf0:	10 bf fe 3c 	b  a00035e0 <_vfiprintf_r+0x3c0>
a0003cf4:	e6 07 ba 70 	ld  [ %fp + -1424 ], %l3
a0003cf8:	80 8d e0 10 	btst  0x10, %l7
a0003cfc:	02 80 00 c8 	be  a000401c <_vfiprintf_r+0xdfc>
a0003d00:	80 8d e0 40 	btst  0x40, %l7
a0003d04:	da 06 c0 00 	ld  [ %i3 ], %o5
a0003d08:	d6 07 ba 7c 	ld  [ %fp + -1412 ], %o3
a0003d0c:	d6 23 40 00 	st  %o3, [ %o5 ]
a0003d10:	10 bf fd 67 	b  a00032ac <_vfiprintf_r+0x8c>
a0003d14:	b6 06 e0 04 	add  %i3, 4, %i3
a0003d18:	c2 2f ba 83 	stb  %g1, [ %fp + -1405 ]
a0003d1c:	10 bf fe 19 	b  a0003580 <_vfiprintf_r+0x360>
a0003d20:	a0 20 00 10 	neg  %l0
a0003d24:	40 00 03 c0 	call  a0004c24 <__sinit>
a0003d28:	01 00 00 00 	nop 
a0003d2c:	10 bf fd 4e 	b  a0003264 <_vfiprintf_r+0x44>
a0003d30:	c2 16 60 0c 	lduh  [ %i1 + 0xc ], %g1
a0003d34:	40 00 12 33 	call  a0008600 <___st_pthread_mutex_unlock>
a0003d38:	90 06 60 58 	add  %i1, 0x58, %o0
a0003d3c:	d8 16 60 0c 	lduh  [ %i1 + 0xc ], %o4
a0003d40:	10 bf fd aa 	b  a00033e8 <_vfiprintf_r+0x1c8>
a0003d44:	d2 16 60 0e 	lduh  [ %i1 + 0xe ], %o1
a0003d48:	80 8d e0 02 	btst  2, %l7
a0003d4c:	32 bf fe 2e 	bne,a   a0003604 <_vfiprintf_r+0x3e4>
a0003d50:	ac 05 a0 02 	add  %l6, 2, %l6
a0003d54:	10 bf fe 2d 	b  a0003608 <_vfiprintf_r+0x3e8>
a0003d58:	ba 8d e0 84 	andcc  %l7, 0x84, %i5
a0003d5c:	02 bf fe 6f 	be  a0003718 <_vfiprintf_r+0x4f8>
a0003d60:	80 a7 60 80 	cmp  %i5, 0x80
a0003d64:	82 10 20 30 	mov  0x30, %g1
a0003d68:	c2 2f bf 78 	stb  %g1, [ %fp + -136 ]
a0003d6c:	e8 2f bf 79 	stb  %l4, [ %fp + -135 ]
a0003d70:	82 10 20 02 	mov  2, %g1
a0003d74:	c2 24 a0 04 	st  %g1, [ %l2 + 4 ]
a0003d78:	d8 07 bf ec 	ld  [ %fp + -20 ], %o4
a0003d7c:	c2 07 bf f0 	ld  [ %fp + -16 ], %g1
a0003d80:	9a 07 bf 78 	add  %fp, -136, %o5
a0003d84:	98 03 20 01 	inc  %o4
a0003d88:	da 24 80 00 	st  %o5, [ %l2 ]
a0003d8c:	82 00 60 02 	add  %g1, 2, %g1
a0003d90:	c2 27 bf f0 	st  %g1, [ %fp + -16 ]
a0003d94:	80 a3 20 07 	cmp  %o4, 7
a0003d98:	a4 04 a0 08 	add  %l2, 8, %l2
a0003d9c:	04 bf fe 5e 	ble  a0003714 <_vfiprintf_r+0x4f4>
a0003da0:	d8 27 bf ec 	st  %o4, [ %fp + -20 ]
a0003da4:	90 10 00 19 	mov  %i1, %o0
a0003da8:	7f ff fd 0e 	call  a00031e0 <__sprint>
a0003dac:	92 07 bf e8 	add  %fp, -24, %o1
a0003db0:	80 a2 20 00 	cmp  %o0, 0
a0003db4:	12 80 00 59 	bne  a0003f18 <_vfiprintf_r+0xcf8>
a0003db8:	80 a7 60 80 	cmp  %i5, 0x80
a0003dbc:	12 bf fe 59 	bne  a0003720 <_vfiprintf_r+0x500>
a0003dc0:	a4 10 00 1c 	mov  %i4, %l2
a0003dc4:	d8 07 ba 78 	ld  [ %fp + -1416 ], %o4
a0003dc8:	a0 23 00 16 	sub  %o4, %l6, %l0
a0003dcc:	80 a4 20 00 	cmp  %l0, 0
a0003dd0:	04 bf fe 54 	ble  a0003720 <_vfiprintf_r+0x500>
a0003dd4:	80 a4 20 10 	cmp  %l0, 0x10
a0003dd8:	04 80 00 1d 	ble  a0003e4c <_vfiprintf_r+0xc2c>
a0003ddc:	29 28 00 27 	sethi  %hi(0xa0009c00), %l4
a0003de0:	10 80 00 06 	b  a0003df8 <_vfiprintf_r+0xbd8>
a0003de4:	a2 15 21 d0 	or  %l4, 0x1d0, %l1	! a0009dd0 <zeroes.1>
a0003de8:	a0 04 3f f0 	add  %l0, -16, %l0
a0003dec:	80 a4 20 10 	cmp  %l0, 0x10
a0003df0:	04 80 00 18 	ble  a0003e50 <_vfiprintf_r+0xc30>
a0003df4:	82 15 21 d0 	or  %l4, 0x1d0, %g1
a0003df8:	82 10 20 10 	mov  0x10, %g1
a0003dfc:	c2 24 a0 04 	st  %g1, [ %l2 + 4 ]
a0003e00:	da 07 bf ec 	ld  [ %fp + -20 ], %o5
a0003e04:	c2 07 bf f0 	ld  [ %fp + -16 ], %g1
a0003e08:	9a 03 60 01 	inc  %o5
a0003e0c:	e2 24 80 00 	st  %l1, [ %l2 ]
a0003e10:	82 00 60 10 	add  %g1, 0x10, %g1
a0003e14:	c2 27 bf f0 	st  %g1, [ %fp + -16 ]
a0003e18:	80 a3 60 07 	cmp  %o5, 7
a0003e1c:	a4 04 a0 08 	add  %l2, 8, %l2
a0003e20:	04 bf ff f2 	ble  a0003de8 <_vfiprintf_r+0xbc8>
a0003e24:	da 27 bf ec 	st  %o5, [ %fp + -20 ]
a0003e28:	90 10 00 19 	mov  %i1, %o0
a0003e2c:	7f ff fc ed 	call  a00031e0 <__sprint>
a0003e30:	92 07 bf e8 	add  %fp, -24, %o1
a0003e34:	80 a2 20 00 	cmp  %o0, 0
a0003e38:	12 80 00 38 	bne  a0003f18 <_vfiprintf_r+0xcf8>
a0003e3c:	a0 04 3f f0 	add  %l0, -16, %l0
a0003e40:	80 a4 20 10 	cmp  %l0, 0x10
a0003e44:	14 bf ff ed 	bg  a0003df8 <_vfiprintf_r+0xbd8>
a0003e48:	a4 10 00 1c 	mov  %i4, %l2
a0003e4c:	82 15 21 d0 	or  %l4, 0x1d0, %g1
a0003e50:	e0 24 a0 04 	st  %l0, [ %l2 + 4 ]
a0003e54:	c2 24 80 00 	st  %g1, [ %l2 ]
a0003e58:	da 07 bf f0 	ld  [ %fp + -16 ], %o5
a0003e5c:	c2 07 bf ec 	ld  [ %fp + -20 ], %g1
a0003e60:	82 00 60 01 	inc  %g1
a0003e64:	9a 03 40 10 	add  %o5, %l0, %o5
a0003e68:	da 27 bf f0 	st  %o5, [ %fp + -16 ]
a0003e6c:	80 a0 60 07 	cmp  %g1, 7
a0003e70:	a4 04 a0 08 	add  %l2, 8, %l2
a0003e74:	04 bf fe 2b 	ble  a0003720 <_vfiprintf_r+0x500>
a0003e78:	c2 27 bf ec 	st  %g1, [ %fp + -20 ]
a0003e7c:	90 10 00 19 	mov  %i1, %o0
a0003e80:	7f ff fc d8 	call  a00031e0 <__sprint>
a0003e84:	92 07 bf e8 	add  %fp, -24, %o1
a0003e88:	80 a2 20 00 	cmp  %o0, 0
a0003e8c:	12 80 00 23 	bne  a0003f18 <_vfiprintf_r+0xcf8>
a0003e90:	a4 10 00 1c 	mov  %i4, %l2
a0003e94:	10 bf fe 24 	b  a0003724 <_vfiprintf_r+0x504>
a0003e98:	a0 26 00 15 	sub  %i0, %l5, %l0
a0003e9c:	80 8b 20 ff 	btst  0xff, %o4
a0003ea0:	12 bf fe ba 	bne  a0003988 <_vfiprintf_r+0x768>
a0003ea4:	82 27 80 13 	sub  %fp, %l3, %g1
a0003ea8:	80 8d e0 01 	btst  1, %l7
a0003eac:	22 bf fd cd 	be,a   a00035e0 <_vfiprintf_r+0x3c0>
a0003eb0:	aa 00 7f a8 	add  %g1, -88, %l5
a0003eb4:	82 10 20 30 	mov  0x30, %g1
a0003eb8:	c2 2f bf a7 	stb  %g1, [ %fp + -89 ]
a0003ebc:	a6 07 bf a7 	add  %fp, -89, %l3
a0003ec0:	82 27 80 13 	sub  %fp, %l3, %g1
a0003ec4:	10 bf fd c7 	b  a00035e0 <_vfiprintf_r+0x3c0>
a0003ec8:	aa 00 7f a8 	add  %g1, -88, %l5
a0003ecc:	90 10 00 19 	mov  %i1, %o0
a0003ed0:	7f ff fc c4 	call  a00031e0 <__sprint>
a0003ed4:	92 07 bf e8 	add  %fp, -24, %o1
a0003ed8:	80 a2 20 00 	cmp  %o0, 0
a0003edc:	12 80 00 0f 	bne  a0003f18 <_vfiprintf_r+0xcf8>
a0003ee0:	a4 10 00 1c 	mov  %i4, %l2
a0003ee4:	10 bf fd fb 	b  a00036d0 <_vfiprintf_r+0x4b0>
a0003ee8:	c2 0f ba 83 	ldub  [ %fp + -1405 ], %g1
a0003eec:	c2 07 bf f0 	ld  [ %fp + -16 ], %g1
a0003ef0:	80 a0 60 00 	cmp  %g1, 0
a0003ef4:	22 80 00 09 	be,a   a0003f18 <_vfiprintf_r+0xcf8>
a0003ef8:	c0 27 bf ec 	clr  [ %fp + -20 ]
a0003efc:	90 10 00 19 	mov  %i1, %o0
a0003f00:	7f ff fc b8 	call  a00031e0 <__sprint>
a0003f04:	92 07 bf e8 	add  %fp, -24, %o1
a0003f08:	80 a2 20 00 	cmp  %o0, 0
a0003f0c:	12 80 00 04 	bne  a0003f1c <_vfiprintf_r+0xcfc>
a0003f10:	d6 07 ba 70 	ld  [ %fp + -1424 ], %o3
a0003f14:	c0 27 bf ec 	clr  [ %fp + -20 ]
a0003f18:	d6 07 ba 70 	ld  [ %fp + -1424 ], %o3
a0003f1c:	80 a2 e0 00 	cmp  %o3, 0
a0003f20:	02 80 00 04 	be  a0003f30 <_vfiprintf_r+0xd10>
a0003f24:	d0 07 a0 44 	ld  [ %fp + 0x44 ], %o0
a0003f28:	40 00 04 19 	call  a0004f8c <_free_r>
a0003f2c:	92 10 00 0b 	mov  %o3, %o1
a0003f30:	c2 16 60 0c 	lduh  [ %i1 + 0xc ], %g1
a0003f34:	80 88 62 00 	btst  0x200, %g1
a0003f38:	02 80 00 35 	be  a000400c <_vfiprintf_r+0xdec>
a0003f3c:	98 10 00 01 	mov  %g1, %o4
a0003f40:	80 8b 20 40 	btst  0x40, %o4
a0003f44:	02 80 00 77 	be  a0004120 <_vfiprintf_r+0xf00>
a0003f48:	d0 07 ba 7c 	ld  [ %fp + -1412 ], %o0
a0003f4c:	10 80 00 75 	b  a0004120 <_vfiprintf_r+0xf00>
a0003f50:	90 10 3f ff 	mov  -1, %o0
a0003f54:	90 10 00 19 	mov  %i1, %o0
a0003f58:	7f ff fc a2 	call  a00031e0 <__sprint>
a0003f5c:	92 07 bf e8 	add  %fp, -24, %o1
a0003f60:	80 a2 20 00 	cmp  %o0, 0
a0003f64:	12 bf ff ed 	bne  a0003f18 <_vfiprintf_r+0xcf8>
a0003f68:	a4 10 00 1c 	mov  %i4, %l2
a0003f6c:	10 bf fe 2c 	b  a000381c <_vfiprintf_r+0x5fc>
a0003f70:	80 8d e0 04 	btst  4, %l7
a0003f74:	90 10 00 19 	mov  %i1, %o0
a0003f78:	7f ff fc 9a 	call  a00031e0 <__sprint>
a0003f7c:	92 07 bf e8 	add  %fp, -24, %o1
a0003f80:	80 a2 20 00 	cmp  %o0, 0
a0003f84:	02 bf fe 68 	be  a0003924 <_vfiprintf_r+0x704>
a0003f88:	c2 07 ba 70 	ld  [ %fp + -1424 ], %g1
a0003f8c:	10 bf ff e4 	b  a0003f1c <_vfiprintf_r+0xcfc>
a0003f90:	d6 07 ba 70 	ld  [ %fp + -1424 ], %o3
a0003f94:	b6 06 e0 04 	add  %i3, 4, %i3
a0003f98:	e0 00 40 00 	ld  [ %g1 ], %l0
a0003f9c:	10 bf fd 5d 	b  a0003510 <_vfiprintf_r+0x2f0>
a0003fa0:	98 10 20 01 	mov  1, %o4
a0003fa4:	b6 06 e0 04 	add  %i3, 4, %i3
a0003fa8:	10 bf fd 73 	b  a0003574 <_vfiprintf_r+0x354>
a0003fac:	e0 00 40 00 	ld  [ %g1 ], %l0
a0003fb0:	b6 06 e0 04 	add  %i3, 4, %i3
a0003fb4:	e0 00 40 00 	ld  [ %g1 ], %l0
a0003fb8:	10 bf fd 63 	b  a0003544 <_vfiprintf_r+0x324>
a0003fbc:	98 10 20 00 	clr  %o4
a0003fc0:	80 a0 60 00 	cmp  %g1, 0
a0003fc4:	12 bf fd 83 	bne  a00035d0 <_vfiprintf_r+0x3b0>
a0003fc8:	03 28 00 27 	sethi  %hi(0xa0009c00), %g1
a0003fcc:	82 0c 20 07 	and  %l0, 7, %g1
a0003fd0:	a6 04 ff ff 	add  %l3, -1, %l3
a0003fd4:	82 00 60 30 	add  %g1, 0x30, %g1
a0003fd8:	a1 34 20 03 	srl  %l0, 3, %l0
a0003fdc:	80 a4 20 00 	cmp  %l0, 0
a0003fe0:	12 bf ff fb 	bne  a0003fcc <_vfiprintf_r+0xdac>
a0003fe4:	c2 2c c0 00 	stb  %g1, [ %l3 ]
a0003fe8:	80 8d e0 01 	btst  1, %l7
a0003fec:	22 bf fe 67 	be,a   a0003988 <_vfiprintf_r+0x768>
a0003ff0:	82 27 80 13 	sub  %fp, %l3, %g1
a0003ff4:	80 a0 60 30 	cmp  %g1, 0x30
a0003ff8:	02 bf fe 63 	be  a0003984 <_vfiprintf_r+0x764>
a0003ffc:	82 10 20 30 	mov  0x30, %g1
a0004000:	a6 04 ff ff 	add  %l3, -1, %l3
a0004004:	10 bf fe 60 	b  a0003984 <_vfiprintf_r+0x764>
a0004008:	c2 2c c0 00 	stb  %g1, [ %l3 ]
a000400c:	40 00 11 7d 	call  a0008600 <___st_pthread_mutex_unlock>
a0004010:	90 06 60 58 	add  %i1, 0x58, %o0
a0004014:	10 bf ff cb 	b  a0003f40 <_vfiprintf_r+0xd20>
a0004018:	d8 16 60 0c 	lduh  [ %i1 + 0xc ], %o4
a000401c:	02 80 00 19 	be  a0004080 <_vfiprintf_r+0xe60>
a0004020:	da 06 c0 00 	ld  [ %i3 ], %o5
a0004024:	d8 07 ba 7c 	ld  [ %fp + -1412 ], %o4
a0004028:	d8 33 40 00 	sth  %o4, [ %o5 ]
a000402c:	10 bf fc a0 	b  a00032ac <_vfiprintf_r+0x8c>
a0004030:	b6 06 e0 04 	add  %i3, 4, %i3
a0004034:	da 2f bf 80 	stb  %o5, [ %fp + -128 ]
a0004038:	b6 06 e0 04 	add  %i3, 4, %i3
a000403c:	aa 10 20 01 	mov  1, %l5
a0004040:	10 bf fd 68 	b  a00035e0 <_vfiprintf_r+0x3c0>
a0004044:	c0 2f ba 83 	clrb  [ %fp + -1405 ]
a0004048:	06 bf fd 63 	bl  a00035d4 <_vfiprintf_r+0x3b4>
a000404c:	90 10 00 13 	mov  %l3, %o0
a0004050:	92 10 20 00 	clr  %o1
a0004054:	40 00 08 40 	call  a0006154 <memchr>
a0004058:	94 10 00 16 	mov  %l6, %o2
a000405c:	80 a2 20 00 	cmp  %o0, 0
a0004060:	02 bf fd 60 	be  a00035e0 <_vfiprintf_r+0x3c0>
a0004064:	aa 10 00 16 	mov  %l6, %l5
a0004068:	aa 22 00 13 	sub  %o0, %l3, %l5
a000406c:	80 a5 40 16 	cmp  %l5, %l6
a0004070:	34 bf fd 5c 	bg,a   a00035e0 <_vfiprintf_r+0x3c0>
a0004074:	aa 10 00 16 	mov  %l6, %l5
a0004078:	10 bf fd 5b 	b  a00035e4 <_vfiprintf_r+0x3c4>
a000407c:	80 a5 40 18 	cmp  %l5, %i0
a0004080:	c2 07 ba 7c 	ld  [ %fp + -1412 ], %g1
a0004084:	c2 23 40 00 	st  %g1, [ %o5 ]
a0004088:	10 bf fc 89 	b  a00032ac <_vfiprintf_r+0x8c>
a000408c:	b6 06 e0 04 	add  %i3, 4, %i3
a0004090:	03 28 00 27 	sethi  %hi(0xa0009c00), %g1
a0004094:	a6 10 62 30 	or  %g1, 0x230, %l3	! a0009e30 <zeroes.1+0x60>
a0004098:	10 bf fd 52 	b  a00035e0 <_vfiprintf_r+0x3c0>
a000409c:	aa 10 20 06 	mov  6, %l5
a00040a0:	c2 16 60 0c 	lduh  [ %i1 + 0xc ], %g1
a00040a4:	82 10 60 40 	or  %g1, 0x40, %g1
a00040a8:	10 bf ff 9c 	b  a0003f18 <_vfiprintf_r+0xcf8>
a00040ac:	c2 36 60 0c 	sth  %g1, [ %i1 + 0xc ]
a00040b0:	80 88 62 00 	btst  0x200, %g1
a00040b4:	32 80 00 1b 	bne,a   a0004120 <_vfiprintf_r+0xf00>
a00040b8:	90 10 3f ff 	mov  -1, %o0
a00040bc:	40 00 11 51 	call  a0008600 <___st_pthread_mutex_unlock>
a00040c0:	90 06 60 58 	add  %i1, 0x58, %o0
a00040c4:	10 80 00 17 	b  a0004120 <_vfiprintf_r+0xf00>
a00040c8:	90 10 3f ff 	mov  -1, %o0
a00040cc:	d0 07 a0 44 	ld  [ %fp + 0x44 ], %o0
a00040d0:	92 10 20 00 	clr  %o1
a00040d4:	94 07 ba 84 	add  %fp, -1404, %o2
a00040d8:	96 10 20 00 	clr  %o3
a00040dc:	40 00 00 3d 	call  a00041d0 <_wcsrtombs_r>
a00040e0:	98 10 00 1d 	mov  %i5, %o4
a00040e4:	80 a2 3f ff 	cmp  %o0, -1
a00040e8:	02 bf ff ee 	be  a00040a0 <_vfiprintf_r+0xe80>
a00040ec:	aa 10 00 08 	mov  %o0, %l5
a00040f0:	10 bf fe e9 	b  a0003c94 <_vfiprintf_r+0xa74>
a00040f4:	e6 27 ba 84 	st  %l3, [ %fp + -1404 ]
a00040f8:	ec 06 c0 00 	ld  [ %i3 ], %l6
a00040fc:	80 a5 a0 00 	cmp  %l6, 0
a0004100:	16 bf fc 9a 	bge  a0003368 <_vfiprintf_r+0x148>
a0004104:	b6 06 e0 04 	add  %i3, 4, %i3
a0004108:	10 bf fc 98 	b  a0003368 <_vfiprintf_r+0x148>
a000410c:	ac 10 3f ff 	mov  -1, %l6
a0004110:	c2 16 60 0c 	lduh  [ %i1 + 0xc ], %g1
a0004114:	82 10 60 40 	or  %g1, 0x40, %g1
a0004118:	10 bf ff 86 	b  a0003f30 <_vfiprintf_r+0xd10>
a000411c:	c2 36 60 0c 	sth  %g1, [ %i1 + 0xc ]
a0004120:	81 c7 e0 08 	ret 
a0004124:	91 e8 00 08 	restore  %g0, %o0, %o0

a0004128 <vfiprintf>:
a0004128:	9a 10 00 08 	mov  %o0, %o5
a000412c:	98 10 00 09 	mov  %o1, %o4
a0004130:	96 10 00 0a 	mov  %o2, %o3
a0004134:	03 28 00 29 	sethi  %hi(0xa000a400), %g1
a0004138:	d0 00 60 30 	ld  [ %g1 + 0x30 ], %o0	! a000a430 <_impure_ptr>
a000413c:	92 10 00 0d 	mov  %o5, %o1
a0004140:	94 10 00 0c 	mov  %o4, %o2
a0004144:	82 13 c0 00 	mov  %o7, %g1
a0004148:	7f ff fc 36 	call  a0003220 <_vfiprintf_r>
a000414c:	9e 10 40 00 	mov  %g1, %o7
a0004150:	01 00 00 00 	nop 

a0004154 <_wcrtomb_r>:
a0004154:	9d e3 bf 88 	save  %sp, -120, %sp
a0004158:	92 07 bf e8 	add  %fp, -24, %o1
a000415c:	94 10 20 00 	clr  %o2
a0004160:	90 10 00 18 	mov  %i0, %o0
a0004164:	80 a6 60 00 	cmp  %i1, 0
a0004168:	02 80 00 06 	be  a0004180 <_wcrtomb_r+0x2c>
a000416c:	96 10 00 1b 	mov  %i3, %o3
a0004170:	92 10 00 19 	mov  %i1, %o1
a0004174:	94 10 00 1a 	mov  %i2, %o2
a0004178:	90 10 00 18 	mov  %i0, %o0
a000417c:	96 10 00 1b 	mov  %i3, %o3
a0004180:	40 00 00 63 	call  a000430c <_wctomb_r>
a0004184:	01 00 00 00 	nop 
a0004188:	80 a2 3f ff 	cmp  %o0, -1
a000418c:	12 80 00 04 	bne  a000419c <_wcrtomb_r+0x48>
a0004190:	82 10 20 8a 	mov  0x8a, %g1
a0004194:	c0 26 c0 00 	clr  [ %i3 ]
a0004198:	c2 26 00 00 	st  %g1, [ %i0 ]
a000419c:	81 c7 e0 08 	ret 
a00041a0:	91 e8 00 08 	restore  %g0, %o0, %o0

a00041a4 <wcrtomb>:
a00041a4:	9a 10 00 08 	mov  %o0, %o5
a00041a8:	98 10 00 09 	mov  %o1, %o4
a00041ac:	96 10 00 0a 	mov  %o2, %o3
a00041b0:	03 28 00 29 	sethi  %hi(0xa000a400), %g1
a00041b4:	d0 00 60 30 	ld  [ %g1 + 0x30 ], %o0	! a000a430 <_impure_ptr>
a00041b8:	92 10 00 0d 	mov  %o5, %o1
a00041bc:	94 10 00 0c 	mov  %o4, %o2
a00041c0:	82 13 c0 00 	mov  %o7, %g1
a00041c4:	7f ff ff e4 	call  a0004154 <_wcrtomb_r>
a00041c8:	9e 10 40 00 	mov  %g1, %o7
a00041cc:	01 00 00 00 	nop 

a00041d0 <_wcsrtombs_r>:
a00041d0:	9d e3 bf 88 	save  %sp, -120, %sp
a00041d4:	a0 10 00 19 	mov  %i1, %l0
a00041d8:	80 a6 60 00 	cmp  %i1, 0
a00041dc:	02 80 00 2f 	be  a0004298 <_wcsrtombs_r+0xc8>
a00041e0:	ac 10 00 18 	mov  %i0, %l6
a00041e4:	b0 10 20 00 	clr  %i0
a00041e8:	80 a6 00 1b 	cmp  %i0, %i3
a00041ec:	1a 80 00 3a 	bcc  a00042d4 <_wcsrtombs_r+0x104>
a00041f0:	e2 06 80 00 	ld  [ %i2 ], %l1
a00041f4:	aa 07 bf e8 	add  %fp, -24, %l5
a00041f8:	a6 07 bf f8 	add  %fp, -8, %l3
a00041fc:	e8 07 00 00 	ld  [ %i4 ], %l4
a0004200:	e4 07 20 04 	ld  [ %i4 + 4 ], %l2
a0004204:	90 10 00 16 	mov  %l6, %o0
a0004208:	92 10 00 15 	mov  %l5, %o1
a000420c:	d4 04 40 00 	ld  [ %l1 ], %o2
a0004210:	7f ff ff d1 	call  a0004154 <_wcrtomb_r>
a0004214:	96 10 00 1c 	mov  %i4, %o3
a0004218:	80 a2 3f ff 	cmp  %o0, -1
a000421c:	02 80 00 21 	be  a00042a0 <_wcsrtombs_r+0xd0>
a0004220:	82 26 c0 08 	sub  %i3, %o0, %g1
a0004224:	80 a0 40 18 	cmp  %g1, %i0
a0004228:	9a 60 3f ff 	subx  %g0, -1, %o5
a000422c:	80 a2 00 1b 	cmp  %o0, %i3
a0004230:	82 40 20 00 	addx  %g0, 0, %g1
a0004234:	80 8b 40 01 	btst  %o5, %g1
a0004238:	02 80 00 1f 	be  a00042b4 <_wcsrtombs_r+0xe4>
a000423c:	80 a6 60 00 	cmp  %i1, 0
a0004240:	02 80 00 0e 	be  a0004278 <_wcsrtombs_r+0xa8>
a0004244:	b0 06 00 08 	add  %i0, %o0, %i0
a0004248:	10 80 00 06 	b  a0004260 <_wcsrtombs_r+0x90>
a000424c:	98 10 20 00 	clr  %o4
a0004250:	da 08 7f f0 	ldub  [ %g1 + -16 ], %o5
a0004254:	da 2c 00 00 	stb  %o5, [ %l0 ]
a0004258:	98 03 20 01 	inc  %o4
a000425c:	a0 04 20 01 	inc  %l0
a0004260:	80 a3 00 08 	cmp  %o4, %o0
a0004264:	06 bf ff fb 	bl  a0004250 <_wcsrtombs_r+0x80>
a0004268:	82 04 c0 0c 	add  %l3, %o4, %g1
a000426c:	c2 06 80 00 	ld  [ %i2 ], %g1
a0004270:	82 00 60 04 	add  %g1, 4, %g1
a0004274:	c2 26 80 00 	st  %g1, [ %i2 ]
a0004278:	c2 04 40 00 	ld  [ %l1 ], %g1
a000427c:	80 a0 60 00 	cmp  %g1, 0
a0004280:	02 80 00 10 	be  a00042c0 <_wcsrtombs_r+0xf0>
a0004284:	a2 04 60 04 	add  %l1, 4, %l1
a0004288:	80 a6 00 1b 	cmp  %i0, %i3
a000428c:	2a bf ff dd 	bcs,a   a0004200 <_wcsrtombs_r+0x30>
a0004290:	e8 07 00 00 	ld  [ %i4 ], %l4
a0004294:	30 80 00 10 	b,a   a00042d4 <_wcsrtombs_r+0x104>
a0004298:	10 bf ff d3 	b  a00041e4 <_wcsrtombs_r+0x14>
a000429c:	b6 10 3f ff 	mov  -1, %i3
a00042a0:	82 10 20 8a 	mov  0x8a, %g1
a00042a4:	c2 25 80 00 	st  %g1, [ %l6 ]
a00042a8:	c0 27 00 00 	clr  [ %i4 ]
a00042ac:	10 80 00 0a 	b  a00042d4 <_wcsrtombs_r+0x104>
a00042b0:	b0 10 3f ff 	mov  -1, %i0
a00042b4:	e4 27 20 04 	st  %l2, [ %i4 + 4 ]
a00042b8:	10 80 00 07 	b  a00042d4 <_wcsrtombs_r+0x104>
a00042bc:	e8 27 00 00 	st  %l4, [ %i4 ]
a00042c0:	80 a6 60 00 	cmp  %i1, 0
a00042c4:	32 80 00 02 	bne,a   a00042cc <_wcsrtombs_r+0xfc>
a00042c8:	c0 26 80 00 	clr  [ %i2 ]
a00042cc:	c0 27 00 00 	clr  [ %i4 ]
a00042d0:	b0 06 3f ff 	add  %i0, -1, %i0
a00042d4:	81 c7 e0 08 	ret 
a00042d8:	81 e8 00 00 	restore 

a00042dc <wcsrtombs>:
a00042dc:	9d e3 bf 98 	save  %sp, -104, %sp
a00042e0:	ba 10 00 18 	mov  %i0, %i5
a00042e4:	9e 10 00 19 	mov  %i1, %o7
a00042e8:	9a 10 00 1a 	mov  %i2, %o5
a00042ec:	b8 10 00 1b 	mov  %i3, %i4
a00042f0:	03 28 00 29 	sethi  %hi(0xa000a400), %g1
a00042f4:	f0 00 60 30 	ld  [ %g1 + 0x30 ], %i0	! a000a430 <_impure_ptr>
a00042f8:	b2 10 00 1d 	mov  %i5, %i1
a00042fc:	b4 10 00 0f 	mov  %o7, %i2
a0004300:	7f ff ff b4 	call  a00041d0 <_wcsrtombs_r>
a0004304:	97 e8 00 0d 	restore  %g0, %o5, %o3
a0004308:	01 00 00 00 	nop 

a000430c <_wctomb_r>:
a000430c:	9d e3 bf 98 	save  %sp, -104, %sp
a0004310:	31 28 00 29 	sethi  %hi(0xa000a400), %i0
a0004314:	40 00 0a bb 	call  a0006e00 <strlen>
a0004318:	90 16 20 b0 	or  %i0, 0xb0, %o0	! a000a4b0 <__lc_ctype>
a000431c:	80 a2 20 01 	cmp  %o0, 1
a0004320:	18 80 00 08 	bgu  a0004340 <_wctomb_r+0x34>
a0004324:	13 28 00 27 	sethi  %hi(0xa0009c00), %o1
a0004328:	80 a6 60 00 	cmp  %i1, 0
a000432c:	02 80 01 16 	be  a0004784 <_wctomb_r+0x478>
a0004330:	b0 10 20 00 	clr  %i0
a0004334:	f4 2e 40 00 	stb  %i2, [ %i1 ]
a0004338:	10 80 01 13 	b  a0004784 <_wctomb_r+0x478>
a000433c:	b0 10 20 01 	mov  1, %i0
a0004340:	92 12 62 38 	or  %o1, 0x238, %o1
a0004344:	40 00 0a 80 	call  a0006d44 <strcmp>
a0004348:	90 16 20 b0 	or  %i0, 0xb0, %o0
a000434c:	80 a2 20 00 	cmp  %o0, 0
a0004350:	12 80 00 3e 	bne  a0004448 <_wctomb_r+0x13c>
a0004354:	80 a6 60 00 	cmp  %i1, 0
a0004358:	02 80 01 0b 	be  a0004784 <_wctomb_r+0x478>
a000435c:	b0 10 20 00 	clr  %i0
a0004360:	80 a6 a0 7f 	cmp  %i2, 0x7f
a0004364:	24 bf ff f5 	ble,a   a0004338 <_wctomb_r+0x2c>
a0004368:	f4 2e 40 00 	stb  %i2, [ %i1 ]
a000436c:	82 06 bf 80 	add  %i2, -128, %g1
a0004370:	80 a0 67 7f 	cmp  %g1, 0x77f
a0004374:	08 80 00 c0 	bleu  a0004674 <_wctomb_r+0x368>
a0004378:	03 00 00 3d 	sethi  %hi(0xf400), %g1
a000437c:	9a 06 b8 00 	add  %i2, -2048, %o5
a0004380:	82 10 63 ff 	or  %g1, 0x3ff, %g1
a0004384:	80 a3 40 01 	cmp  %o5, %g1
a0004388:	08 80 00 56 	bleu  a00044e0 <_wctomb_r+0x1d4>
a000438c:	03 3f ff ca 	sethi  %hi(0xffff2800), %g1
a0004390:	1b 3f ff c0 	sethi  %hi(0xffff0000), %o5
a0004394:	03 00 07 bf 	sethi  %hi(0x1efc00), %g1
a0004398:	9a 06 80 0d 	add  %i2, %o5, %o5
a000439c:	82 10 63 ff 	or  %g1, 0x3ff, %g1
a00043a0:	80 a3 40 01 	cmp  %o5, %g1
a00043a4:	08 80 00 bd 	bleu  a0004698 <_wctomb_r+0x38c>
a00043a8:	1b 3f f8 00 	sethi  %hi(0xffe00000), %o5
a00043ac:	03 00 f7 ff 	sethi  %hi(0x3dffc00), %g1
a00043b0:	9a 06 80 0d 	add  %i2, %o5, %o5
a00043b4:	82 10 63 ff 	or  %g1, 0x3ff, %g1
a00043b8:	80 a3 40 01 	cmp  %o5, %g1
a00043bc:	08 80 00 ca 	bleu  a00046e4 <_wctomb_r+0x3d8>
a00043c0:	03 00 ff ff 	sethi  %hi(0x3fffc00), %g1
a00043c4:	82 10 63 ff 	or  %g1, 0x3ff, %g1	! 3ffffff <_trap_table-0x9c000001>
a00043c8:	80 a6 80 01 	cmp  %i2, %g1
a00043cc:	04 80 00 ee 	ble  a0004784 <_wctomb_r+0x478>
a00043d0:	b0 10 3f ff 	mov  -1, %i0
a00043d4:	83 36 a0 1e 	srl  %i2, 0x1e, %g1
a00043d8:	82 08 60 01 	and  %g1, 1, %g1
a00043dc:	82 10 7f fc 	or  %g1, -4, %g1
a00043e0:	9b 36 a0 18 	srl  %i2, 0x18, %o5
a00043e4:	c2 2e 40 00 	stb  %g1, [ %i1 ]
a00043e8:	9a 0b 60 3f 	and  %o5, 0x3f, %o5
a00043ec:	b2 06 60 01 	inc  %i1
a00043f0:	9a 13 7f 80 	or  %o5, -128, %o5
a00043f4:	83 36 a0 12 	srl  %i2, 0x12, %g1
a00043f8:	da 2e 40 00 	stb  %o5, [ %i1 ]
a00043fc:	82 08 60 3f 	and  %g1, 0x3f, %g1
a0004400:	b2 06 60 01 	inc  %i1
a0004404:	82 10 7f 80 	or  %g1, -128, %g1
a0004408:	9b 36 a0 0c 	srl  %i2, 0xc, %o5
a000440c:	c2 2e 40 00 	stb  %g1, [ %i1 ]
a0004410:	9a 0b 60 3f 	and  %o5, 0x3f, %o5
a0004414:	b2 06 60 01 	inc  %i1
a0004418:	9a 13 7f 80 	or  %o5, -128, %o5
a000441c:	98 0e af c0 	and  %i2, 0xfc0, %o4
a0004420:	da 2e 40 00 	stb  %o5, [ %i1 ]
a0004424:	99 3b 20 06 	sra  %o4, 6, %o4
a0004428:	82 0e a0 3f 	and  %i2, 0x3f, %g1
a000442c:	b2 06 60 01 	inc  %i1
a0004430:	98 13 3f 80 	or  %o4, -128, %o4
a0004434:	82 10 7f 80 	or  %g1, -128, %g1
a0004438:	c2 2e 60 01 	stb  %g1, [ %i1 + 1 ]
a000443c:	d8 2e 40 00 	stb  %o4, [ %i1 ]
a0004440:	10 80 00 d1 	b  a0004784 <_wctomb_r+0x478>
a0004444:	b0 10 20 06 	mov  6, %i0
a0004448:	13 28 00 27 	sethi  %hi(0xa0009c00), %o1
a000444c:	92 12 62 40 	or  %o1, 0x240, %o1	! a0009e40 <zeroes.1+0x70>
a0004450:	40 00 0a 3d 	call  a0006d44 <strcmp>
a0004454:	90 16 20 b0 	or  %i0, 0xb0, %o0
a0004458:	80 a2 20 00 	cmp  %o0, 0
a000445c:	12 80 00 36 	bne  a0004534 <_wctomb_r+0x228>
a0004460:	97 3e a0 08 	sra  %i2, 8, %o3
a0004464:	80 a6 60 00 	cmp  %i1, 0
a0004468:	02 80 00 c7 	be  a0004784 <_wctomb_r+0x478>
a000446c:	b0 10 20 00 	clr  %i0
a0004470:	80 8a e0 ff 	btst  0xff, %o3
a0004474:	02 bf ff ae 	be  a000432c <_wctomb_r+0x20>
a0004478:	80 a6 60 00 	cmp  %i1, 0
a000447c:	82 02 e0 7f 	add  %o3, 0x7f, %g1
a0004480:	82 08 60 ff 	and  %g1, 0xff, %g1
a0004484:	80 a0 60 1f 	cmp  %g1, 0x1f
a0004488:	9a 02 e0 20 	add  %o3, 0x20, %o5
a000448c:	98 60 20 00 	subx  %g0, 0, %o4
a0004490:	9a 0b 60 ff 	and  %o5, 0xff, %o5
a0004494:	80 a3 60 10 	cmp  %o5, 0x10
a0004498:	82 60 20 00 	subx  %g0, 0, %g1
a000449c:	82 10 40 0c 	or  %g1, %o4, %g1
a00044a0:	80 88 60 01 	btst  1, %g1
a00044a4:	02 80 00 0d 	be  a00044d8 <_wctomb_r+0x1cc>
a00044a8:	82 06 bf c0 	add  %i2, -64, %g1
a00044ac:	82 08 60 ff 	and  %g1, 0xff, %g1
a00044b0:	80 a0 60 3f 	cmp  %g1, 0x3f
a00044b4:	9a 06 bf 80 	add  %i2, -128, %o5
a00044b8:	98 60 20 00 	subx  %g0, 0, %o4
a00044bc:	9a 0b 60 ff 	and  %o5, 0xff, %o5
a00044c0:	80 a3 60 7d 	cmp  %o5, 0x7d
a00044c4:	82 60 20 00 	subx  %g0, 0, %g1
a00044c8:	82 10 40 0c 	or  %g1, %o4, %g1
a00044cc:	80 88 60 01 	btst  1, %g1
a00044d0:	32 80 00 16 	bne,a   a0004528 <_wctomb_r+0x21c>
a00044d4:	f4 2e 60 01 	stb  %i2, [ %i1 + 1 ]
a00044d8:	10 80 00 ab 	b  a0004784 <_wctomb_r+0x478>
a00044dc:	b0 10 3f ff 	mov  -1, %i0
a00044e0:	82 06 80 01 	add  %i2, %g1, %g1
a00044e4:	80 a0 67 ff 	cmp  %g1, 0x7ff
a00044e8:	08 80 00 a7 	bleu  a0004784 <_wctomb_r+0x478>
a00044ec:	b0 10 3f ff 	mov  -1, %i0
a00044f0:	83 36 a0 0c 	srl  %i2, 0xc, %g1
a00044f4:	82 08 60 0f 	and  %g1, 0xf, %g1
a00044f8:	82 10 7f e0 	or  %g1, -32, %g1
a00044fc:	c2 2e 40 00 	stb  %g1, [ %i1 ]
a0004500:	9a 0e af c0 	and  %i2, 0xfc0, %o5
a0004504:	9b 3b 60 06 	sra  %o5, 6, %o5
a0004508:	82 0e a0 3f 	and  %i2, 0x3f, %g1
a000450c:	b2 06 60 01 	inc  %i1
a0004510:	9a 13 7f 80 	or  %o5, -128, %o5
a0004514:	82 10 7f 80 	or  %g1, -128, %g1
a0004518:	c2 2e 60 01 	stb  %g1, [ %i1 + 1 ]
a000451c:	da 2e 40 00 	stb  %o5, [ %i1 ]
a0004520:	10 80 00 99 	b  a0004784 <_wctomb_r+0x478>
a0004524:	b0 10 20 03 	mov  3, %i0
a0004528:	d6 2e 40 00 	stb  %o3, [ %i1 ]
a000452c:	10 80 00 96 	b  a0004784 <_wctomb_r+0x478>
a0004530:	b0 10 20 02 	mov  2, %i0
a0004534:	13 28 00 27 	sethi  %hi(0xa0009c00), %o1
a0004538:	92 12 62 48 	or  %o1, 0x248, %o1	! a0009e48 <zeroes.1+0x78>
a000453c:	40 00 0a 02 	call  a0006d44 <strcmp>
a0004540:	90 16 20 b0 	or  %i0, 0xb0, %o0
a0004544:	80 a2 20 00 	cmp  %o0, 0
a0004548:	12 80 00 20 	bne  a00045c8 <_wctomb_r+0x2bc>
a000454c:	97 3e a0 08 	sra  %i2, 8, %o3
a0004550:	80 a6 60 00 	cmp  %i1, 0
a0004554:	98 10 00 1a 	mov  %i2, %o4
a0004558:	02 80 00 8b 	be  a0004784 <_wctomb_r+0x478>
a000455c:	b0 10 20 00 	clr  %i0
a0004560:	82 0a e0 ff 	and  %o3, 0xff, %g1
a0004564:	80 a0 60 00 	cmp  %g1, 0
a0004568:	02 bf ff 71 	be  a000432c <_wctomb_r+0x20>
a000456c:	80 a6 60 00 	cmp  %i1, 0
a0004570:	80 a0 60 a0 	cmp  %g1, 0xa0
a0004574:	18 80 00 03 	bgu  a0004580 <_wctomb_r+0x274>
a0004578:	94 10 20 01 	mov  1, %o2
a000457c:	94 10 20 00 	clr  %o2
a0004580:	82 18 60 ff 	xor  %g1, 0xff, %g1
a0004584:	80 a0 00 01 	cmp  %g0, %g1
a0004588:	9a 40 20 00 	addx  %g0, 0, %o5
a000458c:	80 8a 80 0d 	btst  %o2, %o5
a0004590:	02 bf ff d2 	be  a00044d8 <_wctomb_r+0x1cc>
a0004594:	82 0b 20 ff 	and  %o4, 0xff, %g1
a0004598:	80 a0 60 a0 	cmp  %g1, 0xa0
a000459c:	18 80 00 03 	bgu  a00045a8 <_wctomb_r+0x29c>
a00045a0:	98 10 20 01 	mov  1, %o4
a00045a4:	98 10 20 00 	clr  %o4
a00045a8:	82 18 60 ff 	xor  %g1, 0xff, %g1
a00045ac:	80 a0 00 01 	cmp  %g0, %g1
a00045b0:	9a 40 20 00 	addx  %g0, 0, %o5
a00045b4:	80 8b 00 0d 	btst  %o4, %o5
a00045b8:	22 80 00 73 	be,a   a0004784 <_wctomb_r+0x478>
a00045bc:	b0 10 3f ff 	mov  -1, %i0
a00045c0:	10 bf ff da 	b  a0004528 <_wctomb_r+0x21c>
a00045c4:	f4 2e 60 01 	stb  %i2, [ %i1 + 1 ]
a00045c8:	13 28 00 27 	sethi  %hi(0xa0009c00), %o1
a00045cc:	90 16 20 b0 	or  %i0, 0xb0, %o0
a00045d0:	40 00 09 dd 	call  a0006d44 <strcmp>
a00045d4:	92 12 62 50 	or  %o1, 0x250, %o1
a00045d8:	80 a2 20 00 	cmp  %o0, 0
a00045dc:	12 bf ff 54 	bne  a000432c <_wctomb_r+0x20>
a00045e0:	80 a6 60 00 	cmp  %i1, 0
a00045e4:	99 3e a0 08 	sra  %i2, 8, %o4
a00045e8:	9a 10 20 00 	clr  %o5
a00045ec:	02 80 00 66 	be  a0004784 <_wctomb_r+0x478>
a00045f0:	b0 10 20 01 	mov  1, %i0
a00045f4:	80 8b 20 ff 	btst  0xff, %o4
a00045f8:	22 80 00 53 	be,a   a0004744 <_wctomb_r+0x438>
a00045fc:	c2 06 c0 00 	ld  [ %i3 ], %g1
a0004600:	82 03 3f df 	add  %o4, -33, %g1
a0004604:	82 08 60 ff 	and  %g1, 0xff, %g1
a0004608:	80 a0 60 5d 	cmp  %g1, 0x5d
a000460c:	18 bf ff b3 	bgu  a00044d8 <_wctomb_r+0x1cc>
a0004610:	82 06 bf df 	add  %i2, -33, %g1
a0004614:	82 08 60 ff 	and  %g1, 0xff, %g1
a0004618:	80 a0 60 5d 	cmp  %g1, 0x5d
a000461c:	18 80 00 5a 	bgu  a0004784 <_wctomb_r+0x478>
a0004620:	b0 10 3f ff 	mov  -1, %i0
a0004624:	c2 06 c0 00 	ld  [ %i3 ], %g1
a0004628:	80 a0 60 00 	cmp  %g1, 0
a000462c:	32 80 00 0f 	bne,a   a0004668 <_wctomb_r+0x35c>
a0004630:	f4 2e 60 01 	stb  %i2, [ %i1 + 1 ]
a0004634:	82 10 20 01 	mov  1, %g1
a0004638:	c2 26 c0 00 	st  %g1, [ %i3 ]
a000463c:	9a 10 20 1b 	mov  0x1b, %o5
a0004640:	da 2e 40 00 	stb  %o5, [ %i1 ]
a0004644:	b2 06 60 01 	inc  %i1
a0004648:	82 10 20 24 	mov  0x24, %g1
a000464c:	c2 2e 40 00 	stb  %g1, [ %i1 ]
a0004650:	b2 06 60 01 	inc  %i1
a0004654:	82 10 20 42 	mov  0x42, %g1
a0004658:	c2 2e 40 00 	stb  %g1, [ %i1 ]
a000465c:	b2 06 60 01 	inc  %i1
a0004660:	9a 10 20 03 	mov  3, %o5
a0004664:	f4 2e 60 01 	stb  %i2, [ %i1 + 1 ]
a0004668:	d8 2e 40 00 	stb  %o4, [ %i1 ]
a000466c:	10 80 00 46 	b  a0004784 <_wctomb_r+0x478>
a0004670:	b0 03 60 02 	add  %o5, 2, %i0
a0004674:	9a 0e a7 c0 	and  %i2, 0x7c0, %o5
a0004678:	9b 3b 60 06 	sra  %o5, 6, %o5
a000467c:	82 0e a0 3f 	and  %i2, 0x3f, %g1
a0004680:	9a 13 7f c0 	or  %o5, -64, %o5
a0004684:	82 10 7f 80 	or  %g1, -128, %g1
a0004688:	c2 2e 60 01 	stb  %g1, [ %i1 + 1 ]
a000468c:	da 2e 40 00 	stb  %o5, [ %i1 ]
a0004690:	10 80 00 3d 	b  a0004784 <_wctomb_r+0x478>
a0004694:	b0 10 20 02 	mov  2, %i0
a0004698:	83 36 a0 12 	srl  %i2, 0x12, %g1
a000469c:	82 08 60 07 	and  %g1, 7, %g1
a00046a0:	82 10 7f f0 	or  %g1, -16, %g1
a00046a4:	9b 36 a0 0c 	srl  %i2, 0xc, %o5
a00046a8:	c2 2e 40 00 	stb  %g1, [ %i1 ]
a00046ac:	9a 0b 60 3f 	and  %o5, 0x3f, %o5
a00046b0:	b2 06 60 01 	inc  %i1
a00046b4:	9a 13 7f 80 	or  %o5, -128, %o5
a00046b8:	98 0e af c0 	and  %i2, 0xfc0, %o4
a00046bc:	da 2e 40 00 	stb  %o5, [ %i1 ]
a00046c0:	99 3b 20 06 	sra  %o4, 6, %o4
a00046c4:	82 0e a0 3f 	and  %i2, 0x3f, %g1
a00046c8:	b2 06 60 01 	inc  %i1
a00046cc:	98 13 3f 80 	or  %o4, -128, %o4
a00046d0:	82 10 7f 80 	or  %g1, -128, %g1
a00046d4:	c2 2e 60 01 	stb  %g1, [ %i1 + 1 ]
a00046d8:	d8 2e 40 00 	stb  %o4, [ %i1 ]
a00046dc:	10 80 00 2a 	b  a0004784 <_wctomb_r+0x478>
a00046e0:	b0 10 20 04 	mov  4, %i0
a00046e4:	83 36 a0 18 	srl  %i2, 0x18, %g1
a00046e8:	82 08 60 03 	and  %g1, 3, %g1
a00046ec:	82 10 7f f8 	or  %g1, -8, %g1
a00046f0:	9b 36 a0 12 	srl  %i2, 0x12, %o5
a00046f4:	c2 2e 40 00 	stb  %g1, [ %i1 ]
a00046f8:	9a 0b 60 3f 	and  %o5, 0x3f, %o5
a00046fc:	b2 06 60 01 	inc  %i1
a0004700:	9a 13 7f 80 	or  %o5, -128, %o5
a0004704:	83 36 a0 0c 	srl  %i2, 0xc, %g1
a0004708:	da 2e 40 00 	stb  %o5, [ %i1 ]
a000470c:	82 08 60 3f 	and  %g1, 0x3f, %g1
a0004710:	b2 06 60 01 	inc  %i1
a0004714:	82 10 7f 80 	or  %g1, -128, %g1
a0004718:	c2 2e 40 00 	stb  %g1, [ %i1 ]
a000471c:	9a 0e af c0 	and  %i2, 0xfc0, %o5
a0004720:	9b 3b 60 06 	sra  %o5, 6, %o5
a0004724:	82 0e a0 3f 	and  %i2, 0x3f, %g1
a0004728:	b2 06 60 01 	inc  %i1
a000472c:	9a 13 7f 80 	or  %o5, -128, %o5
a0004730:	82 10 7f 80 	or  %g1, -128, %g1
a0004734:	c2 2e 60 01 	stb  %g1, [ %i1 + 1 ]
a0004738:	da 2e 40 00 	stb  %o5, [ %i1 ]
a000473c:	10 80 00 12 	b  a0004784 <_wctomb_r+0x478>
a0004740:	b0 10 20 05 	mov  5, %i0
a0004744:	80 a0 60 00 	cmp  %g1, 0
a0004748:	22 80 00 0e 	be,a   a0004780 <_wctomb_r+0x474>
a000474c:	f4 2e 40 00 	stb  %i2, [ %i1 ]
a0004750:	c0 26 c0 00 	clr  [ %i3 ]
a0004754:	82 10 20 1b 	mov  0x1b, %g1
a0004758:	c2 2e 40 00 	stb  %g1, [ %i1 ]
a000475c:	b2 06 60 01 	inc  %i1
a0004760:	82 10 20 28 	mov  0x28, %g1
a0004764:	c2 2e 40 00 	stb  %g1, [ %i1 ]
a0004768:	b2 06 60 01 	inc  %i1
a000476c:	82 10 20 42 	mov  0x42, %g1
a0004770:	c2 2e 40 00 	stb  %g1, [ %i1 ]
a0004774:	b2 06 60 01 	inc  %i1
a0004778:	9a 10 20 03 	mov  3, %o5
a000477c:	f4 2e 40 00 	stb  %i2, [ %i1 ]
a0004780:	b0 03 60 01 	add  %o5, 1, %i0
a0004784:	81 c7 e0 08 	ret 
a0004788:	81 e8 00 00 	restore 

a000478c <__swsetup>:
a000478c:	9d e3 bf 98 	save  %sp, -104, %sp
a0004790:	21 28 00 29 	sethi  %hi(0xa000a400), %l0
a0004794:	d0 04 20 30 	ld  [ %l0 + 0x30 ], %o0	! a000a430 <_impure_ptr>
a0004798:	80 a2 20 00 	cmp  %o0, 0
a000479c:	22 80 00 07 	be,a   a00047b8 <__swsetup+0x2c>
a00047a0:	c2 16 20 0c 	lduh  [ %i0 + 0xc ], %g1
a00047a4:	c2 02 20 38 	ld  [ %o0 + 0x38 ], %g1
a00047a8:	80 a0 60 00 	cmp  %g1, 0
a00047ac:	02 80 00 40 	be  a00048ac <__swsetup+0x120>
a00047b0:	01 00 00 00 	nop 
a00047b4:	c2 16 20 0c 	lduh  [ %i0 + 0xc ], %g1
a00047b8:	80 88 60 08 	btst  8, %g1
a00047bc:	12 80 00 2c 	bne  a000486c <__swsetup+0xe0>
a00047c0:	98 10 00 01 	mov  %g1, %o4
a00047c4:	80 88 60 10 	btst  0x10, %g1
a00047c8:	02 80 00 3d 	be  a00048bc <__swsetup+0x130>
a00047cc:	9a 10 3f ff 	mov  -1, %o5
a00047d0:	80 88 60 04 	btst  4, %g1
a00047d4:	02 80 00 33 	be  a00048a0 <__swsetup+0x114>
a00047d8:	82 13 20 08 	or  %o4, 8, %g1
a00047dc:	d2 06 20 30 	ld  [ %i0 + 0x30 ], %o1
a00047e0:	80 a2 60 00 	cmp  %o1, 0
a00047e4:	02 80 00 0b 	be  a0004810 <__swsetup+0x84>
a00047e8:	82 0b 3f db 	and  %o4, -37, %g1
a00047ec:	82 06 20 40 	add  %i0, 0x40, %g1
a00047f0:	80 a2 40 01 	cmp  %o1, %g1
a00047f4:	22 80 00 06 	be,a   a000480c <__swsetup+0x80>
a00047f8:	c0 26 20 30 	clr  [ %i0 + 0x30 ]
a00047fc:	40 00 01 e4 	call  a0004f8c <_free_r>
a0004800:	d0 04 20 30 	ld  [ %l0 + 0x30 ], %o0
a0004804:	d8 16 20 0c 	lduh  [ %i0 + 0xc ], %o4
a0004808:	c0 26 20 30 	clr  [ %i0 + 0x30 ]
a000480c:	82 0b 3f db 	and  %o4, -37, %g1
a0004810:	c2 36 20 0c 	sth  %g1, [ %i0 + 0xc ]
a0004814:	98 10 00 01 	mov  %g1, %o4
a0004818:	da 06 20 10 	ld  [ %i0 + 0x10 ], %o5
a000481c:	82 13 20 08 	or  %o4, 8, %g1
a0004820:	c0 26 20 04 	clr  [ %i0 + 4 ]
a0004824:	da 26 00 00 	st  %o5, [ %i0 ]
a0004828:	c2 36 20 0c 	sth  %g1, [ %i0 + 0xc ]
a000482c:	80 a3 60 00 	cmp  %o5, 0
a0004830:	32 80 00 14 	bne,a   a0004880 <__swsetup+0xf4>
a0004834:	c2 16 20 0c 	lduh  [ %i0 + 0xc ], %g1
a0004838:	40 00 04 24 	call  a00058c8 <__smakebuf>
a000483c:	90 10 00 18 	mov  %i0, %o0
a0004840:	c2 16 20 0c 	lduh  [ %i0 + 0xc ], %g1
a0004844:	80 88 60 01 	btst  1, %g1
a0004848:	32 80 00 12 	bne,a   a0004890 <__swsetup+0x104>
a000484c:	c2 06 20 14 	ld  [ %i0 + 0x14 ], %g1
a0004850:	80 88 60 02 	btst  2, %g1
a0004854:	12 80 00 03 	bne  a0004860 <__swsetup+0xd4>
a0004858:	82 10 20 00 	clr  %g1
a000485c:	c2 06 20 14 	ld  [ %i0 + 0x14 ], %g1
a0004860:	c2 26 20 08 	st  %g1, [ %i0 + 8 ]
a0004864:	10 80 00 16 	b  a00048bc <__swsetup+0x130>
a0004868:	9a 10 20 00 	clr  %o5
a000486c:	da 06 20 10 	ld  [ %i0 + 0x10 ], %o5
a0004870:	80 a3 60 00 	cmp  %o5, 0
a0004874:	02 bf ff f1 	be  a0004838 <__swsetup+0xac>
a0004878:	01 00 00 00 	nop 
a000487c:	c2 16 20 0c 	lduh  [ %i0 + 0xc ], %g1
a0004880:	80 88 60 01 	btst  1, %g1
a0004884:	02 bf ff f4 	be  a0004854 <__swsetup+0xc8>
a0004888:	80 88 60 02 	btst  2, %g1
a000488c:	c2 06 20 14 	ld  [ %i0 + 0x14 ], %g1
a0004890:	82 20 00 01 	neg  %g1
a0004894:	c2 26 20 18 	st  %g1, [ %i0 + 0x18 ]
a0004898:	10 bf ff f3 	b  a0004864 <__swsetup+0xd8>
a000489c:	c0 26 20 08 	clr  [ %i0 + 8 ]
a00048a0:	da 06 20 10 	ld  [ %i0 + 0x10 ], %o5
a00048a4:	10 bf ff e2 	b  a000482c <__swsetup+0xa0>
a00048a8:	c2 36 20 0c 	sth  %g1, [ %i0 + 0xc ]
a00048ac:	40 00 00 de 	call  a0004c24 <__sinit>
a00048b0:	01 00 00 00 	nop 
a00048b4:	10 bf ff c1 	b  a00047b8 <__swsetup+0x2c>
a00048b8:	c2 16 20 0c 	lduh  [ %i0 + 0xc ], %g1
a00048bc:	81 c7 e0 08 	ret 
a00048c0:	91 e8 00 0d 	restore  %g0, %o5, %o0

a00048c4 <__register_exitproc>:
a00048c4:	9d e3 bf 98 	save  %sp, -104, %sp
a00048c8:	23 28 00 2a 	sethi  %hi(0xa000a800), %l1
a00048cc:	40 00 0f 35 	call  a00085a0 <___st_pthread_mutex_lock>
a00048d0:	90 14 62 20 	or  %l1, 0x220, %o0	! a000aa20 <lock>
a00048d4:	03 28 00 27 	sethi  %hi(0xa0009c00), %g1
a00048d8:	e0 00 61 b4 	ld  [ %g1 + 0x1b4 ], %l0	! a0009db4 <_global_impure_ptr>
a00048dc:	d0 04 21 48 	ld  [ %l0 + 0x148 ], %o0
a00048e0:	80 a2 20 00 	cmp  %o0, 0
a00048e4:	22 80 00 2d 	be,a   a0004998 <__register_exitproc+0xd4>
a00048e8:	90 04 21 4c 	add  %l0, 0x14c, %o0
a00048ec:	d6 02 20 04 	ld  [ %o0 + 4 ], %o3
a00048f0:	80 a2 e0 1f 	cmp  %o3, 0x1f
a00048f4:	14 80 00 1d 	bg  a0004968 <__register_exitproc+0xa4>
a00048f8:	01 00 00 00 	nop 
a00048fc:	80 a6 20 00 	cmp  %i0, 0
a0004900:	12 80 00 0b 	bne  a000492c <__register_exitproc+0x68>
a0004904:	94 02 20 88 	add  %o0, 0x88, %o2
a0004908:	83 2a e0 02 	sll  %o3, 2, %g1
a000490c:	9a 02 e0 01 	add  %o3, 1, %o5
a0004910:	82 00 40 08 	add  %g1, %o0, %g1
a0004914:	da 22 20 04 	st  %o5, [ %o0 + 4 ]
a0004918:	f2 20 60 08 	st  %i1, [ %g1 + 8 ]
a000491c:	40 00 0f 39 	call  a0008600 <___st_pthread_mutex_unlock>
a0004920:	90 14 62 20 	or  %l1, 0x220, %o0
a0004924:	10 80 00 22 	b  a00049ac <__register_exitproc+0xe8>
a0004928:	b0 10 20 00 	clr  %i0
a000492c:	82 10 20 01 	mov  1, %g1
a0004930:	93 28 40 0b 	sll  %g1, %o3, %o1
a0004934:	99 2a e0 02 	sll  %o3, 2, %o4
a0004938:	da 02 a1 00 	ld  [ %o2 + 0x100 ], %o5
a000493c:	9a 13 40 09 	or  %o5, %o1, %o5
a0004940:	82 03 00 0a 	add  %o4, %o2, %g1
a0004944:	f6 20 60 80 	st  %i3, [ %g1 + 0x80 ]
a0004948:	f4 22 80 0c 	st  %i2, [ %o2 + %o4 ]
a000494c:	80 a6 20 02 	cmp  %i0, 2
a0004950:	12 bf ff ee 	bne  a0004908 <__register_exitproc+0x44>
a0004954:	da 22 a1 00 	st  %o5, [ %o2 + 0x100 ]
a0004958:	c2 02 a1 04 	ld  [ %o2 + 0x104 ], %g1
a000495c:	82 10 40 09 	or  %g1, %o1, %g1
a0004960:	10 bf ff ea 	b  a0004908 <__register_exitproc+0x44>
a0004964:	c2 22 a1 04 	st  %g1, [ %o2 + 0x104 ]
a0004968:	40 00 04 30 	call  a0005a28 <malloc>
a000496c:	90 10 21 90 	mov  0x190, %o0
a0004970:	80 a2 20 00 	cmp  %o0, 0
a0004974:	02 80 00 0b 	be  a00049a0 <__register_exitproc+0xdc>
a0004978:	96 10 20 00 	clr  %o3
a000497c:	c2 04 21 48 	ld  [ %l0 + 0x148 ], %g1
a0004980:	c2 22 00 00 	st  %g1, [ %o0 ]
a0004984:	d0 24 21 48 	st  %o0, [ %l0 + 0x148 ]
a0004988:	c0 22 20 04 	clr  [ %o0 + 4 ]
a000498c:	c0 22 21 88 	clr  [ %o0 + 0x188 ]
a0004990:	10 bf ff db 	b  a00048fc <__register_exitproc+0x38>
a0004994:	c0 22 21 8c 	clr  [ %o0 + 0x18c ]
a0004998:	10 bf ff d5 	b  a00048ec <__register_exitproc+0x28>
a000499c:	d0 24 21 48 	st  %o0, [ %l0 + 0x148 ]
a00049a0:	40 00 0f 18 	call  a0008600 <___st_pthread_mutex_unlock>
a00049a4:	90 14 62 20 	or  %l1, 0x220, %o0
a00049a8:	b0 10 3f ff 	mov  -1, %i0
a00049ac:	81 c7 e0 08 	ret 
a00049b0:	81 e8 00 00 	restore 

a00049b4 <abort>:
a00049b4:	9d e3 bf 98 	save  %sp, -104, %sp
a00049b8:	40 00 08 66 	call  a0006b50 <raise>
a00049bc:	90 10 20 06 	mov  6, %o0
a00049c0:	40 00 0e 23 	call  a000824c <_exit>
a00049c4:	90 10 20 01 	mov  1, %o0
a00049c8:	01 00 00 00 	nop 

a00049cc <fflush>:
a00049cc:	9d e3 bf 98 	save  %sp, -104, %sp
a00049d0:	80 a6 20 00 	cmp  %i0, 0
a00049d4:	02 80 00 48 	be  a0004af4 <fflush+0x128>
a00049d8:	03 28 00 27 	sethi  %hi(0xa0009c00), %g1
a00049dc:	c2 16 20 0c 	lduh  [ %i0 + 0xc ], %g1
a00049e0:	80 88 62 00 	btst  0x200, %g1
a00049e4:	02 80 00 3e 	be  a0004adc <fflush+0x110>
a00049e8:	01 00 00 00 	nop 
a00049ec:	03 28 00 29 	sethi  %hi(0xa000a400), %g1
a00049f0:	d0 00 60 30 	ld  [ %g1 + 0x30 ], %o0	! a000a430 <_impure_ptr>
a00049f4:	80 a2 20 00 	cmp  %o0, 0
a00049f8:	32 80 00 26 	bne,a   a0004a90 <fflush+0xc4>
a00049fc:	c2 02 20 38 	ld  [ %o0 + 0x38 ], %g1
a0004a00:	da 16 20 0c 	lduh  [ %i0 + 0xc ], %o5
a0004a04:	83 2b 60 10 	sll  %o5, 0x10, %g1
a0004a08:	91 38 60 10 	sra  %g1, 0x10, %o0
a0004a0c:	80 8a 20 08 	btst  8, %o0
a0004a10:	22 80 00 2c 	be,a   a0004ac0 <fflush+0xf4>
a0004a14:	83 30 60 10 	srl  %g1, 0x10, %g1
a0004a18:	e0 06 20 10 	ld  [ %i0 + 0x10 ], %l0
a0004a1c:	80 a4 20 00 	cmp  %l0, 0
a0004a20:	02 80 00 27 	be  a0004abc <fflush+0xf0>
a0004a24:	80 8a 20 03 	btst  3, %o0
a0004a28:	c2 06 00 00 	ld  [ %i0 ], %g1
a0004a2c:	b2 20 40 10 	sub  %g1, %l0, %i1
a0004a30:	e0 26 00 00 	st  %l0, [ %i0 ]
a0004a34:	02 80 00 2e 	be  a0004aec <fflush+0x120>
a0004a38:	82 10 20 00 	clr  %g1
a0004a3c:	80 a6 60 00 	cmp  %i1, 0
a0004a40:	04 80 00 0f 	ble  a0004a7c <fflush+0xb0>
a0004a44:	c2 26 20 08 	st  %g1, [ %i0 + 8 ]
a0004a48:	92 10 00 10 	mov  %l0, %o1
a0004a4c:	94 10 00 19 	mov  %i1, %o2
a0004a50:	c2 06 20 24 	ld  [ %i0 + 0x24 ], %g1
a0004a54:	9f c0 40 00 	call  %g1
a0004a58:	d0 06 20 1c 	ld  [ %i0 + 0x1c ], %o0
a0004a5c:	b2 26 40 08 	sub  %i1, %o0, %i1
a0004a60:	80 a2 20 00 	cmp  %o0, 0
a0004a64:	04 80 00 28 	ble  a0004b04 <fflush+0x138>
a0004a68:	a0 04 00 08 	add  %l0, %o0, %l0
a0004a6c:	80 a6 60 00 	cmp  %i1, 0
a0004a70:	14 bf ff f7 	bg  a0004a4c <fflush+0x80>
a0004a74:	92 10 00 10 	mov  %l0, %o1
a0004a78:	da 16 20 0c 	lduh  [ %i0 + 0xc ], %o5
a0004a7c:	80 8b 62 00 	btst  0x200, %o5
a0004a80:	02 80 00 13 	be  a0004acc <fflush+0x100>
a0004a84:	01 00 00 00 	nop 
a0004a88:	10 80 00 29 	b  a0004b2c <fflush+0x160>
a0004a8c:	b0 10 20 00 	clr  %i0	! 0 <_trap_table-0xa0000000>
a0004a90:	80 a0 60 00 	cmp  %g1, 0
a0004a94:	32 bf ff dc 	bne,a   a0004a04 <fflush+0x38>
a0004a98:	da 16 20 0c 	lduh  [ %i0 + 0xc ], %o5
a0004a9c:	40 00 00 62 	call  a0004c24 <__sinit>
a0004aa0:	01 00 00 00 	nop 
a0004aa4:	da 16 20 0c 	lduh  [ %i0 + 0xc ], %o5
a0004aa8:	83 2b 60 10 	sll  %o5, 0x10, %g1
a0004aac:	91 38 60 10 	sra  %g1, 0x10, %o0
a0004ab0:	80 8a 20 08 	btst  8, %o0
a0004ab4:	32 bf ff da 	bne,a   a0004a1c <fflush+0x50>
a0004ab8:	e0 06 20 10 	ld  [ %i0 + 0x10 ], %l0
a0004abc:	83 30 60 10 	srl  %g1, 0x10, %g1
a0004ac0:	80 88 62 00 	btst  0x200, %g1
a0004ac4:	32 80 00 1a 	bne,a   a0004b2c <fflush+0x160>
a0004ac8:	b0 10 20 00 	clr  %i0
a0004acc:	40 00 0e cd 	call  a0008600 <___st_pthread_mutex_unlock>
a0004ad0:	90 06 20 58 	add  %i0, 0x58, %o0
a0004ad4:	10 80 00 16 	b  a0004b2c <fflush+0x160>
a0004ad8:	b0 10 20 00 	clr  %i0
a0004adc:	40 00 0e b1 	call  a00085a0 <___st_pthread_mutex_lock>
a0004ae0:	90 06 20 58 	add  %i0, 0x58, %o0
a0004ae4:	10 bf ff c3 	b  a00049f0 <fflush+0x24>
a0004ae8:	03 28 00 29 	sethi  %hi(0xa000a400), %g1
a0004aec:	10 bf ff d4 	b  a0004a3c <fflush+0x70>
a0004af0:	c2 06 20 14 	ld  [ %i0 + 0x14 ], %g1
a0004af4:	33 28 00 12 	sethi  %hi(0xa0004800), %i1
a0004af8:	f0 00 61 b4 	ld  [ %g1 + 0x1b4 ], %i0
a0004afc:	40 00 02 d3 	call  a0005648 <_fwalk>
a0004b00:	93 ee 61 cc 	restore  %i1, 0x1cc, %o1
a0004b04:	c2 16 20 0c 	lduh  [ %i0 + 0xc ], %g1
a0004b08:	82 10 60 40 	or  %g1, 0x40, %g1
a0004b0c:	80 88 62 00 	btst  0x200, %g1
a0004b10:	02 80 00 04 	be  a0004b20 <fflush+0x154>
a0004b14:	c2 36 20 0c 	sth  %g1, [ %i0 + 0xc ]
a0004b18:	10 80 00 05 	b  a0004b2c <fflush+0x160>
a0004b1c:	b0 10 3f ff 	mov  -1, %i0
a0004b20:	40 00 0e b8 	call  a0008600 <___st_pthread_mutex_unlock>
a0004b24:	90 06 20 58 	add  %i0, 0x58, %o0
a0004b28:	b0 10 3f ff 	mov  -1, %i0
a0004b2c:	81 c7 e0 08 	ret 
a0004b30:	81 e8 00 00 	restore 

a0004b34 <std>:
a0004b34:	9d e3 bf 88 	save  %sp, -120, %sp
a0004b38:	03 28 00 1b 	sethi  %hi(0xa0006c00), %g1
a0004b3c:	1b 28 00 1b 	sethi  %hi(0xa0006c00), %o5
a0004b40:	82 10 60 10 	or  %g1, 0x10, %g1
a0004b44:	9a 13 60 5c 	or  %o5, 0x5c, %o5
a0004b48:	c2 26 20 20 	st  %g1, [ %i0 + 0x20 ]
a0004b4c:	da 26 20 24 	st  %o5, [ %i0 + 0x24 ]
a0004b50:	03 28 00 1b 	sethi  %hi(0xa0006c00), %g1
a0004b54:	1b 28 00 1b 	sethi  %hi(0xa0006c00), %o5
a0004b58:	a0 07 bf e8 	add  %fp, -24, %l0
a0004b5c:	82 10 60 d4 	or  %g1, 0xd4, %g1
a0004b60:	9a 13 61 28 	or  %o5, 0x128, %o5
a0004b64:	c2 26 20 28 	st  %g1, [ %i0 + 0x28 ]
a0004b68:	da 26 20 2c 	st  %o5, [ %i0 + 0x2c ]
a0004b6c:	f2 36 20 0c 	sth  %i1, [ %i0 + 0xc ]
a0004b70:	f4 36 20 0e 	sth  %i2, [ %i0 + 0xe ]
a0004b74:	c0 26 00 00 	clr  [ %i0 ]
a0004b78:	c0 26 20 04 	clr  [ %i0 + 4 ]
a0004b7c:	c0 26 20 08 	clr  [ %i0 + 8 ]
a0004b80:	c0 26 20 10 	clr  [ %i0 + 0x10 ]
a0004b84:	c0 26 20 14 	clr  [ %i0 + 0x14 ]
a0004b88:	c0 26 20 18 	clr  [ %i0 + 0x18 ]
a0004b8c:	f0 26 20 1c 	st  %i0, [ %i0 + 0x1c ]
a0004b90:	40 00 0e a8 	call  a0008630 <___st_pthread_mutexattr_init>
a0004b94:	90 10 00 10 	mov  %l0, %o0
a0004b98:	92 10 20 01 	mov  1, %o1
a0004b9c:	40 00 0e bd 	call  a0008690 <___st_pthread_mutexattr_settype>
a0004ba0:	90 10 00 10 	mov  %l0, %o0
a0004ba4:	90 06 20 58 	add  %i0, 0x58, %o0
a0004ba8:	40 00 0e 65 	call  a000853c <___st_pthread_mutex_init>
a0004bac:	92 10 00 10 	mov  %l0, %o1
a0004bb0:	40 00 0e ac 	call  a0008660 <___st_pthread_mutexattr_destroy>
a0004bb4:	90 10 00 10 	mov  %l0, %o0
a0004bb8:	01 00 00 00 	nop 
a0004bbc:	81 c7 e0 08 	ret 
a0004bc0:	81 e8 00 00 	restore 

a0004bc4 <__sfmoreglue>:
a0004bc4:	9d e3 bf 98 	save  %sp, -104, %sp
a0004bc8:	a0 06 40 19 	add  %i1, %i1, %l0
a0004bcc:	a0 04 00 19 	add  %l0, %i1, %l0
a0004bd0:	83 2c 20 04 	sll  %l0, 4, %g1
a0004bd4:	a0 04 00 01 	add  %l0, %g1, %l0
a0004bd8:	a1 2c 20 02 	sll  %l0, 2, %l0
a0004bdc:	90 10 00 18 	mov  %i0, %o0
a0004be0:	40 00 03 a0 	call  a0005a60 <_malloc_r>
a0004be4:	92 04 20 0c 	add  %l0, 0xc, %o1
a0004be8:	a2 10 00 08 	mov  %o0, %l1
a0004bec:	82 02 20 0c 	add  %o0, 0xc, %g1
a0004bf0:	90 10 00 01 	mov  %g1, %o0
a0004bf4:	94 10 00 10 	mov  %l0, %o2
a0004bf8:	92 10 20 00 	clr  %o1
a0004bfc:	80 a4 60 00 	cmp  %l1, 0
a0004c00:	02 80 00 07 	be  a0004c1c <__sfmoreglue+0x58>
a0004c04:	b0 10 20 00 	clr  %i0
a0004c08:	f2 24 60 04 	st  %i1, [ %l1 + 4 ]
a0004c0c:	c0 24 40 00 	clr  [ %l1 ]
a0004c10:	40 00 05 d2 	call  a0006358 <memset>
a0004c14:	c2 24 60 08 	st  %g1, [ %l1 + 8 ]
a0004c18:	b0 10 00 11 	mov  %l1, %i0
a0004c1c:	81 c7 e0 08 	ret 
a0004c20:	81 e8 00 00 	restore 

a0004c24 <__sinit>:
a0004c24:	9d e3 bf 98 	save  %sp, -104, %sp
a0004c28:	03 28 00 13 	sethi  %hi(0xa0004c00), %g1
a0004c2c:	82 10 60 90 	or  %g1, 0x90, %g1	! a0004c90 <_cleanup_r>
a0004c30:	c2 26 20 3c 	st  %g1, [ %i0 + 0x3c ]
a0004c34:	98 06 22 ec 	add  %i0, 0x2ec, %o4
a0004c38:	9a 10 20 01 	mov  1, %o5
a0004c3c:	82 10 20 03 	mov  3, %g1
a0004c40:	da 26 20 38 	st  %o5, [ %i0 + 0x38 ]
a0004c44:	c2 26 22 e4 	st  %g1, [ %i0 + 0x2e4 ]
a0004c48:	d8 26 22 e8 	st  %o4, [ %i0 + 0x2e8 ]
a0004c4c:	d0 06 20 04 	ld  [ %i0 + 4 ], %o0
a0004c50:	96 10 00 18 	mov  %i0, %o3
a0004c54:	c0 26 22 e0 	clr  [ %i0 + 0x2e0 ]
a0004c58:	92 10 20 06 	mov  6, %o1
a0004c5c:	7f ff ff b6 	call  a0004b34 <std>
a0004c60:	94 10 20 00 	clr  %o2
a0004c64:	d0 06 20 08 	ld  [ %i0 + 8 ], %o0
a0004c68:	96 10 00 18 	mov  %i0, %o3
a0004c6c:	92 10 20 0a 	mov  0xa, %o1
a0004c70:	7f ff ff b1 	call  a0004b34 <std>
a0004c74:	94 10 20 01 	mov  1, %o2
a0004c78:	b6 10 00 18 	mov  %i0, %i3
a0004c7c:	f0 06 20 0c 	ld  [ %i0 + 0xc ], %i0
a0004c80:	b2 10 20 0a 	mov  0xa, %i1
a0004c84:	7f ff ff ac 	call  a0004b34 <std>
a0004c88:	95 e8 20 02 	restore  %g0, 2, %o2
a0004c8c:	01 00 00 00 	nop 

a0004c90 <_cleanup_r>:
a0004c90:	13 28 00 1c 	sethi  %hi(0xa0007000), %o1
a0004c94:	92 12 60 6c 	or  %o1, 0x6c, %o1	! a000706c <fclose>
a0004c98:	82 13 c0 00 	mov  %o7, %g1
a0004c9c:	40 00 02 6b 	call  a0005648 <_fwalk>
a0004ca0:	9e 10 40 00 	mov  %g1, %o7
a0004ca4:	01 00 00 00 	nop 

a0004ca8 <_cleanup>:
a0004ca8:	03 28 00 27 	sethi  %hi(0xa0009c00), %g1
a0004cac:	d0 00 61 b4 	ld  [ %g1 + 0x1b4 ], %o0	! a0009db4 <_global_impure_ptr>
a0004cb0:	82 13 c0 00 	mov  %o7, %g1
a0004cb4:	7f ff ff f7 	call  a0004c90 <_cleanup_r>
a0004cb8:	9e 10 40 00 	mov  %g1, %o7
a0004cbc:	01 00 00 00 	nop 

a0004cc0 <__sfp_lock_acquire>:
a0004cc0:	11 28 00 29 	sethi  %hi(0xa000a400), %o0
a0004cc4:	90 12 20 38 	or  %o0, 0x38, %o0	! a000a438 <__sfp_lock>
a0004cc8:	82 13 c0 00 	mov  %o7, %g1
a0004ccc:	40 00 0e 35 	call  a00085a0 <___st_pthread_mutex_lock>
a0004cd0:	9e 10 40 00 	mov  %g1, %o7
a0004cd4:	01 00 00 00 	nop 

a0004cd8 <__sfp_lock_release>:
a0004cd8:	11 28 00 29 	sethi  %hi(0xa000a400), %o0
a0004cdc:	90 12 20 38 	or  %o0, 0x38, %o0	! a000a438 <__sfp_lock>
a0004ce0:	82 13 c0 00 	mov  %o7, %g1
a0004ce4:	40 00 0e 47 	call  a0008600 <___st_pthread_mutex_unlock>
a0004ce8:	9e 10 40 00 	mov  %g1, %o7
a0004cec:	01 00 00 00 	nop 

a0004cf0 <__sfp>:
a0004cf0:	9d e3 bf 88 	save  %sp, -120, %sp
a0004cf4:	7f ff ff f3 	call  a0004cc0 <__sfp_lock_acquire>
a0004cf8:	a2 10 00 18 	mov  %i0, %l1
a0004cfc:	03 28 00 27 	sethi  %hi(0xa0009c00), %g1
a0004d00:	e0 00 61 b4 	ld  [ %g1 + 0x1b4 ], %l0	! a0009db4 <_global_impure_ptr>
a0004d04:	da 04 20 38 	ld  [ %l0 + 0x38 ], %o5
a0004d08:	80 a3 60 00 	cmp  %o5, 0
a0004d0c:	02 80 00 13 	be  a0004d58 <__sfp+0x68>
a0004d10:	01 00 00 00 	nop 
a0004d14:	a0 04 22 e0 	add  %l0, 0x2e0, %l0
a0004d18:	da 04 20 04 	ld  [ %l0 + 4 ], %o5
a0004d1c:	9a 83 7f ff 	addcc  %o5, -1, %o5
a0004d20:	0c 80 00 08 	bneg  a0004d40 <__sfp+0x50>
a0004d24:	f0 04 20 08 	ld  [ %l0 + 8 ], %i0
a0004d28:	c2 56 20 0c 	ldsh  [ %i0 + 0xc ], %g1
a0004d2c:	80 a0 60 00 	cmp  %g1, 0
a0004d30:	02 80 00 18 	be  a0004d90 <__sfp+0xa0>
a0004d34:	9a 83 7f ff 	addcc  %o5, -1, %o5
a0004d38:	1c bf ff fc 	bpos  a0004d28 <__sfp+0x38>
a0004d3c:	b0 06 20 cc 	add  %i0, 0xcc, %i0
a0004d40:	d0 04 00 00 	ld  [ %l0 ], %o0
a0004d44:	80 a2 20 00 	cmp  %o0, 0
a0004d48:	22 80 00 08 	be,a   a0004d68 <__sfp+0x78>
a0004d4c:	90 10 00 11 	mov  %l1, %o0
a0004d50:	10 bf ff f2 	b  a0004d18 <__sfp+0x28>
a0004d54:	a0 10 00 08 	mov  %o0, %l0
a0004d58:	7f ff ff b3 	call  a0004c24 <__sinit>
a0004d5c:	90 10 00 10 	mov  %l0, %o0
a0004d60:	10 bf ff ee 	b  a0004d18 <__sfp+0x28>
a0004d64:	a0 04 22 e0 	add  %l0, 0x2e0, %l0
a0004d68:	7f ff ff 97 	call  a0004bc4 <__sfmoreglue>
a0004d6c:	92 10 20 04 	mov  4, %o1
a0004d70:	80 a2 20 00 	cmp  %o0, 0
a0004d74:	12 bf ff f7 	bne  a0004d50 <__sfp+0x60>
a0004d78:	d0 24 00 00 	st  %o0, [ %l0 ]
a0004d7c:	7f ff ff d7 	call  a0004cd8 <__sfp_lock_release>
a0004d80:	b0 10 20 00 	clr  %i0
a0004d84:	82 10 20 0c 	mov  0xc, %g1
a0004d88:	10 80 00 1d 	b  a0004dfc <__sfp+0x10c>
a0004d8c:	c2 24 40 00 	st  %g1, [ %l1 ]
a0004d90:	82 10 3f ff 	mov  -1, %g1
a0004d94:	9a 10 20 01 	mov  1, %o5
a0004d98:	a0 07 bf e8 	add  %fp, -24, %l0
a0004d9c:	c2 36 20 0e 	sth  %g1, [ %i0 + 0xe ]
a0004da0:	da 36 20 0c 	sth  %o5, [ %i0 + 0xc ]
a0004da4:	40 00 0e 23 	call  a0008630 <___st_pthread_mutexattr_init>
a0004da8:	90 10 00 10 	mov  %l0, %o0
a0004dac:	92 10 20 01 	mov  1, %o1
a0004db0:	40 00 0e 38 	call  a0008690 <___st_pthread_mutexattr_settype>
a0004db4:	90 10 00 10 	mov  %l0, %o0
a0004db8:	92 10 00 10 	mov  %l0, %o1
a0004dbc:	40 00 0d e0 	call  a000853c <___st_pthread_mutex_init>
a0004dc0:	90 06 20 58 	add  %i0, 0x58, %o0
a0004dc4:	40 00 0e 27 	call  a0008660 <___st_pthread_mutexattr_destroy>
a0004dc8:	90 10 00 10 	mov  %l0, %o0
a0004dcc:	7f ff ff c3 	call  a0004cd8 <__sfp_lock_release>
a0004dd0:	01 00 00 00 	nop 
a0004dd4:	c0 26 00 00 	clr  [ %i0 ]
a0004dd8:	c0 26 20 08 	clr  [ %i0 + 8 ]
a0004ddc:	c0 26 20 04 	clr  [ %i0 + 4 ]
a0004de0:	c0 26 20 10 	clr  [ %i0 + 0x10 ]
a0004de4:	c0 26 20 14 	clr  [ %i0 + 0x14 ]
a0004de8:	c0 26 20 18 	clr  [ %i0 + 0x18 ]
a0004dec:	c0 26 20 30 	clr  [ %i0 + 0x30 ]
a0004df0:	c0 26 20 34 	clr  [ %i0 + 0x34 ]
a0004df4:	c0 26 20 44 	clr  [ %i0 + 0x44 ]
a0004df8:	c0 26 20 48 	clr  [ %i0 + 0x48 ]
a0004dfc:	81 c7 e0 08 	ret 
a0004e00:	81 e8 00 00 	restore 

a0004e04 <__fp_lock>:
a0004e04:	9d e3 bf 98 	save  %sp, -104, %sp
a0004e08:	c2 16 20 0c 	lduh  [ %i0 + 0xc ], %g1
a0004e0c:	80 88 62 00 	btst  0x200, %g1
a0004e10:	12 80 00 04 	bne  a0004e20 <__fp_lock+0x1c>
a0004e14:	90 06 20 58 	add  %i0, 0x58, %o0
a0004e18:	40 00 0d e2 	call  a00085a0 <___st_pthread_mutex_lock>
a0004e1c:	01 00 00 00 	nop 
a0004e20:	81 c7 e0 08 	ret 
a0004e24:	91 e8 20 00 	restore  %g0, 0, %o0

a0004e28 <__fp_unlock>:
a0004e28:	9d e3 bf 98 	save  %sp, -104, %sp
a0004e2c:	c2 16 20 0c 	lduh  [ %i0 + 0xc ], %g1
a0004e30:	80 88 62 00 	btst  0x200, %g1
a0004e34:	12 80 00 04 	bne  a0004e44 <__fp_unlock+0x1c>
a0004e38:	90 06 20 58 	add  %i0, 0x58, %o0
a0004e3c:	40 00 0d f1 	call  a0008600 <___st_pthread_mutex_unlock>
a0004e40:	01 00 00 00 	nop 
a0004e44:	81 c7 e0 08 	ret 
a0004e48:	91 e8 20 00 	restore  %g0, 0, %o0

a0004e4c <__fp_lock_all>:
a0004e4c:	9d e3 bf 98 	save  %sp, -104, %sp
a0004e50:	7f ff ff 9c 	call  a0004cc0 <__sfp_lock_acquire>
a0004e54:	33 28 00 13 	sethi  %hi(0xa0004c00), %i1
a0004e58:	03 28 00 29 	sethi  %hi(0xa000a400), %g1
a0004e5c:	f0 00 60 30 	ld  [ %g1 + 0x30 ], %i0	! a000a430 <_impure_ptr>
a0004e60:	40 00 01 fa 	call  a0005648 <_fwalk>
a0004e64:	93 ee 62 04 	restore  %i1, 0x204, %o1
a0004e68:	01 00 00 00 	nop 

a0004e6c <__fp_unlock_all>:
a0004e6c:	9d e3 bf 98 	save  %sp, -104, %sp
a0004e70:	03 28 00 29 	sethi  %hi(0xa000a400), %g1
a0004e74:	13 28 00 13 	sethi  %hi(0xa0004c00), %o1
a0004e78:	92 12 62 28 	or  %o1, 0x228, %o1	! a0004e28 <__fp_unlock>
a0004e7c:	40 00 01 f3 	call  a0005648 <_fwalk>
a0004e80:	d0 00 60 30 	ld  [ %g1 + 0x30 ], %o0
a0004e84:	7f ff ff 95 	call  a0004cd8 <__sfp_lock_release>
a0004e88:	81 e8 00 00 	restore 
a0004e8c:	01 00 00 00 	nop 

a0004e90 <_malloc_trim_r>:
a0004e90:	9d e3 bf 98 	save  %sp, -104, %sp
a0004e94:	40 00 05 5d 	call  a0006408 <__malloc_lock>
a0004e98:	90 10 00 18 	mov  %i0, %o0
a0004e9c:	03 28 00 29 	sethi  %hi(0xa000a400), %g1
a0004ea0:	a2 10 60 d0 	or  %g1, 0xd0, %l1	! a000a4d0 <__malloc_av_>
a0004ea4:	da 04 60 08 	ld  [ %l1 + 8 ], %o5
a0004ea8:	c2 03 60 04 	ld  [ %o5 + 4 ], %g1
a0004eac:	a0 08 7f fc 	and  %g1, -4, %l0
a0004eb0:	b2 24 00 19 	sub  %l0, %i1, %i1
a0004eb4:	b2 06 6f ef 	add  %i1, 0xfef, %i1
a0004eb8:	b2 0e 70 00 	and  %i1, -4096, %i1
a0004ebc:	b2 06 70 00 	add  %i1, -4096, %i1
a0004ec0:	92 10 20 00 	clr  %o1
a0004ec4:	80 a6 6f ff 	cmp  %i1, 0xfff
a0004ec8:	04 80 00 0a 	ble  a0004ef0 <_malloc_trim_r+0x60>
a0004ecc:	90 10 00 18 	mov  %i0, %o0
a0004ed0:	40 00 06 96 	call  a0006928 <_sbrk_r>
a0004ed4:	01 00 00 00 	nop 
a0004ed8:	c2 04 60 08 	ld  [ %l1 + 8 ], %g1
a0004edc:	82 00 40 10 	add  %g1, %l0, %g1
a0004ee0:	80 a0 40 08 	cmp  %g1, %o0
a0004ee4:	92 20 00 19 	neg  %i1, %o1
a0004ee8:	02 80 00 05 	be  a0004efc <_malloc_trim_r+0x6c>
a0004eec:	90 10 00 18 	mov  %i0, %o0
a0004ef0:	40 00 05 4c 	call  a0006420 <__malloc_unlock>
a0004ef4:	b0 10 20 00 	clr  %i0
a0004ef8:	30 80 00 23 	b,a   a0004f84 <_malloc_trim_r+0xf4>
a0004efc:	40 00 06 8b 	call  a0006928 <_sbrk_r>
a0004f00:	90 10 00 18 	mov  %i0, %o0
a0004f04:	82 24 00 19 	sub  %l0, %i1, %g1
a0004f08:	80 a2 3f ff 	cmp  %o0, -1
a0004f0c:	82 10 60 01 	or  %g1, 1, %g1
a0004f10:	92 10 20 00 	clr  %o1
a0004f14:	19 28 00 2a 	sethi  %hi(0xa000a800), %o4
a0004f18:	02 80 00 0b 	be  a0004f44 <_malloc_trim_r+0xb4>
a0004f1c:	90 10 00 18 	mov  %i0, %o0
a0004f20:	da 04 60 08 	ld  [ %l1 + 8 ], %o5
a0004f24:	c2 23 60 04 	st  %g1, [ %o5 + 4 ]
a0004f28:	c2 03 22 a0 	ld  [ %o4 + 0x2a0 ], %g1
a0004f2c:	82 20 40 19 	sub  %g1, %i1, %g1
a0004f30:	90 10 00 18 	mov  %i0, %o0
a0004f34:	40 00 05 3b 	call  a0006420 <__malloc_unlock>
a0004f38:	c2 23 22 a0 	st  %g1, [ %o4 + 0x2a0 ]
a0004f3c:	10 80 00 12 	b  a0004f84 <_malloc_trim_r+0xf4>
a0004f40:	b0 10 20 01 	mov  1, %i0
a0004f44:	40 00 06 79 	call  a0006928 <_sbrk_r>
a0004f48:	01 00 00 00 	nop 
a0004f4c:	98 10 00 08 	mov  %o0, %o4
a0004f50:	d6 04 60 08 	ld  [ %l1 + 8 ], %o3
a0004f54:	a0 23 00 0b 	sub  %o4, %o3, %l0
a0004f58:	90 10 00 18 	mov  %i0, %o0
a0004f5c:	80 a4 20 0f 	cmp  %l0, 0xf
a0004f60:	04 bf ff e4 	ble  a0004ef0 <_malloc_trim_r+0x60>
a0004f64:	b2 14 20 01 	or  %l0, 1, %i1
a0004f68:	03 28 00 29 	sethi  %hi(0xa000a400), %g1
a0004f6c:	da 00 60 c8 	ld  [ %g1 + 0xc8 ], %o5	! a000a4c8 <__malloc_sbrk_base>
a0004f70:	9a 23 00 0d 	sub  %o4, %o5, %o5
a0004f74:	03 28 00 2a 	sethi  %hi(0xa000a800), %g1
a0004f78:	da 20 62 a0 	st  %o5, [ %g1 + 0x2a0 ]	! a000aaa0 <__malloc_current_mallinfo>
a0004f7c:	10 bf ff dd 	b  a0004ef0 <_malloc_trim_r+0x60>
a0004f80:	f2 22 e0 04 	st  %i1, [ %o3 + 4 ]
a0004f84:	81 c7 e0 08 	ret 
a0004f88:	81 e8 00 00 	restore 

a0004f8c <_free_r>:
a0004f8c:	9d e3 bf 98 	save  %sp, -104, %sp
a0004f90:	80 a6 60 00 	cmp  %i1, 0
a0004f94:	02 80 00 9d 	be  a0005208 <_free_r+0x27c>
a0004f98:	a4 10 00 18 	mov  %i0, %l2
a0004f9c:	40 00 05 1b 	call  a0006408 <__malloc_lock>
a0004fa0:	90 10 00 18 	mov  %i0, %o0
a0004fa4:	a0 06 7f f8 	add  %i1, -8, %l0
a0004fa8:	d6 04 20 04 	ld  [ %l0 + 4 ], %o3
a0004fac:	90 0a ff fe 	and  %o3, -2, %o0
a0004fb0:	19 28 00 29 	sethi  %hi(0xa000a400), %o4
a0004fb4:	94 04 00 08 	add  %l0, %o0, %o2
a0004fb8:	a2 13 20 d0 	or  %o4, 0xd0, %l1
a0004fbc:	da 02 a0 04 	ld  [ %o2 + 4 ], %o5
a0004fc0:	c2 04 60 08 	ld  [ %l1 + 8 ], %g1
a0004fc4:	80 a0 40 0a 	cmp  %g1, %o2
a0004fc8:	02 80 00 44 	be  a00050d8 <_free_r+0x14c>
a0004fcc:	9e 0b 7f fc 	and  %o5, -4, %o7
a0004fd0:	80 8a e0 01 	btst  1, %o3
a0004fd4:	de 22 a0 04 	st  %o7, [ %o2 + 4 ]
a0004fd8:	12 80 00 0c 	bne  a0005008 <_free_r+0x7c>
a0004fdc:	b0 10 20 00 	clr  %i0
a0004fe0:	f2 06 7f f8 	ld  [ %i1 + -8 ], %i1
a0004fe4:	a0 24 00 19 	sub  %l0, %i1, %l0
a0004fe8:	82 04 60 08 	add  %l1, 8, %g1
a0004fec:	da 04 20 08 	ld  [ %l0 + 8 ], %o5
a0004ff0:	80 a3 40 01 	cmp  %o5, %g1
a0004ff4:	02 80 00 7d 	be  a00051e8 <_free_r+0x25c>
a0004ff8:	90 02 00 19 	add  %o0, %i1, %o0
a0004ffc:	d2 04 20 0c 	ld  [ %l0 + 0xc ], %o1
a0005000:	da 22 60 08 	st  %o5, [ %o1 + 8 ]
a0005004:	d2 23 60 0c 	st  %o1, [ %o5 + 0xc ]
a0005008:	82 02 80 0f 	add  %o2, %o7, %g1
a000500c:	da 00 60 04 	ld  [ %g1 + 4 ], %o5
a0005010:	80 8b 60 01 	btst  1, %o5
a0005014:	12 80 00 0a 	bne  a000503c <_free_r+0xb0>
a0005018:	82 12 20 01 	or  %o0, 1, %g1
a000501c:	80 a6 20 00 	cmp  %i0, 0
a0005020:	02 80 00 22 	be  a00050a8 <_free_r+0x11c>
a0005024:	90 02 00 0f 	add  %o0, %o7, %o0
a0005028:	da 02 a0 08 	ld  [ %o2 + 8 ], %o5
a000502c:	d2 02 a0 0c 	ld  [ %o2 + 0xc ], %o1
a0005030:	da 22 60 08 	st  %o5, [ %o1 + 8 ]
a0005034:	d2 23 60 0c 	st  %o1, [ %o5 + 0xc ]
a0005038:	82 12 20 01 	or  %o0, 1, %g1
a000503c:	c2 24 20 04 	st  %g1, [ %l0 + 4 ]
a0005040:	80 a6 20 00 	cmp  %i0, 0
a0005044:	02 80 00 05 	be  a0005058 <_free_r+0xcc>
a0005048:	d0 24 00 08 	st  %o0, [ %l0 + %o0 ]
a000504c:	b0 10 00 12 	mov  %l2, %i0
a0005050:	40 00 04 f4 	call  a0006420 <__malloc_unlock>
a0005054:	81 e8 00 00 	restore 
a0005058:	80 a2 21 ff 	cmp  %o0, 0x1ff
a000505c:	18 80 00 36 	bgu  a0005134 <_free_r+0x1a8>
a0005060:	97 32 20 09 	srl  %o0, 9, %o3
a0005064:	9b 32 20 03 	srl  %o0, 3, %o5
a0005068:	98 13 20 d0 	or  %o4, 0xd0, %o4
a000506c:	83 2b 60 03 	sll  %o5, 3, %g1
a0005070:	92 00 40 0c 	add  %g1, %o4, %o1
a0005074:	9b 33 60 02 	srl  %o5, 2, %o5
a0005078:	82 10 20 01 	mov  1, %g1
a000507c:	83 28 40 0d 	sll  %g1, %o5, %g1
a0005080:	d6 02 60 08 	ld  [ %o1 + 8 ], %o3
a0005084:	da 03 20 04 	ld  [ %o4 + 4 ], %o5
a0005088:	9a 13 40 01 	or  %o5, %g1, %o5
a000508c:	d2 24 20 0c 	st  %o1, [ %l0 + 0xc ]
a0005090:	d6 24 20 08 	st  %o3, [ %l0 + 8 ]
a0005094:	e0 22 e0 0c 	st  %l0, [ %o3 + 0xc ]
a0005098:	da 23 20 04 	st  %o5, [ %o4 + 4 ]
a000509c:	e0 22 60 08 	st  %l0, [ %o1 + 8 ]
a00050a0:	10 bf ff ec 	b  a0005050 <_free_r+0xc4>
a00050a4:	b0 10 00 12 	mov  %l2, %i0
a00050a8:	03 28 00 29 	sethi  %hi(0xa000a400), %g1
a00050ac:	da 02 a0 08 	ld  [ %o2 + 8 ], %o5
a00050b0:	82 10 60 d8 	or  %g1, 0xd8, %g1
a00050b4:	80 a3 40 01 	cmp  %o5, %g1
a00050b8:	32 bf ff de 	bne,a   a0005030 <_free_r+0xa4>
a00050bc:	d2 02 a0 0c 	ld  [ %o2 + 0xc ], %o1
a00050c0:	e0 23 60 0c 	st  %l0, [ %o5 + 0xc ]
a00050c4:	e0 23 60 08 	st  %l0, [ %o5 + 8 ]
a00050c8:	da 24 20 08 	st  %o5, [ %l0 + 8 ]
a00050cc:	da 24 20 0c 	st  %o5, [ %l0 + 0xc ]
a00050d0:	10 bf ff da 	b  a0005038 <_free_r+0xac>
a00050d4:	b0 10 20 01 	mov  1, %i0
a00050d8:	80 8a e0 01 	btst  1, %o3
a00050dc:	12 80 00 09 	bne  a0005100 <_free_r+0x174>
a00050e0:	90 02 00 0f 	add  %o0, %o7, %o0
a00050e4:	f2 06 7f f8 	ld  [ %i1 + -8 ], %i1
a00050e8:	a0 24 00 19 	sub  %l0, %i1, %l0
a00050ec:	d2 04 20 0c 	ld  [ %l0 + 0xc ], %o1
a00050f0:	d6 04 20 08 	ld  [ %l0 + 8 ], %o3
a00050f4:	d6 22 60 08 	st  %o3, [ %o1 + 8 ]
a00050f8:	90 02 00 19 	add  %o0, %i1, %o0
a00050fc:	d2 22 e0 0c 	st  %o1, [ %o3 + 0xc ]
a0005100:	03 28 00 29 	sethi  %hi(0xa000a400), %g1
a0005104:	da 00 60 cc 	ld  [ %g1 + 0xcc ], %o5	! a000a4cc <__malloc_trim_threshold>
a0005108:	98 12 20 01 	or  %o0, 1, %o4
a000510c:	e0 24 60 08 	st  %l0, [ %l1 + 8 ]
a0005110:	80 a2 00 0d 	cmp  %o0, %o5
a0005114:	0a bf ff cf 	bcs  a0005050 <_free_r+0xc4>
a0005118:	d8 24 20 04 	st  %o4, [ %l0 + 4 ]
a000511c:	03 28 00 2a 	sethi  %hi(0xa000a800), %g1
a0005120:	d2 00 62 d0 	ld  [ %g1 + 0x2d0 ], %o1	! a000aad0 <__malloc_top_pad>
a0005124:	7f ff ff 5b 	call  a0004e90 <_malloc_trim_r>
a0005128:	90 10 00 12 	mov  %l2, %o0
a000512c:	40 00 04 bd 	call  a0006420 <__malloc_unlock>
a0005130:	81 e8 00 00 	restore 
a0005134:	80 a2 e0 00 	cmp  %o3, 0
a0005138:	02 80 00 16 	be  a0005190 <_free_r+0x204>
a000513c:	9b 32 20 03 	srl  %o0, 3, %o5
a0005140:	83 32 20 06 	srl  %o0, 6, %g1
a0005144:	80 a2 e0 04 	cmp  %o3, 4
a0005148:	08 80 00 12 	bleu  a0005190 <_free_r+0x204>
a000514c:	9a 00 60 38 	add  %g1, 0x38, %o5
a0005150:	80 a2 e0 14 	cmp  %o3, 0x14
a0005154:	08 80 00 0f 	bleu  a0005190 <_free_r+0x204>
a0005158:	9a 02 e0 5b 	add  %o3, 0x5b, %o5
a000515c:	83 32 20 0c 	srl  %o0, 0xc, %g1
a0005160:	80 a2 e0 54 	cmp  %o3, 0x54
a0005164:	08 80 00 0b 	bleu  a0005190 <_free_r+0x204>
a0005168:	9a 00 60 6e 	add  %g1, 0x6e, %o5
a000516c:	83 32 20 0f 	srl  %o0, 0xf, %g1
a0005170:	80 a2 e1 54 	cmp  %o3, 0x154
a0005174:	08 80 00 07 	bleu  a0005190 <_free_r+0x204>
a0005178:	9a 00 60 77 	add  %g1, 0x77, %o5
a000517c:	83 32 20 12 	srl  %o0, 0x12, %g1
a0005180:	80 a2 e5 54 	cmp  %o3, 0x554
a0005184:	08 80 00 03 	bleu  a0005190 <_free_r+0x204>
a0005188:	9a 00 60 7c 	add  %g1, 0x7c, %o5
a000518c:	9a 10 20 7e 	mov  0x7e, %o5
a0005190:	94 13 20 d0 	or  %o4, 0xd0, %o2
a0005194:	83 2b 60 03 	sll  %o5, 3, %g1
a0005198:	92 00 40 0a 	add  %g1, %o2, %o1
a000519c:	d6 02 60 08 	ld  [ %o1 + 8 ], %o3
a00051a0:	80 a2 c0 09 	cmp  %o3, %o1
a00051a4:	02 80 00 13 	be  a00051f0 <_free_r+0x264>
a00051a8:	99 33 60 02 	srl  %o5, 2, %o4
a00051ac:	c2 02 e0 04 	ld  [ %o3 + 4 ], %g1
a00051b0:	82 08 7f fc 	and  %g1, -4, %g1
a00051b4:	80 a0 40 08 	cmp  %g1, %o0
a00051b8:	28 80 00 07 	bleu,a   a00051d4 <_free_r+0x248>
a00051bc:	d2 02 e0 0c 	ld  [ %o3 + 0xc ], %o1
a00051c0:	d6 02 e0 08 	ld  [ %o3 + 8 ], %o3
a00051c4:	80 a2 c0 09 	cmp  %o3, %o1
a00051c8:	32 bf ff fa 	bne,a   a00051b0 <_free_r+0x224>
a00051cc:	c2 02 e0 04 	ld  [ %o3 + 4 ], %g1
a00051d0:	d2 02 e0 0c 	ld  [ %o3 + 0xc ], %o1
a00051d4:	d2 24 20 0c 	st  %o1, [ %l0 + 0xc ]
a00051d8:	d6 24 20 08 	st  %o3, [ %l0 + 8 ]
a00051dc:	e0 22 e0 0c 	st  %l0, [ %o3 + 0xc ]
a00051e0:	10 bf ff b0 	b  a00050a0 <_free_r+0x114>
a00051e4:	e0 22 60 08 	st  %l0, [ %o1 + 8 ]
a00051e8:	10 bf ff 88 	b  a0005008 <_free_r+0x7c>
a00051ec:	b0 10 20 01 	mov  1, %i0
a00051f0:	9a 10 20 01 	mov  1, %o5
a00051f4:	c2 02 a0 04 	ld  [ %o2 + 4 ], %g1
a00051f8:	9b 2b 40 0c 	sll  %o5, %o4, %o5
a00051fc:	82 10 40 0d 	or  %g1, %o5, %g1
a0005200:	10 bf ff f5 	b  a00051d4 <_free_r+0x248>
a0005204:	c2 22 a0 04 	st  %g1, [ %o2 + 4 ]
a0005208:	81 c7 e0 08 	ret 
a000520c:	81 e8 00 00 	restore 

a0005210 <__sfvwrite>:
a0005210:	9d e3 bf 98 	save  %sp, -104, %sp
a0005214:	e0 06 60 08 	ld  [ %i1 + 8 ], %l0
a0005218:	80 a4 20 00 	cmp  %l0, 0
a000521c:	a6 10 20 00 	clr  %l3
a0005220:	02 80 01 08 	be  a0005640 <__sfvwrite+0x430>
a0005224:	82 10 20 00 	clr  %g1
a0005228:	c2 16 20 0c 	lduh  [ %i0 + 0xc ], %g1
a000522c:	80 88 60 08 	btst  8, %g1
a0005230:	02 80 00 06 	be  a0005248 <__sfvwrite+0x38>
a0005234:	9a 10 00 01 	mov  %g1, %o5
a0005238:	c2 06 20 10 	ld  [ %i0 + 0x10 ], %g1
a000523c:	80 a0 60 00 	cmp  %g1, 0
a0005240:	12 80 00 09 	bne  a0005264 <__sfvwrite+0x54>
a0005244:	83 2b 60 10 	sll  %o5, 0x10, %g1
a0005248:	7f ff fd 51 	call  a000478c <__swsetup>
a000524c:	90 10 00 18 	mov  %i0, %o0
a0005250:	80 a2 20 00 	cmp  %o0, 0
a0005254:	12 80 00 fb 	bne  a0005640 <__sfvwrite+0x430>
a0005258:	82 10 3f ff 	mov  -1, %g1
a000525c:	da 16 20 0c 	lduh  [ %i0 + 0xc ], %o5
a0005260:	83 2b 60 10 	sll  %o5, 0x10, %g1
a0005264:	83 30 60 10 	srl  %g1, 0x10, %g1
a0005268:	80 88 60 02 	btst  2, %g1
a000526c:	e4 06 40 00 	ld  [ %i1 ], %l2
a0005270:	02 80 00 1d 	be  a00052e4 <__sfvwrite+0xd4>
a0005274:	a0 10 20 00 	clr  %l0
a0005278:	10 80 00 05 	b  a000528c <__sfvwrite+0x7c>
a000527c:	80 a4 20 00 	cmp  %l0, 0
a0005280:	e6 04 80 00 	ld  [ %l2 ], %l3
a0005284:	a4 04 a0 08 	add  %l2, 8, %l2
a0005288:	80 a4 20 00 	cmp  %l0, 0
a000528c:	22 bf ff fd 	be,a   a0005280 <__sfvwrite+0x70>
a0005290:	e0 04 a0 04 	ld  [ %l2 + 4 ], %l0
a0005294:	80 a4 24 00 	cmp  %l0, 0x400
a0005298:	d0 06 20 1c 	ld  [ %i0 + 0x1c ], %o0
a000529c:	08 80 00 03 	bleu  a00052a8 <__sfvwrite+0x98>
a00052a0:	94 10 00 10 	mov  %l0, %o2
a00052a4:	94 10 24 00 	mov  0x400, %o2
a00052a8:	c2 06 20 24 	ld  [ %i0 + 0x24 ], %g1
a00052ac:	9f c0 40 00 	call  %g1
a00052b0:	92 10 00 13 	mov  %l3, %o1
a00052b4:	a2 92 20 00 	orcc  %o0, 0, %l1
a00052b8:	24 80 00 a4 	ble,a   a0005548 <__sfvwrite+0x338>
a00052bc:	c2 16 20 0c 	lduh  [ %i0 + 0xc ], %g1
a00052c0:	c2 06 60 08 	ld  [ %i1 + 8 ], %g1
a00052c4:	82 20 40 11 	sub  %g1, %l1, %g1
a00052c8:	80 a0 60 00 	cmp  %g1, 0
a00052cc:	a6 04 c0 11 	add  %l3, %l1, %l3
a00052d0:	a0 24 00 11 	sub  %l0, %l1, %l0
a00052d4:	12 bf ff ed 	bne  a0005288 <__sfvwrite+0x78>
a00052d8:	c2 26 60 08 	st  %g1, [ %i1 + 8 ]
a00052dc:	10 80 00 d9 	b  a0005640 <__sfvwrite+0x430>
a00052e0:	82 10 20 00 	clr  %g1
a00052e4:	80 88 60 01 	btst  1, %g1
a00052e8:	aa 10 20 00 	clr  %l5
a00052ec:	02 80 00 4b 	be  a0005418 <__sfvwrite+0x208>
a00052f0:	a8 10 20 00 	clr  %l4
a00052f4:	80 a4 20 00 	cmp  %l0, 0
a00052f8:	12 80 00 3a 	bne  a00053e0 <__sfvwrite+0x1d0>
a00052fc:	80 a5 60 00 	cmp  %l5, 0
a0005300:	e0 04 a0 04 	ld  [ %l2 + 4 ], %l0
a0005304:	e6 04 80 00 	ld  [ %l2 ], %l3
a0005308:	80 a4 20 00 	cmp  %l0, 0
a000530c:	02 bf ff fd 	be  a0005300 <__sfvwrite+0xf0>
a0005310:	a4 04 a0 08 	add  %l2, 8, %l2
a0005314:	90 10 00 13 	mov  %l3, %o0
a0005318:	92 10 20 0a 	mov  0xa, %o1
a000531c:	40 00 03 8e 	call  a0006154 <memchr>
a0005320:	94 10 00 10 	mov  %l0, %o2
a0005324:	82 22 00 13 	sub  %o0, %l3, %g1
a0005328:	80 a2 20 00 	cmp  %o0, 0
a000532c:	02 80 00 70 	be  a00054ec <__sfvwrite+0x2dc>
a0005330:	a8 00 60 01 	add  %g1, 1, %l4
a0005334:	aa 10 20 01 	mov  1, %l5
a0005338:	80 a5 00 10 	cmp  %l4, %l0
a000533c:	08 80 00 03 	bleu  a0005348 <__sfvwrite+0x138>
a0005340:	98 10 00 14 	mov  %l4, %o4
a0005344:	98 10 00 10 	mov  %l0, %o4
a0005348:	c2 06 20 10 	ld  [ %i0 + 0x10 ], %g1
a000534c:	d0 06 00 00 	ld  [ %i0 ], %o0
a0005350:	80 a0 40 08 	cmp  %g1, %o0
a0005354:	da 06 20 08 	ld  [ %i0 + 8 ], %o5
a0005358:	d6 06 20 14 	ld  [ %i0 + 0x14 ], %o3
a000535c:	a2 03 40 0b 	add  %o5, %o3, %l1
a0005360:	82 40 20 00 	addx  %g0, 0, %g1
a0005364:	80 a3 00 11 	cmp  %o4, %l1
a0005368:	14 80 00 03 	bg  a0005374 <__sfvwrite+0x164>
a000536c:	9a 10 20 01 	mov  1, %o5
a0005370:	9a 10 20 00 	clr  %o5
a0005374:	80 88 40 0d 	btst  %g1, %o5
a0005378:	12 80 00 a0 	bne  a00055f8 <__sfvwrite+0x3e8>
a000537c:	80 a2 c0 0c 	cmp  %o3, %o4
a0005380:	14 80 00 8c 	bg  a00055b0 <__sfvwrite+0x3a0>
a0005384:	a2 10 00 0c 	mov  %o4, %l1
a0005388:	94 10 00 0b 	mov  %o3, %o2
a000538c:	c2 06 20 24 	ld  [ %i0 + 0x24 ], %g1
a0005390:	d0 06 20 1c 	ld  [ %i0 + 0x1c ], %o0
a0005394:	9f c0 40 00 	call  %g1
a0005398:	92 10 00 13 	mov  %l3, %o1
a000539c:	a2 92 20 00 	orcc  %o0, 0, %l1
a00053a0:	24 80 00 6a 	ble,a   a0005548 <__sfvwrite+0x338>
a00053a4:	c2 16 20 0c 	lduh  [ %i0 + 0xc ], %g1
a00053a8:	a8 a5 00 11 	subcc  %l4, %l1, %l4
a00053ac:	02 80 00 8c 	be  a00055dc <__sfvwrite+0x3cc>
a00053b0:	01 00 00 00 	nop 
a00053b4:	c2 06 60 08 	ld  [ %i1 + 8 ], %g1
a00053b8:	82 20 40 11 	sub  %g1, %l1, %g1
a00053bc:	80 a0 60 00 	cmp  %g1, 0
a00053c0:	a6 04 c0 11 	add  %l3, %l1, %l3
a00053c4:	a0 24 00 11 	sub  %l0, %l1, %l0
a00053c8:	02 bf ff c5 	be  a00052dc <__sfvwrite+0xcc>
a00053cc:	c2 26 60 08 	st  %g1, [ %i1 + 8 ]
a00053d0:	80 a4 20 00 	cmp  %l0, 0
a00053d4:	22 bf ff cc 	be,a   a0005304 <__sfvwrite+0xf4>
a00053d8:	e0 04 a0 04 	ld  [ %l2 + 4 ], %l0
a00053dc:	80 a5 60 00 	cmp  %l5, 0
a00053e0:	12 bf ff d7 	bne  a000533c <__sfvwrite+0x12c>
a00053e4:	80 a5 00 10 	cmp  %l4, %l0
a00053e8:	90 10 00 13 	mov  %l3, %o0
a00053ec:	92 10 20 0a 	mov  0xa, %o1
a00053f0:	40 00 03 59 	call  a0006154 <memchr>
a00053f4:	94 10 00 10 	mov  %l0, %o2
a00053f8:	82 22 00 13 	sub  %o0, %l3, %g1
a00053fc:	80 a2 20 00 	cmp  %o0, 0
a0005400:	12 bf ff cd 	bne  a0005334 <__sfvwrite+0x124>
a0005404:	a8 00 60 01 	add  %g1, 1, %l4
a0005408:	10 bf ff cb 	b  a0005334 <__sfvwrite+0x124>
a000540c:	a8 04 20 01 	add  %l0, 1, %l4
a0005410:	e6 04 80 00 	ld  [ %l2 ], %l3
a0005414:	a4 04 a0 08 	add  %l2, 8, %l2
a0005418:	80 a4 20 00 	cmp  %l0, 0
a000541c:	22 bf ff fd 	be,a   a0005410 <__sfvwrite+0x200>
a0005420:	e0 04 a0 04 	ld  [ %l2 + 4 ], %l0
a0005424:	83 2b 60 10 	sll  %o5, 0x10, %g1
a0005428:	83 30 60 10 	srl  %g1, 0x10, %g1
a000542c:	80 88 62 00 	btst  0x200, %g1
a0005430:	02 80 00 31 	be  a00054f4 <__sfvwrite+0x2e4>
a0005434:	e2 06 20 08 	ld  [ %i0 + 8 ], %l1
a0005438:	80 a4 40 10 	cmp  %l1, %l0
a000543c:	3a 80 00 07 	bcc,a   a0005458 <__sfvwrite+0x248>
a0005440:	d0 06 00 00 	ld  [ %i0 ], %o0
a0005444:	80 88 60 80 	btst  0x80, %g1
a0005448:	32 80 00 19 	bne,a   a00054ac <__sfvwrite+0x29c>
a000544c:	c2 06 00 00 	ld  [ %i0 ], %g1
a0005450:	d0 06 00 00 	ld  [ %i0 ], %o0
a0005454:	80 a4 40 10 	cmp  %l1, %l0
a0005458:	38 80 00 02 	bgu,a   a0005460 <__sfvwrite+0x250>
a000545c:	a2 10 00 10 	mov  %l0, %l1
a0005460:	94 10 00 11 	mov  %l1, %o2
a0005464:	40 00 03 72 	call  a000622c <memmove>
a0005468:	92 10 00 13 	mov  %l3, %o1
a000546c:	c2 06 20 08 	ld  [ %i0 + 8 ], %g1
a0005470:	da 06 00 00 	ld  [ %i0 ], %o5
a0005474:	90 03 40 11 	add  %o5, %l1, %o0
a0005478:	82 20 40 11 	sub  %g1, %l1, %g1
a000547c:	c2 26 20 08 	st  %g1, [ %i0 + 8 ]
a0005480:	d0 26 00 00 	st  %o0, [ %i0 ]
a0005484:	a2 10 00 10 	mov  %l0, %l1
a0005488:	c2 06 60 08 	ld  [ %i1 + 8 ], %g1
a000548c:	82 20 40 11 	sub  %g1, %l1, %g1
a0005490:	80 a0 60 00 	cmp  %g1, 0
a0005494:	a6 04 c0 11 	add  %l3, %l1, %l3
a0005498:	a0 24 00 11 	sub  %l0, %l1, %l0
a000549c:	02 bf ff 90 	be  a00052dc <__sfvwrite+0xcc>
a00054a0:	c2 26 60 08 	st  %g1, [ %i1 + 8 ]
a00054a4:	10 bf ff dd 	b  a0005418 <__sfvwrite+0x208>
a00054a8:	da 16 20 0c 	lduh  [ %i0 + 0xc ], %o5
a00054ac:	d2 06 20 10 	ld  [ %i0 + 0x10 ], %o1
a00054b0:	a8 20 40 09 	sub  %g1, %o1, %l4
a00054b4:	2b 28 00 29 	sethi  %hi(0xa000a400), %l5
a00054b8:	a2 05 00 10 	add  %l4, %l0, %l1
a00054bc:	d0 05 60 30 	ld  [ %l5 + 0x30 ], %o0
a00054c0:	40 00 03 de 	call  a0006438 <_realloc_r>
a00054c4:	94 10 00 11 	mov  %l1, %o2
a00054c8:	82 92 20 00 	orcc  %o0, 0, %g1
a00054cc:	02 80 00 58 	be  a000562c <__sfvwrite+0x41c>
a00054d0:	90 00 40 14 	add  %g1, %l4, %o0
a00054d4:	e2 26 20 14 	st  %l1, [ %i0 + 0x14 ]
a00054d8:	c2 26 20 10 	st  %g1, [ %i0 + 0x10 ]
a00054dc:	d0 26 00 00 	st  %o0, [ %i0 ]
a00054e0:	e0 26 20 08 	st  %l0, [ %i0 + 8 ]
a00054e4:	10 bf ff dc 	b  a0005454 <__sfvwrite+0x244>
a00054e8:	a2 10 00 10 	mov  %l0, %l1
a00054ec:	10 bf ff 92 	b  a0005334 <__sfvwrite+0x124>
a00054f0:	a8 04 20 01 	add  %l0, 1, %l4
a00054f4:	c2 06 20 10 	ld  [ %i0 + 0x10 ], %g1
a00054f8:	d0 06 00 00 	ld  [ %i0 ], %o0
a00054fc:	80 a0 40 08 	cmp  %g1, %o0
a0005500:	9a 40 20 00 	addx  %g0, 0, %o5
a0005504:	80 a4 40 10 	cmp  %l1, %l0
a0005508:	82 40 20 00 	addx  %g0, 0, %g1
a000550c:	80 8b 40 01 	btst  %o5, %g1
a0005510:	12 80 00 1c 	bne  a0005580 <__sfvwrite+0x370>
a0005514:	92 10 00 13 	mov  %l3, %o1
a0005518:	e2 06 20 14 	ld  [ %i0 + 0x14 ], %l1
a000551c:	80 a4 40 10 	cmp  %l1, %l0
a0005520:	18 80 00 0e 	bgu  a0005558 <__sfvwrite+0x348>
a0005524:	94 10 00 11 	mov  %l1, %o2
a0005528:	c2 06 20 24 	ld  [ %i0 + 0x24 ], %g1
a000552c:	d0 06 20 1c 	ld  [ %i0 + 0x1c ], %o0
a0005530:	9f c0 40 00 	call  %g1
a0005534:	92 10 00 13 	mov  %l3, %o1
a0005538:	a2 92 20 00 	orcc  %o0, 0, %l1
a000553c:	34 bf ff d4 	bg,a   a000548c <__sfvwrite+0x27c>
a0005540:	c2 06 60 08 	ld  [ %i1 + 8 ], %g1
a0005544:	c2 16 20 0c 	lduh  [ %i0 + 0xc ], %g1
a0005548:	82 10 60 40 	or  %g1, 0x40, %g1
a000554c:	c2 36 20 0c 	sth  %g1, [ %i0 + 0xc ]
a0005550:	10 80 00 3c 	b  a0005640 <__sfvwrite+0x430>
a0005554:	82 10 3f ff 	mov  -1, %g1
a0005558:	40 00 03 35 	call  a000622c <memmove>
a000555c:	94 10 00 10 	mov  %l0, %o2
a0005560:	c2 06 20 08 	ld  [ %i0 + 8 ], %g1
a0005564:	da 06 00 00 	ld  [ %i0 ], %o5
a0005568:	82 20 40 10 	sub  %g1, %l0, %g1
a000556c:	90 03 40 10 	add  %o5, %l0, %o0
a0005570:	a2 10 00 10 	mov  %l0, %l1
a0005574:	c2 26 20 08 	st  %g1, [ %i0 + 8 ]
a0005578:	10 bf ff c4 	b  a0005488 <__sfvwrite+0x278>
a000557c:	d0 26 00 00 	st  %o0, [ %i0 ]
a0005580:	40 00 03 2b 	call  a000622c <memmove>
a0005584:	94 10 00 11 	mov  %l1, %o2
a0005588:	c2 06 00 00 	ld  [ %i0 ], %g1
a000558c:	90 00 40 11 	add  %g1, %l1, %o0
a0005590:	d0 26 00 00 	st  %o0, [ %i0 ]
a0005594:	7f ff fd 0e 	call  a00049cc <fflush>
a0005598:	90 10 00 18 	mov  %i0, %o0
a000559c:	80 a2 20 00 	cmp  %o0, 0
a00055a0:	22 bf ff bb 	be,a   a000548c <__sfvwrite+0x27c>
a00055a4:	c2 06 60 08 	ld  [ %i1 + 8 ], %g1
a00055a8:	10 bf ff e8 	b  a0005548 <__sfvwrite+0x338>
a00055ac:	c2 16 20 0c 	lduh  [ %i0 + 0xc ], %g1
a00055b0:	92 10 00 13 	mov  %l3, %o1
a00055b4:	40 00 03 1e 	call  a000622c <memmove>
a00055b8:	94 10 00 0c 	mov  %o4, %o2
a00055bc:	c2 06 20 08 	ld  [ %i0 + 8 ], %g1
a00055c0:	da 06 00 00 	ld  [ %i0 ], %o5
a00055c4:	82 20 40 11 	sub  %g1, %l1, %g1
a00055c8:	9a 03 40 11 	add  %o5, %l1, %o5
a00055cc:	c2 26 20 08 	st  %g1, [ %i0 + 8 ]
a00055d0:	a8 a5 00 11 	subcc  %l4, %l1, %l4
a00055d4:	12 bf ff 78 	bne  a00053b4 <__sfvwrite+0x1a4>
a00055d8:	da 26 00 00 	st  %o5, [ %i0 ]
a00055dc:	7f ff fc fc 	call  a00049cc <fflush>
a00055e0:	90 10 00 18 	mov  %i0, %o0
a00055e4:	80 a2 20 00 	cmp  %o0, 0
a00055e8:	12 bf ff d7 	bne  a0005544 <__sfvwrite+0x334>
a00055ec:	aa 10 20 00 	clr  %l5
a00055f0:	10 bf ff 72 	b  a00053b8 <__sfvwrite+0x1a8>
a00055f4:	c2 06 60 08 	ld  [ %i1 + 8 ], %g1
a00055f8:	92 10 00 13 	mov  %l3, %o1
a00055fc:	40 00 03 0c 	call  a000622c <memmove>
a0005600:	94 10 00 11 	mov  %l1, %o2
a0005604:	c2 06 00 00 	ld  [ %i0 ], %g1
a0005608:	90 00 40 11 	add  %g1, %l1, %o0
a000560c:	d0 26 00 00 	st  %o0, [ %i0 ]
a0005610:	7f ff fc ef 	call  a00049cc <fflush>
a0005614:	90 10 00 18 	mov  %i0, %o0
a0005618:	80 a2 20 00 	cmp  %o0, 0
a000561c:	22 bf ff 64 	be,a   a00053ac <__sfvwrite+0x19c>
a0005620:	a8 a5 00 11 	subcc  %l4, %l1, %l4
a0005624:	10 bf ff c9 	b  a0005548 <__sfvwrite+0x338>
a0005628:	c2 16 20 0c 	lduh  [ %i0 + 0xc ], %g1
a000562c:	d0 05 60 30 	ld  [ %l5 + 0x30 ], %o0
a0005630:	7f ff fe 57 	call  a0004f8c <_free_r>
a0005634:	d2 06 20 10 	ld  [ %i0 + 0x10 ], %o1
a0005638:	10 bf ff c4 	b  a0005548 <__sfvwrite+0x338>
a000563c:	c2 16 20 0c 	lduh  [ %i0 + 0xc ], %g1
a0005640:	81 c7 e0 08 	ret 
a0005644:	91 e8 00 01 	restore  %g0, %g1, %o0

a0005648 <_fwalk>:
a0005648:	9d e3 bf 98 	save  %sp, -104, %sp
a000564c:	7f ff fd 9d 	call  a0004cc0 <__sfp_lock_acquire>
a0005650:	a4 10 20 00 	clr  %l2
a0005654:	b0 86 22 e0 	addcc  %i0, 0x2e0, %i0
a0005658:	02 80 00 2e 	be  a0005710 <_fwalk+0xc8>
a000565c:	01 00 00 00 	nop 
a0005660:	e2 06 20 04 	ld  [ %i0 + 4 ], %l1
a0005664:	a2 84 7f ff 	addcc  %l1, -1, %l1
a0005668:	0c 80 00 1d 	bneg  a00056dc <_fwalk+0x94>
a000566c:	e0 06 20 08 	ld  [ %i0 + 8 ], %l0
a0005670:	da 14 20 0c 	lduh  [ %l0 + 0xc ], %o5
a0005674:	83 2b 60 10 	sll  %o5, 0x10, %g1
a0005678:	80 a0 60 00 	cmp  %g1, 0
a000567c:	02 80 00 14 	be  a00056cc <_fwalk+0x84>
a0005680:	99 30 60 10 	srl  %g1, 0x10, %o4
a0005684:	80 8b 22 00 	btst  0x200, %o4
a0005688:	02 80 00 1e 	be  a0005700 <_fwalk+0xb8>
a000568c:	90 04 20 58 	add  %l0, 0x58, %o0
a0005690:	83 2b 60 10 	sll  %o5, 0x10, %g1
a0005694:	80 a0 60 00 	cmp  %g1, 0
a0005698:	02 80 00 0b 	be  a00056c4 <_fwalk+0x7c>
a000569c:	80 8b 62 00 	btst  0x200, %o5
a00056a0:	c2 54 20 0e 	ldsh  [ %l0 + 0xe ], %g1
a00056a4:	80 a0 7f ff 	cmp  %g1, -1
a00056a8:	02 80 00 06 	be  a00056c0 <_fwalk+0x78>
a00056ac:	90 10 00 10 	mov  %l0, %o0
a00056b0:	9f c6 40 00 	call  %i1
a00056b4:	01 00 00 00 	nop 
a00056b8:	a4 14 80 08 	or  %l2, %o0, %l2
a00056bc:	da 14 20 0c 	lduh  [ %l0 + 0xc ], %o5
a00056c0:	80 8b 62 00 	btst  0x200, %o5
a00056c4:	02 80 00 0b 	be  a00056f0 <_fwalk+0xa8>
a00056c8:	90 04 20 58 	add  %l0, 0x58, %o0
a00056cc:	a0 04 20 cc 	add  %l0, 0xcc, %l0
a00056d0:	a2 84 7f ff 	addcc  %l1, -1, %l1
a00056d4:	3c bf ff e8 	bpos,a   a0005674 <_fwalk+0x2c>
a00056d8:	da 14 20 0c 	lduh  [ %l0 + 0xc ], %o5
a00056dc:	f0 06 00 00 	ld  [ %i0 ], %i0
a00056e0:	80 a6 20 00 	cmp  %i0, 0
a00056e4:	32 bf ff e0 	bne,a   a0005664 <_fwalk+0x1c>
a00056e8:	e2 06 20 04 	ld  [ %i0 + 4 ], %l1
a00056ec:	30 80 00 09 	b,a   a0005710 <_fwalk+0xc8>
a00056f0:	40 00 0b c4 	call  a0008600 <___st_pthread_mutex_unlock>
a00056f4:	a0 04 20 cc 	add  %l0, 0xcc, %l0
a00056f8:	10 bf ff f7 	b  a00056d4 <_fwalk+0x8c>
a00056fc:	a2 84 7f ff 	addcc  %l1, -1, %l1
a0005700:	40 00 0b a8 	call  a00085a0 <___st_pthread_mutex_lock>
a0005704:	01 00 00 00 	nop 
a0005708:	10 bf ff e2 	b  a0005690 <_fwalk+0x48>
a000570c:	da 14 20 0c 	lduh  [ %l0 + 0xc ], %o5
a0005710:	7f ff fd 72 	call  a0004cd8 <__sfp_lock_release>
a0005714:	b0 10 00 12 	mov  %l2, %i0
a0005718:	01 00 00 00 	nop 
a000571c:	81 c7 e0 08 	ret 
a0005720:	81 e8 00 00 	restore 

a0005724 <_fwalk_reent>:
a0005724:	9d e3 bf 98 	save  %sp, -104, %sp
a0005728:	7f ff fd 66 	call  a0004cc0 <__sfp_lock_acquire>
a000572c:	a6 10 20 00 	clr  %l3
a0005730:	a4 86 22 e0 	addcc  %i0, 0x2e0, %l2
a0005734:	02 80 00 2f 	be  a00057f0 <_fwalk_reent+0xcc>
a0005738:	01 00 00 00 	nop 
a000573c:	e2 04 a0 04 	ld  [ %l2 + 4 ], %l1
a0005740:	a2 84 7f ff 	addcc  %l1, -1, %l1
a0005744:	0c 80 00 1e 	bneg  a00057bc <_fwalk_reent+0x98>
a0005748:	e0 04 a0 08 	ld  [ %l2 + 8 ], %l0
a000574c:	da 14 20 0c 	lduh  [ %l0 + 0xc ], %o5
a0005750:	83 2b 60 10 	sll  %o5, 0x10, %g1
a0005754:	80 a0 60 00 	cmp  %g1, 0
a0005758:	02 80 00 15 	be  a00057ac <_fwalk_reent+0x88>
a000575c:	99 30 60 10 	srl  %g1, 0x10, %o4
a0005760:	80 8b 22 00 	btst  0x200, %o4
a0005764:	02 80 00 1f 	be  a00057e0 <_fwalk_reent+0xbc>
a0005768:	90 04 20 58 	add  %l0, 0x58, %o0
a000576c:	83 2b 60 10 	sll  %o5, 0x10, %g1
a0005770:	80 a0 60 00 	cmp  %g1, 0
a0005774:	02 80 00 0c 	be  a00057a4 <_fwalk_reent+0x80>
a0005778:	80 8b 62 00 	btst  0x200, %o5
a000577c:	c2 54 20 0e 	ldsh  [ %l0 + 0xe ], %g1
a0005780:	92 10 00 10 	mov  %l0, %o1
a0005784:	80 a0 7f ff 	cmp  %g1, -1
a0005788:	02 80 00 06 	be  a00057a0 <_fwalk_reent+0x7c>
a000578c:	90 10 00 18 	mov  %i0, %o0
a0005790:	9f c6 40 00 	call  %i1
a0005794:	01 00 00 00 	nop 
a0005798:	a6 14 c0 08 	or  %l3, %o0, %l3
a000579c:	da 14 20 0c 	lduh  [ %l0 + 0xc ], %o5
a00057a0:	80 8b 62 00 	btst  0x200, %o5
a00057a4:	02 80 00 0b 	be  a00057d0 <_fwalk_reent+0xac>
a00057a8:	90 04 20 58 	add  %l0, 0x58, %o0
a00057ac:	a0 04 20 cc 	add  %l0, 0xcc, %l0
a00057b0:	a2 84 7f ff 	addcc  %l1, -1, %l1
a00057b4:	3c bf ff e7 	bpos,a   a0005750 <_fwalk_reent+0x2c>
a00057b8:	da 14 20 0c 	lduh  [ %l0 + 0xc ], %o5
a00057bc:	e4 04 80 00 	ld  [ %l2 ], %l2
a00057c0:	80 a4 a0 00 	cmp  %l2, 0
a00057c4:	32 bf ff df 	bne,a   a0005740 <_fwalk_reent+0x1c>
a00057c8:	e2 04 a0 04 	ld  [ %l2 + 4 ], %l1
a00057cc:	30 80 00 09 	b,a   a00057f0 <_fwalk_reent+0xcc>
a00057d0:	40 00 0b 8c 	call  a0008600 <___st_pthread_mutex_unlock>
a00057d4:	a0 04 20 cc 	add  %l0, 0xcc, %l0
a00057d8:	10 bf ff f7 	b  a00057b4 <_fwalk_reent+0x90>
a00057dc:	a2 84 7f ff 	addcc  %l1, -1, %l1
a00057e0:	40 00 0b 70 	call  a00085a0 <___st_pthread_mutex_lock>
a00057e4:	01 00 00 00 	nop 
a00057e8:	10 bf ff e1 	b  a000576c <_fwalk_reent+0x48>
a00057ec:	da 14 20 0c 	lduh  [ %l0 + 0xc ], %o5
a00057f0:	7f ff fd 3a 	call  a0004cd8 <__sfp_lock_release>
a00057f4:	b0 10 00 13 	mov  %l3, %i0
a00057f8:	01 00 00 00 	nop 
a00057fc:	81 c7 e0 08 	ret 
a0005800:	81 e8 00 00 	restore 

a0005804 <_setlocale_r>:
a0005804:	9d e3 bf 98 	save  %sp, -104, %sp
a0005808:	21 28 00 27 	sethi  %hi(0xa0009c00), %l0
a000580c:	92 14 21 b8 	or  %l0, 0x1b8, %o1	! a0009db8 <_global_impure_ptr+0x4>
a0005810:	90 10 00 1a 	mov  %i2, %o0
a0005814:	80 a6 a0 00 	cmp  %i2, 0
a0005818:	02 80 00 0b 	be  a0005844 <_setlocale_r+0x40>
a000581c:	a2 10 00 18 	mov  %i0, %l1
a0005820:	40 00 05 49 	call  a0006d44 <strcmp>
a0005824:	01 00 00 00 	nop 
a0005828:	13 28 00 27 	sethi  %hi(0xa0009c00), %o1
a000582c:	80 a2 20 00 	cmp  %o0, 0
a0005830:	92 12 62 28 	or  %o1, 0x228, %o1
a0005834:	12 80 00 06 	bne  a000584c <_setlocale_r+0x48>
a0005838:	90 10 00 1a 	mov  %i2, %o0
a000583c:	f4 24 60 34 	st  %i2, [ %l1 + 0x34 ]
a0005840:	f2 24 60 30 	st  %i1, [ %l1 + 0x30 ]
a0005844:	10 80 00 0a 	b  a000586c <_setlocale_r+0x68>
a0005848:	b0 14 21 b8 	or  %l0, 0x1b8, %i0
a000584c:	40 00 05 3e 	call  a0006d44 <strcmp>
a0005850:	b0 10 20 00 	clr  %i0
a0005854:	80 a2 20 00 	cmp  %o0, 0
a0005858:	12 80 00 05 	bne  a000586c <_setlocale_r+0x68>
a000585c:	01 00 00 00 	nop 
a0005860:	f4 24 60 34 	st  %i2, [ %l1 + 0x34 ]
a0005864:	10 bf ff f8 	b  a0005844 <_setlocale_r+0x40>
a0005868:	f2 24 60 30 	st  %i1, [ %l1 + 0x30 ]
a000586c:	81 c7 e0 08 	ret 
a0005870:	81 e8 00 00 	restore 

a0005874 <__locale_charset>:
a0005874:	03 28 00 29 	sethi  %hi(0xa000a400), %g1
a0005878:	81 c3 e0 08 	retl 
a000587c:	d0 00 60 c0 	ld  [ %g1 + 0xc0 ], %o0	! a000a4c0 <charset>

a0005880 <_localeconv_r>:
a0005880:	11 28 00 27 	sethi  %hi(0xa0009c00), %o0
a0005884:	81 c3 e0 08 	retl 
a0005888:	90 12 22 6c 	or  %o0, 0x26c, %o0	! a0009e6c <lconv>

a000588c <setlocale>:
a000588c:	82 10 00 08 	mov  %o0, %g1
a0005890:	94 10 00 09 	mov  %o1, %o2
a0005894:	1b 28 00 29 	sethi  %hi(0xa000a400), %o5
a0005898:	92 10 00 01 	mov  %g1, %o1
a000589c:	d0 03 60 30 	ld  [ %o5 + 0x30 ], %o0
a00058a0:	82 13 c0 00 	mov  %o7, %g1
a00058a4:	7f ff ff d8 	call  a0005804 <_setlocale_r>
a00058a8:	9e 10 40 00 	mov  %g1, %o7
a00058ac:	01 00 00 00 	nop 

a00058b0 <localeconv>:
a00058b0:	03 28 00 29 	sethi  %hi(0xa000a400), %g1
a00058b4:	d0 00 60 30 	ld  [ %g1 + 0x30 ], %o0	! a000a430 <_impure_ptr>
a00058b8:	82 13 c0 00 	mov  %o7, %g1
a00058bc:	7f ff ff f1 	call  a0005880 <_localeconv_r>
a00058c0:	9e 10 40 00 	mov  %g1, %o7
a00058c4:	01 00 00 00 	nop 

a00058c8 <__smakebuf>:
a00058c8:	9d e3 bf 58 	save  %sp, -168, %sp
a00058cc:	c2 16 20 0c 	lduh  [ %i0 + 0xc ], %g1
a00058d0:	80 88 60 02 	btst  2, %g1
a00058d4:	22 80 00 08 	be,a   a00058f4 <__smakebuf+0x2c>
a00058d8:	d2 56 20 0e 	ldsh  [ %i0 + 0xe ], %o1
a00058dc:	9a 06 20 43 	add  %i0, 0x43, %o5
a00058e0:	82 10 20 01 	mov  1, %g1
a00058e4:	c2 26 20 14 	st  %g1, [ %i0 + 0x14 ]
a00058e8:	da 26 20 10 	st  %o5, [ %i0 + 0x10 ]
a00058ec:	10 80 00 4d 	b  a0005a20 <__smakebuf+0x158>
a00058f0:	da 26 00 00 	st  %o5, [ %i0 ]
a00058f4:	80 a2 60 00 	cmp  %o1, 0
a00058f8:	06 80 00 16 	bl  a0005950 <__smakebuf+0x88>
a00058fc:	21 28 00 29 	sethi  %hi(0xa000a400), %l0
a0005900:	d0 04 20 30 	ld  [ %l0 + 0x30 ], %o0	! a000a430 <_impure_ptr>
a0005904:	40 00 05 e1 	call  a0007088 <_fstat_r>
a0005908:	94 07 bf b8 	add  %fp, -72, %o2
a000590c:	80 a2 20 00 	cmp  %o0, 0
a0005910:	06 80 00 42 	bl  a0005a18 <__smakebuf+0x150>
a0005914:	d8 17 bf c0 	lduh  [ %fp + -64 ], %o4
a0005918:	1b 00 00 3c 	sethi  %hi(0xf000), %o5
a000591c:	98 0b 00 0d 	and  %o4, %o5, %o4
a0005920:	03 00 00 08 	sethi  %hi(0x2000), %g1
a0005924:	82 1b 00 01 	xor  %o4, %g1, %g1
a0005928:	80 a0 00 01 	cmp  %g0, %g1
a000592c:	a4 60 3f ff 	subx  %g0, -1, %l2
a0005930:	03 00 00 20 	sethi  %hi(0x8000), %g1
a0005934:	80 a3 00 01 	cmp  %o4, %g1
a0005938:	02 80 00 25 	be  a00059cc <__smakebuf+0x104>
a000593c:	a2 10 24 00 	mov  0x400, %l1
a0005940:	c2 16 20 0c 	lduh  [ %i0 + 0xc ], %g1
a0005944:	82 10 68 00 	or  %g1, 0x800, %g1
a0005948:	10 80 00 06 	b  a0005960 <__smakebuf+0x98>
a000594c:	c2 36 20 0c 	sth  %g1, [ %i0 + 0xc ]
a0005950:	82 10 68 00 	or  %g1, 0x800, %g1
a0005954:	c2 36 20 0c 	sth  %g1, [ %i0 + 0xc ]
a0005958:	a4 10 20 00 	clr  %l2
a000595c:	a2 10 24 00 	mov  0x400, %l1
a0005960:	d0 04 20 30 	ld  [ %l0 + 0x30 ], %o0
a0005964:	40 00 00 3f 	call  a0005a60 <_malloc_r>
a0005968:	92 10 24 00 	mov  0x400, %o1
a000596c:	80 a2 20 00 	cmp  %o0, 0
a0005970:	02 80 00 21 	be  a00059f4 <__smakebuf+0x12c>
a0005974:	03 28 00 29 	sethi  %hi(0xa000a400), %g1
a0005978:	d8 00 60 30 	ld  [ %g1 + 0x30 ], %o4	! a000a430 <_impure_ptr>
a000597c:	da 16 20 0c 	lduh  [ %i0 + 0xc ], %o5
a0005980:	03 28 00 13 	sethi  %hi(0xa0004c00), %g1
a0005984:	9a 13 60 80 	or  %o5, 0x80, %o5
a0005988:	82 10 60 90 	or  %g1, 0x90, %g1
a000598c:	c2 23 20 3c 	st  %g1, [ %o4 + 0x3c ]
a0005990:	da 36 20 0c 	sth  %o5, [ %i0 + 0xc ]
a0005994:	d0 26 20 10 	st  %o0, [ %i0 + 0x10 ]
a0005998:	e2 26 20 14 	st  %l1, [ %i0 + 0x14 ]
a000599c:	80 a4 a0 00 	cmp  %l2, 0
a00059a0:	02 80 00 20 	be  a0005a20 <__smakebuf+0x158>
a00059a4:	d0 26 00 00 	st  %o0, [ %i0 ]
a00059a8:	40 00 07 f8 	call  a0007988 <isatty>
a00059ac:	d0 56 20 0e 	ldsh  [ %i0 + 0xe ], %o0
a00059b0:	80 a2 20 00 	cmp  %o0, 0
a00059b4:	02 80 00 1b 	be  a0005a20 <__smakebuf+0x158>
a00059b8:	01 00 00 00 	nop 
a00059bc:	c2 16 20 0c 	lduh  [ %i0 + 0xc ], %g1
a00059c0:	82 10 60 01 	or  %g1, 1, %g1
a00059c4:	10 80 00 17 	b  a0005a20 <__smakebuf+0x158>
a00059c8:	c2 36 20 0c 	sth  %g1, [ %i0 + 0xc ]
a00059cc:	03 28 00 1b 	sethi  %hi(0xa0006c00), %g1
a00059d0:	da 06 20 28 	ld  [ %i0 + 0x28 ], %o5
a00059d4:	82 10 60 d4 	or  %g1, 0xd4, %g1
a00059d8:	80 a3 40 01 	cmp  %o5, %g1
a00059dc:	12 bf ff da 	bne  a0005944 <__smakebuf+0x7c>
a00059e0:	c2 16 20 0c 	lduh  [ %i0 + 0xc ], %g1
a00059e4:	82 10 64 00 	or  %g1, 0x400, %g1
a00059e8:	c2 36 20 0c 	sth  %g1, [ %i0 + 0xc ]
a00059ec:	10 bf ff dd 	b  a0005960 <__smakebuf+0x98>
a00059f0:	e2 26 20 4c 	st  %l1, [ %i0 + 0x4c ]
a00059f4:	c2 16 20 0c 	lduh  [ %i0 + 0xc ], %g1
a00059f8:	98 06 20 43 	add  %i0, 0x43, %o4
a00059fc:	82 10 60 02 	or  %g1, 2, %g1
a0005a00:	9a 10 20 01 	mov  1, %o5
a0005a04:	da 26 20 14 	st  %o5, [ %i0 + 0x14 ]
a0005a08:	c2 36 20 0c 	sth  %g1, [ %i0 + 0xc ]
a0005a0c:	d8 26 20 10 	st  %o4, [ %i0 + 0x10 ]
a0005a10:	10 80 00 04 	b  a0005a20 <__smakebuf+0x158>
a0005a14:	d8 26 00 00 	st  %o4, [ %i0 ]
a0005a18:	10 bf ff ce 	b  a0005950 <__smakebuf+0x88>
a0005a1c:	c2 16 20 0c 	lduh  [ %i0 + 0xc ], %g1
a0005a20:	81 c7 e0 08 	ret 
a0005a24:	81 e8 00 00 	restore 

a0005a28 <malloc>:
a0005a28:	92 10 00 08 	mov  %o0, %o1
a0005a2c:	03 28 00 29 	sethi  %hi(0xa000a400), %g1
a0005a30:	d0 00 60 30 	ld  [ %g1 + 0x30 ], %o0	! a000a430 <_impure_ptr>
a0005a34:	82 13 c0 00 	mov  %o7, %g1
a0005a38:	40 00 00 0a 	call  a0005a60 <_malloc_r>
a0005a3c:	9e 10 40 00 	mov  %g1, %o7
a0005a40:	01 00 00 00 	nop 

a0005a44 <free>:
a0005a44:	92 10 00 08 	mov  %o0, %o1
a0005a48:	03 28 00 29 	sethi  %hi(0xa000a400), %g1
a0005a4c:	d0 00 60 30 	ld  [ %g1 + 0x30 ], %o0	! a000a430 <_impure_ptr>
a0005a50:	82 13 c0 00 	mov  %o7, %g1
a0005a54:	7f ff fd 4e 	call  a0004f8c <_free_r>
a0005a58:	9e 10 40 00 	mov  %g1, %o7
a0005a5c:	01 00 00 00 	nop 

a0005a60 <_malloc_r>:
a0005a60:	9d e3 bf 98 	save  %sp, -104, %sp
a0005a64:	82 06 60 0b 	add  %i1, 0xb, %g1
a0005a68:	80 a0 60 16 	cmp  %g1, 0x16
a0005a6c:	a6 10 00 18 	mov  %i0, %l3
a0005a70:	18 80 00 03 	bgu  a0005a7c <_malloc_r+0x1c>
a0005a74:	a0 08 7f f8 	and  %g1, -8, %l0
a0005a78:	a0 10 20 10 	mov  0x10, %l0
a0005a7c:	80 a4 00 19 	cmp  %l0, %i1
a0005a80:	9a 40 20 00 	addx  %g0, 0, %o5
a0005a84:	83 34 20 1f 	srl  %l0, 0x1f, %g1
a0005a88:	80 90 40 0d 	orcc  %g1, %o5, %g0
a0005a8c:	12 80 01 b0 	bne  a000614c <_malloc_r+0x6ec>
a0005a90:	b0 10 20 00 	clr  %i0
a0005a94:	40 00 02 5d 	call  a0006408 <__malloc_lock>
a0005a98:	90 10 00 13 	mov  %l3, %o0
a0005a9c:	80 a4 21 f7 	cmp  %l0, 0x1f7
a0005aa0:	18 80 00 17 	bgu  a0005afc <_malloc_r+0x9c>
a0005aa4:	99 34 20 09 	srl  %l0, 9, %o4
a0005aa8:	39 28 00 29 	sethi  %hi(0xa000a400), %i4
a0005aac:	82 17 20 d0 	or  %i4, 0xd0, %g1	! a000a4d0 <__malloc_av_>
a0005ab0:	98 04 00 01 	add  %l0, %g1, %o4
a0005ab4:	f0 03 20 0c 	ld  [ %o4 + 0xc ], %i0
a0005ab8:	80 a6 00 0c 	cmp  %i0, %o4
a0005abc:	02 80 00 4e 	be  a0005bf4 <_malloc_r+0x194>
a0005ac0:	9f 34 20 03 	srl  %l0, 3, %o7
a0005ac4:	c2 06 20 04 	ld  [ %i0 + 4 ], %g1
a0005ac8:	94 08 7f fc 	and  %g1, -4, %o2
a0005acc:	9a 06 00 0a 	add  %i0, %o2, %o5
a0005ad0:	c2 03 60 04 	ld  [ %o5 + 4 ], %g1
a0005ad4:	82 10 60 01 	or  %g1, 1, %g1
a0005ad8:	d0 06 20 0c 	ld  [ %i0 + 0xc ], %o0
a0005adc:	d2 06 20 08 	ld  [ %i0 + 8 ], %o1
a0005ae0:	d2 22 20 08 	st  %o1, [ %o0 + 8 ]
a0005ae4:	c2 23 60 04 	st  %g1, [ %o5 + 4 ]
a0005ae8:	d0 22 60 0c 	st  %o0, [ %o1 + 0xc ]
a0005aec:	40 00 02 4d 	call  a0006420 <__malloc_unlock>
a0005af0:	90 10 00 13 	mov  %l3, %o0
a0005af4:	10 80 01 96 	b  a000614c <_malloc_r+0x6ec>
a0005af8:	b0 06 20 08 	add  %i0, 8, %i0
a0005afc:	80 a3 20 00 	cmp  %o4, 0
a0005b00:	12 80 00 28 	bne  a0005ba0 <_malloc_r+0x140>
a0005b04:	9f 34 20 03 	srl  %l0, 3, %o7
a0005b08:	39 28 00 29 	sethi  %hi(0xa000a400), %i4
a0005b0c:	9b 2b e0 03 	sll  %o7, 3, %o5
a0005b10:	82 17 20 d0 	or  %i4, 0xd0, %g1
a0005b14:	9a 03 40 01 	add  %o5, %g1, %o5
a0005b18:	10 80 00 0a 	b  a0005b40 <_malloc_r+0xe0>
a0005b1c:	f0 03 60 0c 	ld  [ %o5 + 0xc ], %i0
a0005b20:	94 08 7f fc 	and  %g1, -4, %o2
a0005b24:	96 22 80 10 	sub  %o2, %l0, %o3
a0005b28:	80 a2 e0 0f 	cmp  %o3, 0xf
a0005b2c:	14 80 01 09 	bg  a0005f50 <_malloc_r+0x4f0>
a0005b30:	80 a2 e0 00 	cmp  %o3, 0
a0005b34:	36 bf ff e7 	bge,a   a0005ad0 <_malloc_r+0x70>
a0005b38:	9a 06 00 0a 	add  %i0, %o2, %o5
a0005b3c:	f0 06 20 0c 	ld  [ %i0 + 0xc ], %i0
a0005b40:	80 a6 00 0d 	cmp  %i0, %o5
a0005b44:	32 bf ff f7 	bne,a   a0005b20 <_malloc_r+0xc0>
a0005b48:	c2 06 20 04 	ld  [ %i0 + 4 ], %g1
a0005b4c:	9e 03 e0 01 	inc  %o7
a0005b50:	25 28 00 29 	sethi  %hi(0xa000a400), %l2
a0005b54:	98 14 a0 d8 	or  %l2, 0xd8, %o4	! a000a4d8 <__malloc_av_+0x8>
a0005b58:	f0 03 20 08 	ld  [ %o4 + 8 ], %i0
a0005b5c:	80 a6 00 0c 	cmp  %i0, %o4
a0005b60:	02 80 00 5d 	be  a0005cd4 <_malloc_r+0x274>
a0005b64:	83 3b e0 1f 	sra  %o7, 0x1f, %g1
a0005b68:	c2 06 20 04 	ld  [ %i0 + 4 ], %g1
a0005b6c:	94 08 7f fc 	and  %g1, -4, %o2
a0005b70:	96 22 80 10 	sub  %o2, %l0, %o3
a0005b74:	80 a2 e0 0f 	cmp  %o3, 0xf
a0005b78:	14 80 00 9f 	bg  a0005df4 <_malloc_r+0x394>
a0005b7c:	80 a2 e0 00 	cmp  %o3, 0
a0005b80:	d8 23 20 0c 	st  %o4, [ %o4 + 0xc ]
a0005b84:	06 80 00 23 	bl  a0005c10 <_malloc_r+0x1b0>
a0005b88:	d8 23 20 08 	st  %o4, [ %o4 + 8 ]
a0005b8c:	9a 06 00 0a 	add  %i0, %o2, %o5
a0005b90:	c2 03 60 04 	ld  [ %o5 + 4 ], %g1
a0005b94:	82 10 60 01 	or  %g1, 1, %g1
a0005b98:	10 bf ff d5 	b  a0005aec <_malloc_r+0x8c>
a0005b9c:	c2 23 60 04 	st  %g1, [ %o5 + 4 ]
a0005ba0:	83 34 20 06 	srl  %l0, 6, %g1
a0005ba4:	80 a3 20 04 	cmp  %o4, 4
a0005ba8:	08 bf ff d8 	bleu  a0005b08 <_malloc_r+0xa8>
a0005bac:	9e 00 60 38 	add  %g1, 0x38, %o7
a0005bb0:	80 a3 20 14 	cmp  %o4, 0x14
a0005bb4:	08 bf ff d5 	bleu  a0005b08 <_malloc_r+0xa8>
a0005bb8:	9e 03 20 5b 	add  %o4, 0x5b, %o7
a0005bbc:	83 34 20 0c 	srl  %l0, 0xc, %g1
a0005bc0:	80 a3 20 54 	cmp  %o4, 0x54
a0005bc4:	08 bf ff d1 	bleu  a0005b08 <_malloc_r+0xa8>
a0005bc8:	9e 00 60 6e 	add  %g1, 0x6e, %o7
a0005bcc:	83 34 20 0f 	srl  %l0, 0xf, %g1
a0005bd0:	80 a3 21 54 	cmp  %o4, 0x154
a0005bd4:	08 bf ff cd 	bleu  a0005b08 <_malloc_r+0xa8>
a0005bd8:	9e 00 60 77 	add  %g1, 0x77, %o7
a0005bdc:	83 34 20 12 	srl  %l0, 0x12, %g1
a0005be0:	80 a3 25 54 	cmp  %o4, 0x554
a0005be4:	08 bf ff c9 	bleu  a0005b08 <_malloc_r+0xa8>
a0005be8:	9e 00 60 7c 	add  %g1, 0x7c, %o7
a0005bec:	10 bf ff c7 	b  a0005b08 <_malloc_r+0xa8>
a0005bf0:	9e 10 20 7e 	mov  0x7e, %o7
a0005bf4:	98 06 20 08 	add  %i0, 8, %o4
a0005bf8:	f0 03 20 0c 	ld  [ %o4 + 0xc ], %i0
a0005bfc:	80 a6 00 0c 	cmp  %i0, %o4
a0005c00:	32 bf ff b2 	bne,a   a0005ac8 <_malloc_r+0x68>
a0005c04:	c2 06 20 04 	ld  [ %i0 + 4 ], %g1
a0005c08:	10 bf ff d2 	b  a0005b50 <_malloc_r+0xf0>
a0005c0c:	9e 03 e0 02 	add  %o7, 2, %o7
a0005c10:	80 a2 a1 ff 	cmp  %o2, 0x1ff
a0005c14:	08 80 00 be 	bleu  a0005f0c <_malloc_r+0x4ac>
a0005c18:	9b 32 a0 03 	srl  %o2, 3, %o5
a0005c1c:	97 32 a0 09 	srl  %o2, 9, %o3
a0005c20:	80 a2 e0 00 	cmp  %o3, 0
a0005c24:	22 80 00 17 	be,a   a0005c80 <_malloc_r+0x220>
a0005c28:	96 17 20 d0 	or  %i4, 0xd0, %o3
a0005c2c:	83 32 a0 06 	srl  %o2, 6, %g1
a0005c30:	80 a2 e0 04 	cmp  %o3, 4
a0005c34:	08 80 00 12 	bleu  a0005c7c <_malloc_r+0x21c>
a0005c38:	9a 00 60 38 	add  %g1, 0x38, %o5
a0005c3c:	80 a2 e0 14 	cmp  %o3, 0x14
a0005c40:	08 80 00 0f 	bleu  a0005c7c <_malloc_r+0x21c>
a0005c44:	9a 02 e0 5b 	add  %o3, 0x5b, %o5
a0005c48:	83 32 a0 0c 	srl  %o2, 0xc, %g1
a0005c4c:	80 a2 e0 54 	cmp  %o3, 0x54
a0005c50:	08 80 00 0b 	bleu  a0005c7c <_malloc_r+0x21c>
a0005c54:	9a 00 60 6e 	add  %g1, 0x6e, %o5
a0005c58:	83 32 a0 0f 	srl  %o2, 0xf, %g1
a0005c5c:	80 a2 e1 54 	cmp  %o3, 0x154
a0005c60:	08 80 00 07 	bleu  a0005c7c <_malloc_r+0x21c>
a0005c64:	9a 00 60 77 	add  %g1, 0x77, %o5
a0005c68:	83 32 a0 12 	srl  %o2, 0x12, %g1
a0005c6c:	80 a2 e5 54 	cmp  %o3, 0x554
a0005c70:	08 80 00 03 	bleu  a0005c7c <_malloc_r+0x21c>
a0005c74:	9a 00 60 7c 	add  %g1, 0x7c, %o5
a0005c78:	9a 10 20 7e 	mov  0x7e, %o5
a0005c7c:	96 17 20 d0 	or  %i4, 0xd0, %o3
a0005c80:	83 2b 60 03 	sll  %o5, 3, %g1
a0005c84:	90 00 40 0b 	add  %g1, %o3, %o0
a0005c88:	d2 02 20 08 	ld  [ %o0 + 8 ], %o1
a0005c8c:	80 a2 40 08 	cmp  %o1, %o0
a0005c90:	22 80 01 0f 	be,a   a00060cc <_malloc_r+0x66c>
a0005c94:	99 33 60 02 	srl  %o5, 2, %o4
a0005c98:	c2 02 60 04 	ld  [ %o1 + 4 ], %g1
a0005c9c:	82 08 7f fc 	and  %g1, -4, %g1
a0005ca0:	80 a0 40 0a 	cmp  %g1, %o2
a0005ca4:	28 80 00 07 	bleu,a   a0005cc0 <_malloc_r+0x260>
a0005ca8:	d0 02 60 0c 	ld  [ %o1 + 0xc ], %o0
a0005cac:	d2 02 60 08 	ld  [ %o1 + 8 ], %o1
a0005cb0:	80 a2 40 08 	cmp  %o1, %o0
a0005cb4:	32 bf ff fa 	bne,a   a0005c9c <_malloc_r+0x23c>
a0005cb8:	c2 02 60 04 	ld  [ %o1 + 4 ], %g1
a0005cbc:	d0 02 60 0c 	ld  [ %o1 + 0xc ], %o0
a0005cc0:	d0 26 20 0c 	st  %o0, [ %i0 + 0xc ]
a0005cc4:	d2 26 20 08 	st  %o1, [ %i0 + 8 ]
a0005cc8:	f0 22 60 0c 	st  %i0, [ %o1 + 0xc ]
a0005ccc:	f0 22 20 08 	st  %i0, [ %o0 + 8 ]
a0005cd0:	83 3b e0 1f 	sra  %o7, 0x1f, %g1
a0005cd4:	83 30 60 1e 	srl  %g1, 0x1e, %g1
a0005cd8:	82 03 c0 01 	add  %o7, %g1, %g1
a0005cdc:	39 28 00 29 	sethi  %hi(0xa000a400), %i4
a0005ce0:	83 38 60 02 	sra  %g1, 2, %g1
a0005ce4:	98 17 20 d0 	or  %i4, 0xd0, %o4
a0005ce8:	9a 10 20 01 	mov  1, %o5
a0005cec:	93 2b 40 01 	sll  %o5, %g1, %o1
a0005cf0:	d8 03 20 04 	ld  [ %o4 + 4 ], %o4
a0005cf4:	80 a2 40 0c 	cmp  %o1, %o4
a0005cf8:	18 80 00 4b 	bgu  a0005e24 <_malloc_r+0x3c4>
a0005cfc:	ae 17 20 d0 	or  %i4, 0xd0, %l7
a0005d00:	80 8b 00 09 	btst  %o4, %o1
a0005d04:	12 80 00 0d 	bne  a0005d38 <_malloc_r+0x2d8>
a0005d08:	03 28 00 29 	sethi  %hi(0xa000a400), %g1
a0005d0c:	82 0b ff fc 	and  %o7, -4, %g1
a0005d10:	92 02 40 09 	add  %o1, %o1, %o1
a0005d14:	80 8b 00 09 	btst  %o4, %o1
a0005d18:	12 80 00 07 	bne  a0005d34 <_malloc_r+0x2d4>
a0005d1c:	9e 00 60 04 	add  %g1, 4, %o7
a0005d20:	82 10 00 0c 	mov  %o4, %g1
a0005d24:	92 02 40 09 	add  %o1, %o1, %o1
a0005d28:	80 88 40 09 	btst  %g1, %o1
a0005d2c:	02 bf ff fe 	be  a0005d24 <_malloc_r+0x2c4>
a0005d30:	9e 03 e0 04 	add  %o7, 4, %o7
a0005d34:	03 28 00 29 	sethi  %hi(0xa000a400), %g1
a0005d38:	a2 10 60 d0 	or  %g1, 0xd0, %l1	! a000a4d0 <__malloc_av_>
a0005d3c:	a8 10 00 11 	mov  %l1, %l4
a0005d40:	83 2b e0 03 	sll  %o7, 3, %g1
a0005d44:	98 00 40 11 	add  %g1, %l1, %o4
a0005d48:	90 10 00 0f 	mov  %o7, %o0
a0005d4c:	9a 10 00 0c 	mov  %o4, %o5
a0005d50:	10 80 00 0a 	b  a0005d78 <_malloc_r+0x318>
a0005d54:	f0 03 60 0c 	ld  [ %o5 + 0xc ], %i0
a0005d58:	94 08 7f fc 	and  %g1, -4, %o2
a0005d5c:	96 22 80 10 	sub  %o2, %l0, %o3
a0005d60:	80 a2 e0 0f 	cmp  %o3, 0xf
a0005d64:	14 80 00 7d 	bg  a0005f58 <_malloc_r+0x4f8>
a0005d68:	80 a2 e0 00 	cmp  %o3, 0
a0005d6c:	36 80 00 8b 	bge,a   a0005f98 <_malloc_r+0x538>
a0005d70:	9a 06 00 0a 	add  %i0, %o2, %o5
a0005d74:	f0 06 20 0c 	ld  [ %i0 + 0xc ], %i0
a0005d78:	80 a6 00 0d 	cmp  %i0, %o5
a0005d7c:	32 bf ff f7 	bne,a   a0005d58 <_malloc_r+0x2f8>
a0005d80:	c2 06 20 04 	ld  [ %i0 + 4 ], %g1
a0005d84:	9e 03 e0 01 	inc  %o7
a0005d88:	80 8b e0 03 	btst  3, %o7
a0005d8c:	12 bf ff f1 	bne  a0005d50 <_malloc_r+0x2f0>
a0005d90:	9a 03 60 08 	add  %o5, 8, %o5
a0005d94:	80 8a 20 03 	btst  3, %o0
a0005d98:	98 03 3f f8 	add  %o4, -8, %o4
a0005d9c:	02 80 00 d4 	be  a00060ec <_malloc_r+0x68c>
a0005da0:	90 02 3f ff 	add  %o0, -1, %o0
a0005da4:	c2 03 20 08 	ld  [ %o4 + 8 ], %g1
a0005da8:	80 a0 40 0c 	cmp  %g1, %o4
a0005dac:	02 bf ff fb 	be  a0005d98 <_malloc_r+0x338>
a0005db0:	80 8a 20 03 	btst  3, %o0
a0005db4:	92 02 40 09 	add  %o1, %o1, %o1
a0005db8:	c2 05 20 04 	ld  [ %l4 + 4 ], %g1
a0005dbc:	80 a2 40 01 	cmp  %o1, %g1
a0005dc0:	18 80 00 18 	bgu  a0005e20 <_malloc_r+0x3c0>
a0005dc4:	39 28 00 29 	sethi  %hi(0xa000a400), %i4
a0005dc8:	80 a2 60 00 	cmp  %o1, 0
a0005dcc:	12 80 00 06 	bne  a0005de4 <_malloc_r+0x384>
a0005dd0:	80 88 40 09 	btst  %g1, %o1
a0005dd4:	10 80 00 14 	b  a0005e24 <_malloc_r+0x3c4>
a0005dd8:	ae 17 20 d0 	or  %i4, 0xd0, %l7
a0005ddc:	9e 03 e0 04 	add  %o7, 4, %o7
a0005de0:	80 88 40 09 	btst  %g1, %o1
a0005de4:	22 bf ff fe 	be,a   a0005ddc <_malloc_r+0x37c>
a0005de8:	92 02 40 09 	add  %o1, %o1, %o1
a0005dec:	10 bf ff d6 	b  a0005d44 <_malloc_r+0x2e4>
a0005df0:	83 2b e0 03 	sll  %o7, 3, %g1
a0005df4:	82 14 20 01 	or  %l0, 1, %g1
a0005df8:	94 06 00 10 	add  %i0, %l0, %o2
a0005dfc:	c2 26 20 04 	st  %g1, [ %i0 + 4 ]
a0005e00:	d4 23 20 0c 	st  %o2, [ %o4 + 0xc ]
a0005e04:	d4 23 20 08 	st  %o2, [ %o4 + 8 ]
a0005e08:	82 12 e0 01 	or  %o3, 1, %g1
a0005e0c:	d6 22 80 0b 	st  %o3, [ %o2 + %o3 ]
a0005e10:	d8 22 a0 08 	st  %o4, [ %o2 + 8 ]
a0005e14:	c2 22 a0 04 	st  %g1, [ %o2 + 4 ]
a0005e18:	10 bf ff 35 	b  a0005aec <_malloc_r+0x8c>
a0005e1c:	d8 22 a0 0c 	st  %o4, [ %o2 + 0xc ]
a0005e20:	ae 17 20 d0 	or  %i4, 0xd0, %l7
a0005e24:	f0 05 e0 08 	ld  [ %l7 + 8 ], %i0
a0005e28:	c2 06 20 04 	ld  [ %i0 + 4 ], %g1
a0005e2c:	aa 08 7f fc 	and  %g1, -4, %l5
a0005e30:	80 a5 40 10 	cmp  %l5, %l0
a0005e34:	9a 40 20 00 	addx  %g0, 0, %o5
a0005e38:	96 25 40 10 	sub  %l5, %l0, %o3
a0005e3c:	80 a2 e0 0f 	cmp  %o3, 0xf
a0005e40:	14 80 00 42 	bg  a0005f48 <_malloc_r+0x4e8>
a0005e44:	82 10 20 01 	mov  1, %g1
a0005e48:	80 93 40 01 	orcc  %o5, %g1, %g0
a0005e4c:	02 80 00 27 	be  a0005ee8 <_malloc_r+0x488>
a0005e50:	03 28 00 2a 	sethi  %hi(0xa000a800), %g1
a0005e54:	da 00 62 d0 	ld  [ %g1 + 0x2d0 ], %o5	! a000aad0 <__malloc_top_pad>
a0005e58:	2d 28 00 29 	sethi  %hi(0xa000a400), %l6
a0005e5c:	9a 04 00 0d 	add  %l0, %o5, %o5
a0005e60:	c2 05 a0 c8 	ld  [ %l6 + 0xc8 ], %g1
a0005e64:	a8 10 00 15 	mov  %l5, %l4
a0005e68:	80 a0 7f ff 	cmp  %g1, -1
a0005e6c:	a2 03 60 10 	add  %o5, 0x10, %l1
a0005e70:	02 80 00 04 	be  a0005e80 <_malloc_r+0x420>
a0005e74:	a4 06 00 15 	add  %i0, %l5, %l2
a0005e78:	82 04 6f ff 	add  %l1, 0xfff, %g1
a0005e7c:	a2 08 70 00 	and  %g1, -4096, %l1
a0005e80:	90 10 00 13 	mov  %l3, %o0
a0005e84:	40 00 02 a9 	call  a0006928 <_sbrk_r>
a0005e88:	92 10 00 11 	mov  %l1, %o1
a0005e8c:	80 a2 3f ff 	cmp  %o0, -1
a0005e90:	02 80 00 08 	be  a0005eb0 <_malloc_r+0x450>
a0005e94:	b2 10 00 08 	mov  %o0, %i1
a0005e98:	80 a2 00 12 	cmp  %o0, %l2
a0005e9c:	1a 80 00 46 	bcc  a0005fb4 <_malloc_r+0x554>
a0005ea0:	3b 28 00 2a 	sethi  %hi(0xa000a800), %i5
a0005ea4:	80 a6 00 17 	cmp  %i0, %l7
a0005ea8:	22 80 00 44 	be,a   a0005fb8 <_malloc_r+0x558>
a0005eac:	c2 07 62 a0 	ld  [ %i5 + 0x2a0 ], %g1
a0005eb0:	82 17 20 d0 	or  %i4, 0xd0, %g1
a0005eb4:	d8 00 60 08 	ld  [ %g1 + 8 ], %o4
a0005eb8:	da 03 20 04 	ld  [ %o4 + 4 ], %o5
a0005ebc:	9a 0b 7f fc 	and  %o5, -4, %o5
a0005ec0:	80 a3 40 10 	cmp  %o5, %l0
a0005ec4:	98 40 20 00 	addx  %g0, 0, %o4
a0005ec8:	96 23 40 10 	sub  %o5, %l0, %o3
a0005ecc:	80 a2 e0 0f 	cmp  %o3, 0xf
a0005ed0:	04 80 00 03 	ble  a0005edc <_malloc_r+0x47c>
a0005ed4:	82 10 20 01 	mov  1, %g1
a0005ed8:	82 10 20 00 	clr  %g1
a0005edc:	80 93 00 01 	orcc  %o4, %g1, %g0
a0005ee0:	12 80 00 98 	bne  a0006140 <_malloc_r+0x6e0>
a0005ee4:	01 00 00 00 	nop 
a0005ee8:	98 17 20 d0 	or  %i4, 0xd0, %o4
a0005eec:	f0 03 20 08 	ld  [ %o4 + 8 ], %i0
a0005ef0:	82 14 20 01 	or  %l0, 1, %g1
a0005ef4:	c2 26 20 04 	st  %g1, [ %i0 + 4 ]
a0005ef8:	9a 06 00 10 	add  %i0, %l0, %o5
a0005efc:	82 12 e0 01 	or  %o3, 1, %g1
a0005f00:	c2 23 60 04 	st  %g1, [ %o5 + 4 ]
a0005f04:	10 bf fe fa 	b  a0005aec <_malloc_r+0x8c>
a0005f08:	da 23 20 08 	st  %o5, [ %o4 + 8 ]
a0005f0c:	98 03 3f f8 	add  %o4, -8, %o4
a0005f10:	83 2b 60 03 	sll  %o5, 3, %g1
a0005f14:	90 00 40 0c 	add  %g1, %o4, %o0
a0005f18:	9b 33 60 02 	srl  %o5, 2, %o5
a0005f1c:	82 10 20 01 	mov  1, %g1
a0005f20:	83 28 40 0d 	sll  %g1, %o5, %g1
a0005f24:	d2 02 20 08 	ld  [ %o0 + 8 ], %o1
a0005f28:	da 03 20 04 	ld  [ %o4 + 4 ], %o5
a0005f2c:	9a 13 40 01 	or  %o5, %g1, %o5
a0005f30:	d0 26 20 0c 	st  %o0, [ %i0 + 0xc ]
a0005f34:	d2 26 20 08 	st  %o1, [ %i0 + 8 ]
a0005f38:	f0 22 60 0c 	st  %i0, [ %o1 + 0xc ]
a0005f3c:	da 23 20 04 	st  %o5, [ %o4 + 4 ]
a0005f40:	10 bf ff 64 	b  a0005cd0 <_malloc_r+0x270>
a0005f44:	f0 22 20 08 	st  %i0, [ %o0 + 8 ]
a0005f48:	10 bf ff c0 	b  a0005e48 <_malloc_r+0x3e8>
a0005f4c:	82 10 20 00 	clr  %g1
a0005f50:	10 bf fe ff 	b  a0005b4c <_malloc_r+0xec>
a0005f54:	9e 03 ff ff 	add  %o7, -1, %o7
a0005f58:	d0 06 20 0c 	ld  [ %i0 + 0xc ], %o0
a0005f5c:	d2 06 20 08 	ld  [ %i0 + 8 ], %o1
a0005f60:	9a 14 20 01 	or  %l0, 1, %o5
a0005f64:	94 06 00 10 	add  %i0, %l0, %o2
a0005f68:	82 14 a0 d8 	or  %l2, 0xd8, %g1
a0005f6c:	d2 22 20 08 	st  %o1, [ %o0 + 8 ]
a0005f70:	d0 22 60 0c 	st  %o0, [ %o1 + 0xc ]
a0005f74:	da 26 20 04 	st  %o5, [ %i0 + 4 ]
a0005f78:	d4 20 60 0c 	st  %o2, [ %g1 + 0xc ]
a0005f7c:	d4 20 60 08 	st  %o2, [ %g1 + 8 ]
a0005f80:	9a 12 e0 01 	or  %o3, 1, %o5
a0005f84:	d6 22 80 0b 	st  %o3, [ %o2 + %o3 ]
a0005f88:	c2 22 a0 08 	st  %g1, [ %o2 + 8 ]
a0005f8c:	da 22 a0 04 	st  %o5, [ %o2 + 4 ]
a0005f90:	10 bf fe d7 	b  a0005aec <_malloc_r+0x8c>
a0005f94:	c2 22 a0 0c 	st  %g1, [ %o2 + 0xc ]
a0005f98:	c2 03 60 04 	ld  [ %o5 + 4 ], %g1
a0005f9c:	82 10 60 01 	or  %g1, 1, %g1
a0005fa0:	d0 06 20 0c 	ld  [ %i0 + 0xc ], %o0
a0005fa4:	d2 06 20 08 	ld  [ %i0 + 8 ], %o1
a0005fa8:	c2 23 60 04 	st  %g1, [ %o5 + 4 ]
a0005fac:	10 bf fe cf 	b  a0005ae8 <_malloc_r+0x88>
a0005fb0:	d2 22 20 08 	st  %o1, [ %o0 + 8 ]
a0005fb4:	c2 07 62 a0 	ld  [ %i5 + 0x2a0 ], %g1
a0005fb8:	82 00 40 11 	add  %g1, %l1, %g1
a0005fbc:	80 a6 40 12 	cmp  %i1, %l2
a0005fc0:	02 80 00 4f 	be  a00060fc <_malloc_r+0x69c>
a0005fc4:	c2 27 62 a0 	st  %g1, [ %i5 + 0x2a0 ]
a0005fc8:	c2 05 a0 c8 	ld  [ %l6 + 0xc8 ], %g1
a0005fcc:	80 a0 7f ff 	cmp  %g1, -1
a0005fd0:	02 80 00 45 	be  a00060e4 <_malloc_r+0x684>
a0005fd4:	c2 07 62 a0 	ld  [ %i5 + 0x2a0 ], %g1
a0005fd8:	9a 26 40 12 	sub  %i1, %l2, %o5
a0005fdc:	82 00 40 0d 	add  %g1, %o5, %g1
a0005fe0:	c2 27 62 a0 	st  %g1, [ %i5 + 0x2a0 ]
a0005fe4:	9a 8e 60 07 	andcc  %i1, 7, %o5
a0005fe8:	02 80 00 05 	be  a0005ffc <_malloc_r+0x59c>
a0005fec:	a4 10 20 00 	clr  %l2
a0005ff0:	82 10 20 08 	mov  8, %g1
a0005ff4:	a4 20 40 0d 	sub  %g1, %o5, %l2
a0005ff8:	b2 06 40 12 	add  %i1, %l2, %i1
a0005ffc:	9a 06 40 11 	add  %i1, %l1, %o5
a0006000:	9a 0b 6f ff 	and  %o5, 0xfff, %o5
a0006004:	03 00 00 04 	sethi  %hi(0x1000), %g1
a0006008:	82 20 40 0d 	sub  %g1, %o5, %g1
a000600c:	a4 04 80 01 	add  %l2, %g1, %l2
a0006010:	90 10 00 13 	mov  %l3, %o0
a0006014:	40 00 02 45 	call  a0006928 <_sbrk_r>
a0006018:	92 10 00 12 	mov  %l2, %o1
a000601c:	80 a2 3f ff 	cmp  %o0, -1
a0006020:	22 80 00 3f 	be,a   a000611c <_malloc_r+0x6bc>
a0006024:	a4 10 20 00 	clr  %l2
a0006028:	82 22 00 19 	sub  %o0, %i1, %g1
a000602c:	90 00 40 12 	add  %g1, %l2, %o0
a0006030:	82 17 20 d0 	or  %i4, 0xd0, %g1
a0006034:	da 07 62 a0 	ld  [ %i5 + 0x2a0 ], %o5
a0006038:	9a 03 40 12 	add  %o5, %l2, %o5
a000603c:	80 a6 00 01 	cmp  %i0, %g1
a0006040:	f2 20 60 08 	st  %i1, [ %g1 + 8 ]
a0006044:	da 27 62 a0 	st  %o5, [ %i5 + 0x2a0 ]
a0006048:	02 80 00 37 	be  a0006124 <_malloc_r+0x6c4>
a000604c:	82 12 20 01 	or  %o0, 1, %g1
a0006050:	80 a5 60 0f 	cmp  %l5, 0xf
a0006054:	38 80 00 05 	bgu,a   a0006068 <_malloc_r+0x608>
a0006058:	c2 26 60 04 	st  %g1, [ %i1 + 4 ]
a000605c:	82 10 20 01 	mov  1, %g1
a0006060:	10 bf ff 94 	b  a0005eb0 <_malloc_r+0x450>
a0006064:	c2 26 60 04 	st  %g1, [ %i1 + 4 ]
a0006068:	c2 06 20 04 	ld  [ %i0 + 4 ], %g1
a000606c:	9a 05 7f f4 	add  %l5, -12, %o5
a0006070:	a8 0b 7f f8 	and  %o5, -8, %l4
a0006074:	82 08 60 01 	and  %g1, 1, %g1
a0006078:	82 10 40 14 	or  %g1, %l4, %g1
a000607c:	c2 26 20 04 	st  %g1, [ %i0 + 4 ]
a0006080:	9a 06 00 14 	add  %i0, %l4, %o5
a0006084:	82 10 20 05 	mov  5, %g1
a0006088:	c2 23 60 08 	st  %g1, [ %o5 + 8 ]
a000608c:	80 a5 20 0f 	cmp  %l4, 0xf
a0006090:	18 80 00 27 	bgu  a000612c <_malloc_r+0x6cc>
a0006094:	c2 23 60 04 	st  %g1, [ %o5 + 4 ]
a0006098:	19 28 00 2a 	sethi  %hi(0xa000a800), %o4
a000609c:	da 07 62 a0 	ld  [ %i5 + 0x2a0 ], %o5
a00060a0:	c2 03 22 cc 	ld  [ %o4 + 0x2cc ], %g1
a00060a4:	80 a3 40 01 	cmp  %o5, %g1
a00060a8:	38 80 00 02 	bgu,a   a00060b0 <_malloc_r+0x650>
a00060ac:	da 23 22 cc 	st  %o5, [ %o4 + 0x2cc ]
a00060b0:	19 28 00 2a 	sethi  %hi(0xa000a800), %o4
a00060b4:	c2 03 22 c8 	ld  [ %o4 + 0x2c8 ], %g1	! a000aac8 <__malloc_max_total_mem>
a00060b8:	80 a3 40 01 	cmp  %o5, %g1
a00060bc:	38 bf ff 7d 	bgu,a   a0005eb0 <_malloc_r+0x450>
a00060c0:	da 23 22 c8 	st  %o5, [ %o4 + 0x2c8 ]
a00060c4:	10 bf ff 7c 	b  a0005eb4 <_malloc_r+0x454>
a00060c8:	82 17 20 d0 	or  %i4, 0xd0, %g1
a00060cc:	9a 10 20 01 	mov  1, %o5
a00060d0:	c2 02 e0 04 	ld  [ %o3 + 4 ], %g1
a00060d4:	9b 2b 40 0c 	sll  %o5, %o4, %o5
a00060d8:	82 10 40 0d 	or  %g1, %o5, %g1
a00060dc:	10 bf fe f9 	b  a0005cc0 <_malloc_r+0x260>
a00060e0:	c2 22 e0 04 	st  %g1, [ %o3 + 4 ]
a00060e4:	10 bf ff c0 	b  a0005fe4 <_malloc_r+0x584>
a00060e8:	f2 25 a0 c8 	st  %i1, [ %l6 + 0xc8 ]
a00060ec:	c2 04 60 04 	ld  [ %l1 + 4 ], %g1
a00060f0:	82 28 40 09 	andn  %g1, %o1, %g1
a00060f4:	10 bf ff 30 	b  a0005db4 <_malloc_r+0x354>
a00060f8:	c2 24 60 04 	st  %g1, [ %l1 + 4 ]
a00060fc:	80 8e 6f ff 	btst  0xfff, %i1
a0006100:	12 bf ff b3 	bne  a0005fcc <_malloc_r+0x56c>
a0006104:	c2 05 a0 c8 	ld  [ %l6 + 0xc8 ], %g1
a0006108:	90 04 40 14 	add  %l1, %l4, %o0
a000610c:	da 05 e0 08 	ld  [ %l7 + 8 ], %o5
a0006110:	82 12 20 01 	or  %o0, 1, %g1
a0006114:	10 bf ff e1 	b  a0006098 <_malloc_r+0x638>
a0006118:	c2 23 60 04 	st  %g1, [ %o5 + 4 ]
a000611c:	10 bf ff c3 	b  a0006028 <_malloc_r+0x5c8>
a0006120:	90 10 00 19 	mov  %i1, %o0
a0006124:	10 bf ff dd 	b  a0006098 <_malloc_r+0x638>
a0006128:	c2 26 60 04 	st  %g1, [ %i1 + 4 ]
a000612c:	92 06 20 08 	add  %i0, 8, %o1
a0006130:	7f ff fb 97 	call  a0004f8c <_free_r>
a0006134:	90 10 00 13 	mov  %l3, %o0
a0006138:	10 bf ff d9 	b  a000609c <_malloc_r+0x63c>
a000613c:	19 28 00 2a 	sethi  %hi(0xa000a800), %o4
a0006140:	40 00 00 b8 	call  a0006420 <__malloc_unlock>
a0006144:	90 10 00 13 	mov  %l3, %o0
a0006148:	b0 10 20 00 	clr  %i0
a000614c:	81 c7 e0 08 	ret 
a0006150:	81 e8 00 00 	restore 

a0006154 <memchr>:
a0006154:	9d e3 bf 98 	save  %sp, -104, %sp
a0006158:	80 a6 a0 03 	cmp  %i2, 3
a000615c:	08 80 00 05 	bleu  a0006170 <memchr+0x1c>
a0006160:	b2 0e 60 ff 	and  %i1, 0xff, %i1
a0006164:	80 8e 20 03 	btst  3, %i0
a0006168:	02 80 00 0d 	be  a000619c <memchr+0x48>
a000616c:	b8 10 00 18 	mov  %i0, %i4
a0006170:	10 80 00 06 	b  a0006188 <memchr+0x34>
a0006174:	b4 06 bf ff 	add  %i2, -1, %i2
a0006178:	80 a0 40 19 	cmp  %g1, %i1
a000617c:	02 80 00 2a 	be  a0006224 <memchr+0xd0>
a0006180:	b4 06 bf ff 	add  %i2, -1, %i2
a0006184:	b0 06 20 01 	inc  %i0
a0006188:	80 a6 bf ff 	cmp  %i2, -1
a000618c:	32 bf ff fb 	bne,a   a0006178 <memchr+0x24>
a0006190:	c2 0e 00 00 	ldub  [ %i0 ], %g1
a0006194:	10 80 00 24 	b  a0006224 <memchr+0xd0>
a0006198:	b0 10 20 00 	clr  %i0
a000619c:	b6 10 20 00 	clr  %i3
a00061a0:	ba 10 20 03 	mov  3, %i5
a00061a4:	83 2e e0 08 	sll  %i3, 8, %g1
a00061a8:	ba 87 7f ff 	addcc  %i5, -1, %i5
a00061ac:	1c bf ff fe 	bpos  a00061a4 <memchr+0x50>
a00061b0:	b6 00 40 19 	add  %g1, %i1, %i3
a00061b4:	80 a6 a0 03 	cmp  %i2, 3
a00061b8:	08 80 00 19 	bleu  a000621c <memchr+0xc8>
a00061bc:	03 3f bf bf 	sethi  %hi(0xfefefc00), %g1
a00061c0:	3b 20 20 20 	sethi  %hi(0x80808000), %i5
a00061c4:	9a 10 62 ff 	or  %g1, 0x2ff, %o5
a00061c8:	9e 17 60 80 	or  %i5, 0x80, %o7
a00061cc:	c2 07 00 00 	ld  [ %i4 ], %g1
a00061d0:	82 18 40 1b 	xor  %g1, %i3, %g1
a00061d4:	ba 00 40 0d 	add  %g1, %o5, %i5
a00061d8:	82 2f 40 01 	andn  %i5, %g1, %g1
a00061dc:	80 88 40 0f 	btst  %g1, %o7
a00061e0:	22 80 00 0c 	be,a   a0006210 <memchr+0xbc>
a00061e4:	b4 06 bf fc 	add  %i2, -4, %i2
a00061e8:	b0 10 00 1c 	mov  %i4, %i0
a00061ec:	ba 10 20 00 	clr  %i5
a00061f0:	c2 0e 00 00 	ldub  [ %i0 ], %g1
a00061f4:	80 a0 40 19 	cmp  %g1, %i1
a00061f8:	02 80 00 0b 	be  a0006224 <memchr+0xd0>
a00061fc:	ba 07 60 01 	inc  %i5
a0006200:	80 a7 60 03 	cmp  %i5, 3
a0006204:	08 bf ff fb 	bleu  a00061f0 <memchr+0x9c>
a0006208:	b0 06 20 01 	inc  %i0
a000620c:	b4 06 bf fc 	add  %i2, -4, %i2
a0006210:	80 a6 a0 03 	cmp  %i2, 3
a0006214:	18 bf ff ee 	bgu  a00061cc <memchr+0x78>
a0006218:	b8 07 20 04 	add  %i4, 4, %i4
a000621c:	10 bf ff d5 	b  a0006170 <memchr+0x1c>
a0006220:	b0 10 00 1c 	mov  %i4, %i0
a0006224:	81 c7 e0 08 	ret 
a0006228:	81 e8 00 00 	restore 

a000622c <memmove>:
a000622c:	96 10 00 09 	mov  %o1, %o3
a0006230:	80 a2 40 08 	cmp  %o1, %o0
a0006234:	9a 10 00 08 	mov  %o0, %o5
a0006238:	1a 80 00 13 	bcc  a0006284 <memmove+0x58>
a000623c:	98 10 00 0a 	mov  %o2, %o4
a0006240:	82 02 40 0a 	add  %o1, %o2, %g1
a0006244:	80 a0 40 08 	cmp  %g1, %o0
a0006248:	08 80 00 10 	bleu  a0006288 <memmove+0x5c>
a000624c:	80 a2 a0 0f 	cmp  %o2, 0xf
a0006250:	98 02 bf ff 	add  %o2, -1, %o4
a0006254:	9a 02 00 0a 	add  %o0, %o2, %o5
a0006258:	80 a3 3f ff 	cmp  %o4, -1
a000625c:	02 80 00 3d 	be  a0006350 <memmove+0x124>
a0006260:	92 10 00 01 	mov  %g1, %o1
a0006264:	92 02 7f ff 	add  %o1, -1, %o1
a0006268:	9a 03 7f ff 	add  %o5, -1, %o5
a000626c:	98 03 3f ff 	add  %o4, -1, %o4
a0006270:	c2 0a 40 00 	ldub  [ %o1 ], %g1
a0006274:	80 a3 3f ff 	cmp  %o4, -1
a0006278:	12 bf ff fb 	bne  a0006264 <memmove+0x38>
a000627c:	c2 2b 40 00 	stb  %g1, [ %o5 ]
a0006280:	30 80 00 34 	b,a   a0006350 <memmove+0x124>
a0006284:	80 a2 a0 0f 	cmp  %o2, 0xf
a0006288:	18 80 00 0e 	bgu  a00062c0 <memmove+0x94>
a000628c:	82 12 c0 08 	or  %o3, %o0, %g1
a0006290:	98 03 3f ff 	add  %o4, -1, %o4
a0006294:	80 a3 3f ff 	cmp  %o4, -1
a0006298:	02 80 00 2e 	be  a0006350 <memmove+0x124>
a000629c:	01 00 00 00 	nop 
a00062a0:	c2 0a 40 00 	ldub  [ %o1 ], %g1
a00062a4:	c2 2b 40 00 	stb  %g1, [ %o5 ]
a00062a8:	98 03 3f ff 	add  %o4, -1, %o4
a00062ac:	92 02 60 01 	inc  %o1
a00062b0:	80 a3 3f ff 	cmp  %o4, -1
a00062b4:	12 bf ff fb 	bne  a00062a0 <memmove+0x74>
a00062b8:	9a 03 60 01 	inc  %o5
a00062bc:	30 80 00 25 	b,a   a0006350 <memmove+0x124>
a00062c0:	80 88 60 03 	btst  3, %g1
a00062c4:	32 bf ff f4 	bne,a   a0006294 <memmove+0x68>
a00062c8:	98 03 3f ff 	add  %o4, -1, %o4
a00062cc:	92 10 00 0b 	mov  %o3, %o1
a00062d0:	9a 10 00 08 	mov  %o0, %o5
a00062d4:	c2 02 40 00 	ld  [ %o1 ], %g1
a00062d8:	c2 23 40 00 	st  %g1, [ %o5 ]
a00062dc:	92 02 60 04 	add  %o1, 4, %o1
a00062e0:	c2 02 40 00 	ld  [ %o1 ], %g1
a00062e4:	9a 03 60 04 	add  %o5, 4, %o5
a00062e8:	c2 23 40 00 	st  %g1, [ %o5 ]
a00062ec:	92 02 60 04 	add  %o1, 4, %o1
a00062f0:	c2 02 40 00 	ld  [ %o1 ], %g1
a00062f4:	9a 03 60 04 	add  %o5, 4, %o5
a00062f8:	c2 23 40 00 	st  %g1, [ %o5 ]
a00062fc:	92 02 60 04 	add  %o1, 4, %o1
a0006300:	9a 03 60 04 	add  %o5, 4, %o5
a0006304:	c2 02 40 00 	ld  [ %o1 ], %g1
a0006308:	c2 23 40 00 	st  %g1, [ %o5 ]
a000630c:	98 03 3f f0 	add  %o4, -16, %o4
a0006310:	92 02 60 04 	add  %o1, 4, %o1
a0006314:	80 a3 20 0f 	cmp  %o4, 0xf
a0006318:	18 bf ff ef 	bgu  a00062d4 <memmove+0xa8>
a000631c:	9a 03 60 04 	add  %o5, 4, %o5
a0006320:	80 a3 20 03 	cmp  %o4, 3
a0006324:	28 bf ff dc 	bleu,a   a0006294 <memmove+0x68>
a0006328:	98 03 3f ff 	add  %o4, -1, %o4
a000632c:	c2 02 40 00 	ld  [ %o1 ], %g1
a0006330:	c2 23 40 00 	st  %g1, [ %o5 ]
a0006334:	98 03 3f fc 	add  %o4, -4, %o4
a0006338:	92 02 60 04 	add  %o1, 4, %o1
a000633c:	80 a3 20 03 	cmp  %o4, 3
a0006340:	18 bf ff fb 	bgu  a000632c <memmove+0x100>
a0006344:	9a 03 60 04 	add  %o5, 4, %o5
a0006348:	10 bf ff d3 	b  a0006294 <memmove+0x68>
a000634c:	98 03 3f ff 	add  %o4, -1, %o4
a0006350:	81 c3 e0 08 	retl 
a0006354:	01 00 00 00 	nop 

a0006358 <memset>:
a0006358:	92 0a 60 ff 	and  %o1, 0xff, %o1
a000635c:	80 a2 a0 03 	cmp  %o2, 3
a0006360:	08 80 00 1f 	bleu  a00063dc <memset+0x84>
a0006364:	82 10 00 08 	mov  %o0, %g1
a0006368:	80 8a 20 03 	btst  3, %o0
a000636c:	32 80 00 1d 	bne,a   a00063e0 <memset+0x88>
a0006370:	94 02 bf ff 	add  %o2, -1, %o2
a0006374:	83 2a 60 08 	sll  %o1, 8, %g1
a0006378:	82 10 40 09 	or  %g1, %o1, %g1
a000637c:	9b 28 60 10 	sll  %g1, 0x10, %o5
a0006380:	82 10 40 0d 	or  %g1, %o5, %g1
a0006384:	10 80 00 0a 	b  a00063ac <memset+0x54>
a0006388:	9a 10 00 08 	mov  %o0, %o5
a000638c:	9a 03 60 04 	add  %o5, 4, %o5
a0006390:	c2 23 40 00 	st  %g1, [ %o5 ]
a0006394:	9a 03 60 04 	add  %o5, 4, %o5
a0006398:	c2 23 40 00 	st  %g1, [ %o5 ]
a000639c:	9a 03 60 04 	add  %o5, 4, %o5
a00063a0:	c2 23 40 00 	st  %g1, [ %o5 ]
a00063a4:	94 02 bf f0 	add  %o2, -16, %o2
a00063a8:	9a 03 60 04 	add  %o5, 4, %o5
a00063ac:	80 a2 a0 0f 	cmp  %o2, 0xf
a00063b0:	38 bf ff f7 	bgu,a   a000638c <memset+0x34>
a00063b4:	c2 23 40 00 	st  %g1, [ %o5 ]
a00063b8:	80 a2 a0 03 	cmp  %o2, 3
a00063bc:	28 80 00 08 	bleu,a   a00063dc <memset+0x84>
a00063c0:	82 10 00 0d 	mov  %o5, %g1
a00063c4:	c2 23 40 00 	st  %g1, [ %o5 ]
a00063c8:	94 02 bf fc 	add  %o2, -4, %o2
a00063cc:	80 a2 a0 03 	cmp  %o2, 3
a00063d0:	18 bf ff fd 	bgu  a00063c4 <memset+0x6c>
a00063d4:	9a 03 60 04 	add  %o5, 4, %o5
a00063d8:	82 10 00 0d 	mov  %o5, %g1
a00063dc:	94 02 bf ff 	add  %o2, -1, %o2
a00063e0:	80 a2 bf ff 	cmp  %o2, -1
a00063e4:	02 80 00 07 	be  a0006400 <memset+0xa8>
a00063e8:	01 00 00 00 	nop 
a00063ec:	d2 28 40 00 	stb  %o1, [ %g1 ]
a00063f0:	94 02 bf ff 	add  %o2, -1, %o2
a00063f4:	80 a2 bf ff 	cmp  %o2, -1
a00063f8:	12 bf ff fd 	bne  a00063ec <memset+0x94>
a00063fc:	82 00 60 01 	inc  %g1
a0006400:	81 c3 e0 08 	retl 
a0006404:	01 00 00 00 	nop 

a0006408 <__malloc_lock>:
a0006408:	11 28 00 2a 	sethi  %hi(0xa000a800), %o0
a000640c:	90 12 20 d8 	or  %o0, 0xd8, %o0	! a000a8d8 <__malloc_lock_object>
a0006410:	82 13 c0 00 	mov  %o7, %g1
a0006414:	40 00 08 63 	call  a00085a0 <___st_pthread_mutex_lock>
a0006418:	9e 10 40 00 	mov  %g1, %o7
a000641c:	01 00 00 00 	nop 

a0006420 <__malloc_unlock>:
a0006420:	11 28 00 2a 	sethi  %hi(0xa000a800), %o0
a0006424:	90 12 20 d8 	or  %o0, 0xd8, %o0	! a000a8d8 <__malloc_lock_object>
a0006428:	82 13 c0 00 	mov  %o7, %g1
a000642c:	40 00 08 75 	call  a0008600 <___st_pthread_mutex_unlock>
a0006430:	9e 10 40 00 	mov  %g1, %o7
a0006434:	01 00 00 00 	nop 

a0006438 <_realloc_r>:
a0006438:	9d e3 bf 98 	save  %sp, -104, %sp
a000643c:	a4 10 00 19 	mov  %i1, %l2
a0006440:	b2 10 00 1a 	mov  %i2, %i1
a0006444:	80 a4 a0 00 	cmp  %l2, 0
a0006448:	02 80 00 aa 	be  a00066f0 <_realloc_r+0x2b8>
a000644c:	aa 10 00 18 	mov  %i0, %l5
a0006450:	7f ff ff ee 	call  a0006408 <__malloc_lock>
a0006454:	90 10 00 18 	mov  %i0, %o0
a0006458:	a0 04 bf f8 	add  %l2, -8, %l0
a000645c:	d2 04 20 04 	ld  [ %l0 + 4 ], %o1
a0006460:	82 06 a0 0b 	add  %i2, 0xb, %g1
a0006464:	a2 0a 7f fc 	and  %o1, -4, %l1
a0006468:	80 a0 60 16 	cmp  %g1, 0x16
a000646c:	a6 10 00 10 	mov  %l0, %l3
a0006470:	94 10 00 11 	mov  %l1, %o2
a0006474:	08 80 00 5f 	bleu  a00065f0 <_realloc_r+0x1b8>
a0006478:	b4 08 7f f8 	and  %g1, -8, %i2
a000647c:	80 a6 80 19 	cmp  %i2, %i1
a0006480:	9a 40 20 00 	addx  %g0, 0, %o5
a0006484:	83 36 a0 1f 	srl  %i2, 0x1f, %g1
a0006488:	80 90 40 0d 	orcc  %g1, %o5, %g0
a000648c:	12 80 01 25 	bne  a0006920 <_realloc_r+0x4e8>
a0006490:	90 10 20 00 	clr  %o0
a0006494:	80 a4 40 1a 	cmp  %l1, %i2
a0006498:	16 80 00 88 	bge  a00066b8 <_realloc_r+0x280>
a000649c:	9a 24 40 1a 	sub  %l1, %i2, %o5
a00064a0:	2d 28 00 29 	sethi  %hi(0xa000a400), %l6
a00064a4:	9e 15 a0 d0 	or  %l6, 0xd0, %o7	! a000a4d0 <__malloc_av_>
a00064a8:	96 04 00 11 	add  %l0, %l1, %o3
a00064ac:	d0 03 e0 08 	ld  [ %o7 + 8 ], %o0
a00064b0:	80 a2 00 0b 	cmp  %o0, %o3
a00064b4:	02 80 00 09 	be  a00064d8 <_realloc_r+0xa0>
a00064b8:	d8 02 e0 04 	ld  [ %o3 + 4 ], %o4
a00064bc:	82 0b 3f fe 	and  %o4, -2, %g1
a00064c0:	82 00 40 0b 	add  %g1, %o3, %g1
a00064c4:	da 00 60 04 	ld  [ %g1 + 4 ], %o5
a00064c8:	80 8b 60 01 	btst  1, %o5
a00064cc:	32 80 00 8b 	bne,a   a00066f8 <_realloc_r+0x2c0>
a00064d0:	96 10 20 00 	clr  %o3
a00064d4:	80 a2 00 0b 	cmp  %o0, %o3
a00064d8:	02 80 00 b0 	be  a0006798 <_realloc_r+0x360>
a00064dc:	98 0b 3f fc 	and  %o4, -4, %o4
a00064e0:	82 03 00 11 	add  %o4, %l1, %g1
a00064e4:	80 a0 40 1a 	cmp  %g1, %i2
a00064e8:	36 80 00 a7 	bge,a   a0006784 <_realloc_r+0x34c>
a00064ec:	d8 02 e0 08 	ld  [ %o3 + 8 ], %o4
a00064f0:	80 8a 60 01 	btst  1, %o1
a00064f4:	12 80 00 16 	bne  a000654c <_realloc_r+0x114>
a00064f8:	80 a2 e0 00 	cmp  %o3, 0
a00064fc:	c2 04 00 00 	ld  [ %l0 ], %g1
a0006500:	a8 24 00 01 	sub  %l0, %g1, %l4
a0006504:	da 05 20 04 	ld  [ %l4 + 4 ], %o5
a0006508:	02 80 00 0b 	be  a0006534 <_realloc_r+0xfc>
a000650c:	92 0b 7f fc 	and  %o5, -4, %o1
a0006510:	82 15 a0 d0 	or  %l6, 0xd0, %g1
a0006514:	da 00 60 08 	ld  [ %g1 + 8 ], %o5
a0006518:	80 a3 40 0b 	cmp  %o5, %o3
a000651c:	02 80 00 b5 	be  a00067f0 <_realloc_r+0x3b8>
a0006520:	82 03 00 09 	add  %o4, %o1, %g1
a0006524:	82 00 40 11 	add  %g1, %l1, %g1
a0006528:	80 a0 40 1a 	cmp  %g1, %i2
a000652c:	36 80 00 33 	bge,a   a00065f8 <_realloc_r+0x1c0>
a0006530:	d8 02 e0 08 	ld  [ %o3 + 8 ], %o4
a0006534:	80 a5 20 00 	cmp  %l4, 0
a0006538:	02 80 00 05 	be  a000654c <_realloc_r+0x114>
a000653c:	9a 02 40 11 	add  %o1, %l1, %o5
a0006540:	80 a3 40 1a 	cmp  %o5, %i2
a0006544:	36 80 00 a4 	bge,a   a00067d4 <_realloc_r+0x39c>
a0006548:	d6 05 20 0c 	ld  [ %l4 + 0xc ], %o3
a000654c:	92 10 00 19 	mov  %i1, %o1
a0006550:	7f ff fd 44 	call  a0005a60 <_malloc_r>
a0006554:	90 10 00 15 	mov  %l5, %o0
a0006558:	b0 92 20 00 	orcc  %o0, 0, %i0
a000655c:	02 80 00 ee 	be  a0006914 <_realloc_r+0x4dc>
a0006560:	a0 06 3f f8 	add  %i0, -8, %l0
a0006564:	c2 04 e0 04 	ld  [ %l3 + 4 ], %g1
a0006568:	82 08 7f fe 	and  %g1, -2, %g1
a000656c:	82 00 40 13 	add  %g1, %l3, %g1
a0006570:	80 a4 00 01 	cmp  %l0, %g1
a0006574:	02 80 00 de 	be  a00068ec <_realloc_r+0x4b4>
a0006578:	94 04 7f fc 	add  %l1, -4, %o2
a000657c:	80 a2 a0 24 	cmp  %o2, 0x24
a0006580:	18 80 00 7d 	bgu  a0006774 <_realloc_r+0x33c>
a0006584:	80 a2 a0 13 	cmp  %o2, 0x13
a0006588:	9a 10 00 12 	mov  %l2, %o5
a000658c:	08 80 00 0a 	bleu  a00065b4 <_realloc_r+0x17c>
a0006590:	98 10 00 18 	mov  %i0, %o4
a0006594:	c2 04 80 00 	ld  [ %l2 ], %g1
a0006598:	c2 26 00 00 	st  %g1, [ %i0 ]
a000659c:	da 04 a0 04 	ld  [ %l2 + 4 ], %o5
a00065a0:	da 26 20 04 	st  %o5, [ %i0 + 4 ]
a00065a4:	80 a2 a0 1b 	cmp  %o2, 0x1b
a00065a8:	9a 04 a0 08 	add  %l2, 8, %o5
a00065ac:	18 80 00 63 	bgu  a0006738 <_realloc_r+0x300>
a00065b0:	98 06 20 08 	add  %i0, 8, %o4
a00065b4:	c2 03 40 00 	ld  [ %o5 ], %g1
a00065b8:	c2 23 00 00 	st  %g1, [ %o4 ]
a00065bc:	9a 03 60 04 	add  %o5, 4, %o5
a00065c0:	c2 03 40 00 	ld  [ %o5 ], %g1
a00065c4:	98 03 20 04 	add  %o4, 4, %o4
a00065c8:	c2 23 00 00 	st  %g1, [ %o4 ]
a00065cc:	da 03 60 04 	ld  [ %o5 + 4 ], %o5
a00065d0:	da 23 20 04 	st  %o5, [ %o4 + 4 ]
a00065d4:	92 10 00 12 	mov  %l2, %o1
a00065d8:	7f ff fa 6d 	call  a0004f8c <_free_r>
a00065dc:	90 10 00 15 	mov  %l5, %o0
a00065e0:	7f ff ff 90 	call  a0006420 <__malloc_unlock>
a00065e4:	90 10 00 15 	mov  %l5, %o0
a00065e8:	10 80 00 ce 	b  a0006920 <_realloc_r+0x4e8>
a00065ec:	90 10 00 18 	mov  %i0, %o0
a00065f0:	10 bf ff a3 	b  a000647c <_realloc_r+0x44>
a00065f4:	b4 10 20 10 	mov  0x10, %i2
a00065f8:	d6 02 e0 0c 	ld  [ %o3 + 0xc ], %o3
a00065fc:	d8 22 e0 08 	st  %o4, [ %o3 + 8 ]
a0006600:	d6 23 20 0c 	st  %o3, [ %o4 + 0xc ]
a0006604:	d6 05 20 0c 	ld  [ %l4 + 0xc ], %o3
a0006608:	d8 05 20 08 	ld  [ %l4 + 8 ], %o4
a000660c:	a0 10 00 14 	mov  %l4, %l0
a0006610:	94 02 bf fc 	add  %o2, -4, %o2
a0006614:	d8 22 e0 08 	st  %o4, [ %o3 + 8 ]
a0006618:	d6 23 20 0c 	st  %o3, [ %o4 + 0xc ]
a000661c:	a2 10 00 01 	mov  %g1, %l1
a0006620:	80 a2 a0 24 	cmp  %o2, 0x24
a0006624:	18 80 00 ad 	bgu  a00068d8 <_realloc_r+0x4a0>
a0006628:	b0 04 20 08 	add  %l0, 8, %i0
a000662c:	90 10 00 18 	mov  %i0, %o0
a0006630:	80 a2 a0 13 	cmp  %o2, 0x13
a0006634:	08 80 00 18 	bleu  a0006694 <_realloc_r+0x25c>
a0006638:	9a 10 00 12 	mov  %l2, %o5
a000663c:	c2 04 80 00 	ld  [ %l2 ], %g1
a0006640:	c2 24 20 08 	st  %g1, [ %l0 + 8 ]
a0006644:	da 04 a0 04 	ld  [ %l2 + 4 ], %o5
a0006648:	da 24 20 0c 	st  %o5, [ %l0 + 0xc ]
a000664c:	80 a2 a0 1b 	cmp  %o2, 0x1b
a0006650:	9a 04 a0 08 	add  %l2, 8, %o5
a0006654:	08 80 00 10 	bleu  a0006694 <_realloc_r+0x25c>
a0006658:	90 04 20 10 	add  %l0, 0x10, %o0
a000665c:	c2 04 a0 08 	ld  [ %l2 + 8 ], %g1
a0006660:	c2 24 20 10 	st  %g1, [ %l0 + 0x10 ]
a0006664:	da 04 a0 0c 	ld  [ %l2 + 0xc ], %o5
a0006668:	da 24 20 14 	st  %o5, [ %l0 + 0x14 ]
a000666c:	80 a2 a0 23 	cmp  %o2, 0x23
a0006670:	9a 04 a0 10 	add  %l2, 0x10, %o5
a0006674:	08 80 00 08 	bleu  a0006694 <_realloc_r+0x25c>
a0006678:	90 04 20 18 	add  %l0, 0x18, %o0
a000667c:	c2 04 a0 10 	ld  [ %l2 + 0x10 ], %g1
a0006680:	c2 24 20 18 	st  %g1, [ %l0 + 0x18 ]
a0006684:	da 04 a0 14 	ld  [ %l2 + 0x14 ], %o5
a0006688:	da 24 20 1c 	st  %o5, [ %l0 + 0x1c ]
a000668c:	9a 04 a0 18 	add  %l2, 0x18, %o5
a0006690:	90 04 20 20 	add  %l0, 0x20, %o0
a0006694:	c2 03 40 00 	ld  [ %o5 ], %g1
a0006698:	c2 22 00 00 	st  %g1, [ %o0 ]
a000669c:	9a 03 60 04 	add  %o5, 4, %o5
a00066a0:	c2 03 40 00 	ld  [ %o5 ], %g1
a00066a4:	90 02 20 04 	add  %o0, 4, %o0
a00066a8:	c2 22 00 00 	st  %g1, [ %o0 ]
a00066ac:	da 03 60 04 	ld  [ %o5 + 4 ], %o5
a00066b0:	da 22 20 04 	st  %o5, [ %o0 + 4 ]
a00066b4:	9a 24 40 1a 	sub  %l1, %i2, %o5
a00066b8:	80 a3 60 0f 	cmp  %o5, 0xf
a00066bc:	18 80 00 11 	bgu  a0006700 <_realloc_r+0x2c8>
a00066c0:	c2 04 20 04 	ld  [ %l0 + 4 ], %g1
a00066c4:	82 08 60 01 	and  %g1, 1, %g1
a00066c8:	82 10 40 11 	or  %g1, %l1, %g1
a00066cc:	c2 24 20 04 	st  %g1, [ %l0 + 4 ]
a00066d0:	9a 04 00 11 	add  %l0, %l1, %o5
a00066d4:	c2 03 60 04 	ld  [ %o5 + 4 ], %g1
a00066d8:	82 10 60 01 	or  %g1, 1, %g1
a00066dc:	c2 23 60 04 	st  %g1, [ %o5 + 4 ]
a00066e0:	7f ff ff 50 	call  a0006420 <__malloc_unlock>
a00066e4:	90 10 00 15 	mov  %l5, %o0
a00066e8:	10 80 00 8e 	b  a0006920 <_realloc_r+0x4e8>
a00066ec:	90 04 20 08 	add  %l0, 8, %o0
a00066f0:	7f ff fc dc 	call  a0005a60 <_malloc_r>
a00066f4:	81 e8 00 00 	restore 
a00066f8:	10 bf ff 7e 	b  a00064f0 <_realloc_r+0xb8>
a00066fc:	98 10 20 00 	clr  %o4
a0006700:	82 08 60 01 	and  %g1, 1, %g1
a0006704:	82 10 40 1a 	or  %g1, %i2, %g1
a0006708:	c2 24 20 04 	st  %g1, [ %l0 + 4 ]
a000670c:	92 04 00 1a 	add  %l0, %i2, %o1
a0006710:	82 13 60 01 	or  %o5, 1, %g1
a0006714:	9a 02 40 0d 	add  %o1, %o5, %o5
a0006718:	c2 22 60 04 	st  %g1, [ %o1 + 4 ]
a000671c:	c2 03 60 04 	ld  [ %o5 + 4 ], %g1
a0006720:	82 10 60 01 	or  %g1, 1, %g1
a0006724:	c2 23 60 04 	st  %g1, [ %o5 + 4 ]
a0006728:	92 02 60 08 	add  %o1, 8, %o1
a000672c:	7f ff fa 18 	call  a0004f8c <_free_r>
a0006730:	90 10 00 15 	mov  %l5, %o0
a0006734:	30 bf ff eb 	b,a   a00066e0 <_realloc_r+0x2a8>
a0006738:	c2 04 a0 08 	ld  [ %l2 + 8 ], %g1
a000673c:	c2 26 20 08 	st  %g1, [ %i0 + 8 ]
a0006740:	da 04 a0 0c 	ld  [ %l2 + 0xc ], %o5
a0006744:	da 26 20 0c 	st  %o5, [ %i0 + 0xc ]
a0006748:	80 a2 a0 23 	cmp  %o2, 0x23
a000674c:	9a 04 a0 10 	add  %l2, 0x10, %o5
a0006750:	08 bf ff 99 	bleu  a00065b4 <_realloc_r+0x17c>
a0006754:	98 06 20 10 	add  %i0, 0x10, %o4
a0006758:	c2 04 a0 10 	ld  [ %l2 + 0x10 ], %g1
a000675c:	c2 26 20 10 	st  %g1, [ %i0 + 0x10 ]
a0006760:	da 04 a0 14 	ld  [ %l2 + 0x14 ], %o5
a0006764:	da 26 20 14 	st  %o5, [ %i0 + 0x14 ]
a0006768:	9a 04 a0 18 	add  %l2, 0x18, %o5
a000676c:	10 bf ff 92 	b  a00065b4 <_realloc_r+0x17c>
a0006770:	98 06 20 18 	add  %i0, 0x18, %o4
a0006774:	7f ff f2 0f 	call  a0002fb0 <memcpy>
a0006778:	92 10 00 12 	mov  %l2, %o1
a000677c:	10 bf ff 97 	b  a00065d8 <_realloc_r+0x1a0>
a0006780:	92 10 00 12 	mov  %l2, %o1
a0006784:	d6 02 e0 0c 	ld  [ %o3 + 0xc ], %o3
a0006788:	d8 22 e0 08 	st  %o4, [ %o3 + 8 ]
a000678c:	d6 23 20 0c 	st  %o3, [ %o4 + 0xc ]
a0006790:	10 bf ff c9 	b  a00066b4 <_realloc_r+0x27c>
a0006794:	a2 10 00 01 	mov  %g1, %l1
a0006798:	9a 03 00 11 	add  %o4, %l1, %o5
a000679c:	82 06 a0 10 	add  %i2, 0x10, %g1
a00067a0:	80 a3 40 01 	cmp  %o5, %g1
a00067a4:	06 bf ff 54 	bl  a00064f4 <_realloc_r+0xbc>
a00067a8:	80 8a 60 01 	btst  1, %o1
a00067ac:	82 23 40 1a 	sub  %o5, %i2, %g1
a00067b0:	98 04 00 1a 	add  %l0, %i2, %o4
a00067b4:	82 10 60 01 	or  %g1, 1, %g1
a00067b8:	c2 23 20 04 	st  %g1, [ %o4 + 4 ]
a00067bc:	da 04 20 04 	ld  [ %l0 + 4 ], %o5
a00067c0:	9a 0b 60 01 	and  %o5, 1, %o5
a00067c4:	92 13 40 1a 	or  %o5, %i2, %o1
a00067c8:	d8 23 e0 08 	st  %o4, [ %o7 + 8 ]
a00067cc:	10 bf ff c5 	b  a00066e0 <_realloc_r+0x2a8>
a00067d0:	d2 24 20 04 	st  %o1, [ %l0 + 4 ]
a00067d4:	d8 05 20 08 	ld  [ %l4 + 8 ], %o4
a00067d8:	a0 10 00 14 	mov  %l4, %l0
a00067dc:	94 02 bf fc 	add  %o2, -4, %o2
a00067e0:	d8 22 e0 08 	st  %o4, [ %o3 + 8 ]
a00067e4:	d6 23 20 0c 	st  %o3, [ %o4 + 0xc ]
a00067e8:	10 bf ff 8e 	b  a0006620 <_realloc_r+0x1e8>
a00067ec:	a2 10 00 0d 	mov  %o5, %l1
a00067f0:	ae 00 40 11 	add  %g1, %l1, %l7
a00067f4:	9a 06 a0 10 	add  %i2, 0x10, %o5
a00067f8:	80 a5 c0 0d 	cmp  %l7, %o5
a00067fc:	06 bf ff 4f 	bl  a0006538 <_realloc_r+0x100>
a0006800:	80 a5 20 00 	cmp  %l4, 0
a0006804:	d6 05 20 0c 	ld  [ %l4 + 0xc ], %o3
a0006808:	d8 05 20 08 	ld  [ %l4 + 8 ], %o4
a000680c:	94 02 bf fc 	add  %o2, -4, %o2
a0006810:	d8 22 e0 08 	st  %o4, [ %o3 + 8 ]
a0006814:	d6 23 20 0c 	st  %o3, [ %o4 + 0xc ]
a0006818:	80 a2 a0 24 	cmp  %o2, 0x24
a000681c:	18 80 00 39 	bgu  a0006900 <_realloc_r+0x4c8>
a0006820:	b0 05 20 08 	add  %l4, 8, %i0
a0006824:	80 a2 a0 13 	cmp  %o2, 0x13
a0006828:	9a 10 00 12 	mov  %l2, %o5
a000682c:	08 80 00 18 	bleu  a000688c <_realloc_r+0x454>
a0006830:	98 10 00 18 	mov  %i0, %o4
a0006834:	c2 04 80 00 	ld  [ %l2 ], %g1
a0006838:	c2 25 20 08 	st  %g1, [ %l4 + 8 ]
a000683c:	da 04 a0 04 	ld  [ %l2 + 4 ], %o5
a0006840:	da 25 20 0c 	st  %o5, [ %l4 + 0xc ]
a0006844:	80 a2 a0 1b 	cmp  %o2, 0x1b
a0006848:	9a 04 a0 08 	add  %l2, 8, %o5
a000684c:	08 80 00 10 	bleu  a000688c <_realloc_r+0x454>
a0006850:	98 05 20 10 	add  %l4, 0x10, %o4
a0006854:	c2 04 a0 08 	ld  [ %l2 + 8 ], %g1
a0006858:	c2 25 20 10 	st  %g1, [ %l4 + 0x10 ]
a000685c:	da 04 a0 0c 	ld  [ %l2 + 0xc ], %o5
a0006860:	da 25 20 14 	st  %o5, [ %l4 + 0x14 ]
a0006864:	80 a2 a0 23 	cmp  %o2, 0x23
a0006868:	9a 04 a0 10 	add  %l2, 0x10, %o5
a000686c:	08 80 00 08 	bleu  a000688c <_realloc_r+0x454>
a0006870:	98 05 20 18 	add  %l4, 0x18, %o4
a0006874:	c2 04 a0 10 	ld  [ %l2 + 0x10 ], %g1
a0006878:	c2 25 20 18 	st  %g1, [ %l4 + 0x18 ]
a000687c:	da 04 a0 14 	ld  [ %l2 + 0x14 ], %o5
a0006880:	da 25 20 1c 	st  %o5, [ %l4 + 0x1c ]
a0006884:	9a 04 a0 18 	add  %l2, 0x18, %o5
a0006888:	98 05 20 20 	add  %l4, 0x20, %o4
a000688c:	c2 03 40 00 	ld  [ %o5 ], %g1
a0006890:	c2 23 00 00 	st  %g1, [ %o4 ]
a0006894:	9a 03 60 04 	add  %o5, 4, %o5
a0006898:	c2 03 40 00 	ld  [ %o5 ], %g1
a000689c:	98 03 20 04 	add  %o4, 4, %o4
a00068a0:	c2 23 00 00 	st  %g1, [ %o4 ]
a00068a4:	da 03 60 04 	ld  [ %o5 + 4 ], %o5
a00068a8:	da 23 20 04 	st  %o5, [ %o4 + 4 ]
a00068ac:	9a 25 c0 1a 	sub  %l7, %i2, %o5
a00068b0:	9a 13 60 01 	or  %o5, 1, %o5
a00068b4:	98 05 00 1a 	add  %l4, %i2, %o4
a00068b8:	da 23 20 04 	st  %o5, [ %o4 + 4 ]
a00068bc:	c2 05 20 04 	ld  [ %l4 + 4 ], %g1
a00068c0:	82 08 60 01 	and  %g1, 1, %g1
a00068c4:	82 10 40 1a 	or  %g1, %i2, %g1
a00068c8:	9a 15 a0 d0 	or  %l6, 0xd0, %o5
a00068cc:	c2 25 20 04 	st  %g1, [ %l4 + 4 ]
a00068d0:	10 bf ff 44 	b  a00065e0 <_realloc_r+0x1a8>
a00068d4:	d8 23 60 08 	st  %o4, [ %o5 + 8 ]
a00068d8:	90 10 00 18 	mov  %i0, %o0
a00068dc:	7f ff f1 b5 	call  a0002fb0 <memcpy>
a00068e0:	92 10 00 12 	mov  %l2, %o1
a00068e4:	10 bf ff 75 	b  a00066b8 <_realloc_r+0x280>
a00068e8:	9a 24 40 1a 	sub  %l1, %i2, %o5
a00068ec:	c2 04 20 04 	ld  [ %l0 + 4 ], %g1
a00068f0:	82 08 7f fc 	and  %g1, -4, %g1
a00068f4:	a2 04 40 01 	add  %l1, %g1, %l1
a00068f8:	10 bf ff 6f 	b  a00066b4 <_realloc_r+0x27c>
a00068fc:	a0 10 00 13 	mov  %l3, %l0
a0006900:	92 10 00 12 	mov  %l2, %o1
a0006904:	7f ff f1 ab 	call  a0002fb0 <memcpy>
a0006908:	90 10 00 18 	mov  %i0, %o0
a000690c:	10 bf ff e9 	b  a00068b0 <_realloc_r+0x478>
a0006910:	9a 25 c0 1a 	sub  %l7, %i2, %o5
a0006914:	7f ff fe c3 	call  a0006420 <__malloc_unlock>
a0006918:	90 10 00 15 	mov  %l5, %o0
a000691c:	90 10 20 00 	clr  %o0
a0006920:	81 c7 e0 08 	ret 
a0006924:	91 e8 00 08 	restore  %g0, %o0, %o0

a0006928 <_sbrk_r>:
a0006928:	9d e3 bf 98 	save  %sp, -104, %sp
a000692c:	21 28 00 2b 	sethi  %hi(0xa000ac00), %l0
a0006930:	c0 24 22 50 	clr  [ %l0 + 0x250 ]	! a000ae50 <errno>
a0006934:	40 00 04 40 	call  a0007a34 <sbrk>
a0006938:	90 10 00 19 	mov  %i1, %o0
a000693c:	80 a2 3f ff 	cmp  %o0, -1
a0006940:	12 80 00 06 	bne  a0006958 <_sbrk_r+0x30>
a0006944:	c2 04 22 50 	ld  [ %l0 + 0x250 ], %g1
a0006948:	80 a0 60 00 	cmp  %g1, 0
a000694c:	02 80 00 03 	be  a0006958 <_sbrk_r+0x30>
a0006950:	01 00 00 00 	nop 
a0006954:	c2 26 00 00 	st  %g1, [ %i0 ]
a0006958:	81 c7 e0 08 	ret 
a000695c:	91 e8 00 08 	restore  %g0, %o0, %o0

a0006960 <_init_signal_r>:
a0006960:	9d e3 bf 98 	save  %sp, -104, %sp
a0006964:	c2 06 22 dc 	ld  [ %i0 + 0x2dc ], %g1
a0006968:	80 a0 60 00 	cmp  %g1, 0
a000696c:	02 80 00 04 	be  a000697c <_init_signal_r+0x1c>
a0006970:	90 10 00 18 	mov  %i0, %o0
a0006974:	10 80 00 0f 	b  a00069b0 <_init_signal_r+0x50>
a0006978:	b0 10 20 00 	clr  %i0
a000697c:	7f ff fc 39 	call  a0005a60 <_malloc_r>
a0006980:	92 10 20 7c 	mov  0x7c, %o1
a0006984:	d0 26 22 dc 	st  %o0, [ %i0 + 0x2dc ]
a0006988:	80 a2 20 00 	cmp  %o0, 0
a000698c:	02 80 00 09 	be  a00069b0 <_init_signal_r+0x50>
a0006990:	b0 10 3f ff 	mov  -1, %i0
a0006994:	9a 10 20 00 	clr  %o5
a0006998:	83 2b 60 02 	sll  %o5, 2, %g1
a000699c:	9a 03 60 01 	inc  %o5
a00069a0:	80 a3 60 1e 	cmp  %o5, 0x1e
a00069a4:	04 bf ff fd 	ble  a0006998 <_init_signal_r+0x38>
a00069a8:	c0 22 00 01 	clr  [ %o0 + %g1 ]
a00069ac:	b0 10 20 00 	clr  %i0
a00069b0:	81 c7 e0 08 	ret 
a00069b4:	81 e8 00 00 	restore 

a00069b8 <_signal_r>:
a00069b8:	9d e3 bf 98 	save  %sp, -104, %sp
a00069bc:	80 a6 60 1e 	cmp  %i1, 0x1e
a00069c0:	08 80 00 05 	bleu  a00069d4 <_signal_r+0x1c>
a00069c4:	9a 10 3f ff 	mov  -1, %o5
a00069c8:	82 10 20 16 	mov  0x16, %g1
a00069cc:	10 80 00 11 	b  a0006a10 <_signal_r+0x58>
a00069d0:	c2 26 00 00 	st  %g1, [ %i0 ]
a00069d4:	d8 06 22 dc 	ld  [ %i0 + 0x2dc ], %o4
a00069d8:	80 a3 20 00 	cmp  %o4, 0
a00069dc:	02 80 00 06 	be  a00069f4 <_signal_r+0x3c>
a00069e0:	90 10 00 18 	mov  %i0, %o0
a00069e4:	83 2e 60 02 	sll  %i1, 2, %g1
a00069e8:	da 03 00 01 	ld  [ %o4 + %g1 ], %o5
a00069ec:	10 80 00 09 	b  a0006a10 <_signal_r+0x58>
a00069f0:	f4 23 00 01 	st  %i2, [ %o4 + %g1 ]
a00069f4:	7f ff ff db 	call  a0006960 <_init_signal_r>
a00069f8:	01 00 00 00 	nop 
a00069fc:	80 a2 20 00 	cmp  %o0, 0
a0006a00:	12 80 00 04 	bne  a0006a10 <_signal_r+0x58>
a0006a04:	9a 10 3f ff 	mov  -1, %o5
a0006a08:	10 bf ff f7 	b  a00069e4 <_signal_r+0x2c>
a0006a0c:	d8 06 22 dc 	ld  [ %i0 + 0x2dc ], %o4
a0006a10:	81 c7 e0 08 	ret 
a0006a14:	91 e8 00 0d 	restore  %g0, %o5, %o0

a0006a18 <_raise_r>:
a0006a18:	9d e3 bf 98 	save  %sp, -104, %sp
a0006a1c:	80 a6 60 1e 	cmp  %i1, 0x1e
a0006a20:	18 80 00 26 	bgu  a0006ab8 <_raise_r+0xa0>
a0006a24:	b4 10 00 19 	mov  %i1, %i2
a0006a28:	da 06 22 dc 	ld  [ %i0 + 0x2dc ], %o5
a0006a2c:	80 a3 60 00 	cmp  %o5, 0
a0006a30:	02 80 00 13 	be  a0006a7c <_raise_r+0x64>
a0006a34:	99 2e a0 02 	sll  %i2, 2, %o4
a0006a38:	c2 03 40 0c 	ld  [ %o5 + %o4 ], %g1
a0006a3c:	80 a0 60 00 	cmp  %g1, 0
a0006a40:	02 80 00 1a 	be  a0006aa8 <_raise_r+0x90>
a0006a44:	80 a0 60 01 	cmp  %g1, 1
a0006a48:	02 80 00 1f 	be  a0006ac4 <_raise_r+0xac>
a0006a4c:	96 10 20 00 	clr  %o3
a0006a50:	80 a0 7f ff 	cmp  %g1, -1
a0006a54:	22 80 00 07 	be,a   a0006a70 <_raise_r+0x58>
a0006a58:	82 10 20 16 	mov  0x16, %g1
a0006a5c:	c0 23 40 0c 	clr  [ %o5 + %o4 ]
a0006a60:	9f c0 40 00 	call  %g1
a0006a64:	90 10 00 1a 	mov  %i2, %o0
a0006a68:	10 80 00 17 	b  a0006ac4 <_raise_r+0xac>
a0006a6c:	96 10 20 00 	clr  %o3
a0006a70:	c2 26 00 00 	st  %g1, [ %i0 ]
a0006a74:	10 80 00 14 	b  a0006ac4 <_raise_r+0xac>
a0006a78:	96 10 20 01 	mov  1, %o3
a0006a7c:	7f ff ff b9 	call  a0006960 <_init_signal_r>
a0006a80:	90 10 00 18 	mov  %i0, %o0
a0006a84:	80 a2 20 00 	cmp  %o0, 0
a0006a88:	12 80 00 0f 	bne  a0006ac4 <_raise_r+0xac>
a0006a8c:	96 10 3f ff 	mov  -1, %o3
a0006a90:	da 06 22 dc 	ld  [ %i0 + 0x2dc ], %o5
a0006a94:	99 2e a0 02 	sll  %i2, 2, %o4
a0006a98:	c2 03 40 0c 	ld  [ %o5 + %o4 ], %g1
a0006a9c:	80 a0 60 00 	cmp  %g1, 0
a0006aa0:	12 bf ff ea 	bne  a0006a48 <_raise_r+0x30>
a0006aa4:	80 a0 60 01 	cmp  %g1, 1
a0006aa8:	40 00 00 56 	call  a0006c00 <_getpid_r>
a0006aac:	90 10 00 18 	mov  %i0, %o0
a0006ab0:	40 00 00 45 	call  a0006bc4 <_kill_r>
a0006ab4:	93 e8 00 08 	restore  %g0, %o0, %o1
a0006ab8:	82 10 20 16 	mov  0x16, %g1
a0006abc:	c2 26 00 00 	st  %g1, [ %i0 ]
a0006ac0:	96 10 3f ff 	mov  -1, %o3
a0006ac4:	81 c7 e0 08 	ret 
a0006ac8:	91 e8 00 0b 	restore  %g0, %o3, %o0

a0006acc <__sigtramp_r>:
a0006acc:	9d e3 bf 98 	save  %sp, -104, %sp
a0006ad0:	80 a6 60 1e 	cmp  %i1, 0x1e
a0006ad4:	18 80 00 1d 	bgu  a0006b48 <__sigtramp_r+0x7c>
a0006ad8:	98 10 3f ff 	mov  -1, %o4
a0006adc:	da 06 22 dc 	ld  [ %i0 + 0x2dc ], %o5
a0006ae0:	80 a3 60 00 	cmp  %o5, 0
a0006ae4:	02 80 00 12 	be  a0006b2c <__sigtramp_r+0x60>
a0006ae8:	90 10 00 18 	mov  %i0, %o0
a0006aec:	97 2e 60 02 	sll  %i1, 2, %o3
a0006af0:	c2 03 40 0b 	ld  [ %o5 + %o3 ], %g1
a0006af4:	80 a0 60 00 	cmp  %g1, 0
a0006af8:	02 80 00 14 	be  a0006b48 <__sigtramp_r+0x7c>
a0006afc:	98 10 20 01 	mov  1, %o4
a0006b00:	80 a0 7f ff 	cmp  %g1, -1
a0006b04:	02 80 00 11 	be  a0006b48 <__sigtramp_r+0x7c>
a0006b08:	98 10 20 02 	mov  2, %o4
a0006b0c:	90 10 00 19 	mov  %i1, %o0
a0006b10:	80 a0 60 01 	cmp  %g1, 1
a0006b14:	02 80 00 0d 	be  a0006b48 <__sigtramp_r+0x7c>
a0006b18:	98 10 20 03 	mov  3, %o4
a0006b1c:	9f c0 40 00 	call  %g1
a0006b20:	c0 23 40 0b 	clr  [ %o5 + %o3 ]
a0006b24:	10 80 00 09 	b  a0006b48 <__sigtramp_r+0x7c>
a0006b28:	98 10 20 00 	clr  %o4
a0006b2c:	7f ff ff 8d 	call  a0006960 <_init_signal_r>
a0006b30:	01 00 00 00 	nop 
a0006b34:	80 a2 20 00 	cmp  %o0, 0
a0006b38:	12 80 00 04 	bne  a0006b48 <__sigtramp_r+0x7c>
a0006b3c:	98 10 3f ff 	mov  -1, %o4
a0006b40:	10 bf ff eb 	b  a0006aec <__sigtramp_r+0x20>
a0006b44:	da 06 22 dc 	ld  [ %i0 + 0x2dc ], %o5
a0006b48:	81 c7 e0 08 	ret 
a0006b4c:	91 e8 00 0c 	restore  %g0, %o4, %o0

a0006b50 <raise>:
a0006b50:	92 10 00 08 	mov  %o0, %o1
a0006b54:	03 28 00 29 	sethi  %hi(0xa000a400), %g1
a0006b58:	d0 00 60 30 	ld  [ %g1 + 0x30 ], %o0	! a000a430 <_impure_ptr>
a0006b5c:	82 13 c0 00 	mov  %o7, %g1
a0006b60:	7f ff ff ae 	call  a0006a18 <_raise_r>
a0006b64:	9e 10 40 00 	mov  %g1, %o7
a0006b68:	01 00 00 00 	nop 

a0006b6c <signal>:
a0006b6c:	82 10 00 08 	mov  %o0, %g1
a0006b70:	94 10 00 09 	mov  %o1, %o2
a0006b74:	1b 28 00 29 	sethi  %hi(0xa000a400), %o5
a0006b78:	92 10 00 01 	mov  %g1, %o1
a0006b7c:	d0 03 60 30 	ld  [ %o5 + 0x30 ], %o0
a0006b80:	82 13 c0 00 	mov  %o7, %g1
a0006b84:	7f ff ff 8d 	call  a00069b8 <_signal_r>
a0006b88:	9e 10 40 00 	mov  %g1, %o7
a0006b8c:	01 00 00 00 	nop 

a0006b90 <_init_signal>:
a0006b90:	03 28 00 29 	sethi  %hi(0xa000a400), %g1
a0006b94:	d0 00 60 30 	ld  [ %g1 + 0x30 ], %o0	! a000a430 <_impure_ptr>
a0006b98:	82 13 c0 00 	mov  %o7, %g1
a0006b9c:	7f ff ff 71 	call  a0006960 <_init_signal_r>
a0006ba0:	9e 10 40 00 	mov  %g1, %o7
a0006ba4:	01 00 00 00 	nop 

a0006ba8 <__sigtramp>:
a0006ba8:	92 10 00 08 	mov  %o0, %o1
a0006bac:	03 28 00 29 	sethi  %hi(0xa000a400), %g1
a0006bb0:	d0 00 60 30 	ld  [ %g1 + 0x30 ], %o0	! a000a430 <_impure_ptr>
a0006bb4:	82 13 c0 00 	mov  %o7, %g1
a0006bb8:	7f ff ff c5 	call  a0006acc <__sigtramp_r>
a0006bbc:	9e 10 40 00 	mov  %g1, %o7
a0006bc0:	01 00 00 00 	nop 

a0006bc4 <_kill_r>:
a0006bc4:	9d e3 bf 98 	save  %sp, -104, %sp
a0006bc8:	21 28 00 2b 	sethi  %hi(0xa000ac00), %l0
a0006bcc:	c0 24 22 50 	clr  [ %l0 + 0x250 ]	! a000ae50 <errno>
a0006bd0:	90 10 00 19 	mov  %i1, %o0
a0006bd4:	40 00 03 6f 	call  a0007990 <kill>
a0006bd8:	92 10 00 1a 	mov  %i2, %o1
a0006bdc:	80 a2 3f ff 	cmp  %o0, -1
a0006be0:	12 80 00 06 	bne  a0006bf8 <_kill_r+0x34>
a0006be4:	c2 04 22 50 	ld  [ %l0 + 0x250 ], %g1
a0006be8:	80 a0 60 00 	cmp  %g1, 0
a0006bec:	02 80 00 03 	be  a0006bf8 <_kill_r+0x34>
a0006bf0:	01 00 00 00 	nop 
a0006bf4:	c2 26 00 00 	st  %g1, [ %i0 ]
a0006bf8:	81 c7 e0 08 	ret 
a0006bfc:	91 e8 00 08 	restore  %g0, %o0, %o0

a0006c00 <_getpid_r>:
a0006c00:	82 13 c0 00 	mov  %o7, %g1
a0006c04:	40 00 03 5f 	call  a0007980 <getpid>
a0006c08:	9e 10 40 00 	mov  %g1, %o7
a0006c0c:	01 00 00 00 	nop 

a0006c10 <__sread>:
a0006c10:	9d e3 bf 98 	save  %sp, -104, %sp
a0006c14:	03 28 00 29 	sethi  %hi(0xa000a400), %g1
a0006c18:	d0 00 60 30 	ld  [ %g1 + 0x30 ], %o0	! a000a430 <_impure_ptr>
a0006c1c:	94 10 00 19 	mov  %i1, %o2
a0006c20:	96 10 00 1a 	mov  %i2, %o3
a0006c24:	40 00 01 38 	call  a0007104 <_read_r>
a0006c28:	d2 56 20 0e 	ldsh  [ %i0 + 0xe ], %o1
a0006c2c:	80 a2 20 00 	cmp  %o0, 0
a0006c30:	26 80 00 06 	bl,a   a0006c48 <__sread+0x38>
a0006c34:	da 16 20 0c 	lduh  [ %i0 + 0xc ], %o5
a0006c38:	c2 06 20 50 	ld  [ %i0 + 0x50 ], %g1
a0006c3c:	82 00 40 08 	add  %g1, %o0, %g1
a0006c40:	10 80 00 05 	b  a0006c54 <__sread+0x44>
a0006c44:	c2 26 20 50 	st  %g1, [ %i0 + 0x50 ]
a0006c48:	03 00 00 04 	sethi  %hi(0x1000), %g1
a0006c4c:	82 2b 40 01 	andn  %o5, %g1, %g1
a0006c50:	c2 36 20 0c 	sth  %g1, [ %i0 + 0xc ]
a0006c54:	81 c7 e0 08 	ret 
a0006c58:	91 e8 00 08 	restore  %g0, %o0, %o0

a0006c5c <__swrite>:
a0006c5c:	9d e3 bf 98 	save  %sp, -104, %sp
a0006c60:	b6 10 00 1a 	mov  %i2, %i3
a0006c64:	c2 16 20 0c 	lduh  [ %i0 + 0xc ], %g1
a0006c68:	b4 10 00 19 	mov  %i1, %i2
a0006c6c:	a0 10 00 18 	mov  %i0, %l0
a0006c70:	94 10 20 00 	clr  %o2
a0006c74:	96 10 20 02 	mov  2, %o3
a0006c78:	80 88 61 00 	btst  0x100, %g1
a0006c7c:	9a 10 00 01 	mov  %g1, %o5
a0006c80:	12 80 00 09 	bne  a0006ca4 <__swrite+0x48>
a0006c84:	33 28 00 29 	sethi  %hi(0xa000a400), %i1
a0006c88:	03 00 00 04 	sethi  %hi(0x1000), %g1
a0006c8c:	82 2b 40 01 	andn  %o5, %g1, %g1
a0006c90:	f0 06 60 30 	ld  [ %i1 + 0x30 ], %i0
a0006c94:	c2 34 20 0c 	sth  %g1, [ %l0 + 0xc ]
a0006c98:	f2 54 20 0e 	ldsh  [ %l0 + 0xe ], %i1
a0006c9c:	40 00 00 72 	call  a0006e64 <_write_r>
a0006ca0:	81 e8 00 00 	restore 
a0006ca4:	d2 56 20 0e 	ldsh  [ %i0 + 0xe ], %o1
a0006ca8:	40 00 01 07 	call  a00070c4 <_lseek_r>
a0006cac:	d0 06 60 30 	ld  [ %i1 + 0x30 ], %o0
a0006cb0:	da 16 20 0c 	lduh  [ %i0 + 0xc ], %o5
a0006cb4:	03 00 00 04 	sethi  %hi(0x1000), %g1
a0006cb8:	82 2b 40 01 	andn  %o5, %g1, %g1
a0006cbc:	f0 06 60 30 	ld  [ %i1 + 0x30 ], %i0
a0006cc0:	c2 34 20 0c 	sth  %g1, [ %l0 + 0xc ]
a0006cc4:	f2 54 20 0e 	ldsh  [ %l0 + 0xe ], %i1
a0006cc8:	40 00 00 67 	call  a0006e64 <_write_r>
a0006ccc:	81 e8 00 00 	restore 
a0006cd0:	01 00 00 00 	nop 

a0006cd4 <__sseek>:
a0006cd4:	9d e3 bf 98 	save  %sp, -104, %sp
a0006cd8:	03 28 00 29 	sethi  %hi(0xa000a400), %g1
a0006cdc:	d0 00 60 30 	ld  [ %g1 + 0x30 ], %o0	! a000a430 <_impure_ptr>
a0006ce0:	94 10 00 19 	mov  %i1, %o2
a0006ce4:	96 10 00 1a 	mov  %i2, %o3
a0006ce8:	40 00 00 f7 	call  a00070c4 <_lseek_r>
a0006cec:	d2 56 20 0e 	ldsh  [ %i0 + 0xe ], %o1
a0006cf0:	80 a2 3f ff 	cmp  %o0, -1
a0006cf4:	02 80 00 07 	be  a0006d10 <__sseek+0x3c>
a0006cf8:	1b 00 00 04 	sethi  %hi(0x1000), %o5
a0006cfc:	c2 16 20 0c 	lduh  [ %i0 + 0xc ], %g1
a0006d00:	82 10 40 0d 	or  %g1, %o5, %g1
a0006d04:	c2 36 20 0c 	sth  %g1, [ %i0 + 0xc ]
a0006d08:	10 80 00 06 	b  a0006d20 <__sseek+0x4c>
a0006d0c:	d0 26 20 50 	st  %o0, [ %i0 + 0x50 ]
a0006d10:	da 16 20 0c 	lduh  [ %i0 + 0xc ], %o5
a0006d14:	03 00 00 04 	sethi  %hi(0x1000), %g1
a0006d18:	82 2b 40 01 	andn  %o5, %g1, %g1
a0006d1c:	c2 36 20 0c 	sth  %g1, [ %i0 + 0xc ]
a0006d20:	81 c7 e0 08 	ret 
a0006d24:	91 e8 00 08 	restore  %g0, %o0, %o0

a0006d28 <__sclose>:
a0006d28:	d2 52 20 0e 	ldsh  [ %o0 + 0xe ], %o1
a0006d2c:	03 28 00 29 	sethi  %hi(0xa000a400), %g1
a0006d30:	d0 00 60 30 	ld  [ %g1 + 0x30 ], %o0	! a000a430 <_impure_ptr>
a0006d34:	82 13 c0 00 	mov  %o7, %g1
a0006d38:	40 00 00 5b 	call  a0006ea4 <_close_r>
a0006d3c:	9e 10 40 00 	mov  %g1, %o7
a0006d40:	01 00 00 00 	nop 

a0006d44 <strcmp>:
a0006d44:	82 12 00 09 	or  %o0, %o1, %g1
a0006d48:	80 88 60 03 	btst  3, %g1
a0006d4c:	32 80 00 08 	bne,a   a0006d6c <strcmp+0x28>
a0006d50:	d8 4a 00 00 	ldsb  [ %o0 ], %o4
a0006d54:	d8 02 00 00 	ld  [ %o0 ], %o4
a0006d58:	c2 02 40 00 	ld  [ %o1 ], %g1
a0006d5c:	80 a3 00 01 	cmp  %o4, %g1
a0006d60:	02 80 00 15 	be  a0006db4 <strcmp+0x70>
a0006d64:	03 3f bf bf 	sethi  %hi(0xfefefc00), %g1
a0006d68:	d8 4a 00 00 	ldsb  [ %o0 ], %o4
a0006d6c:	80 a3 20 00 	cmp  %o4, 0
a0006d70:	02 80 00 0c 	be  a0006da0 <strcmp+0x5c>
a0006d74:	da 0a 00 00 	ldub  [ %o0 ], %o5
a0006d78:	c2 4a 40 00 	ldsb  [ %o1 ], %g1
a0006d7c:	80 a3 00 01 	cmp  %o4, %g1
a0006d80:	12 80 00 09 	bne  a0006da4 <strcmp+0x60>
a0006d84:	c2 0a 40 00 	ldub  [ %o1 ], %g1
a0006d88:	90 02 20 01 	inc  %o0
a0006d8c:	d8 4a 00 00 	ldsb  [ %o0 ], %o4
a0006d90:	92 02 60 01 	inc  %o1
a0006d94:	80 a3 20 00 	cmp  %o4, 0
a0006d98:	12 bf ff f8 	bne  a0006d78 <strcmp+0x34>
a0006d9c:	da 0a 00 00 	ldub  [ %o0 ], %o5
a0006da0:	c2 0a 40 00 	ldub  [ %o1 ], %g1
a0006da4:	9a 0b 60 ff 	and  %o5, 0xff, %o5
a0006da8:	82 08 60 ff 	and  %g1, 0xff, %g1
a0006dac:	10 80 00 13 	b  a0006df8 <strcmp+0xb4>
a0006db0:	90 23 40 01 	sub  %o5, %g1, %o0
a0006db4:	1b 20 20 20 	sethi  %hi(0x80808000), %o5
a0006db8:	96 10 62 ff 	or  %g1, 0x2ff, %o3
a0006dbc:	9a 13 60 80 	or  %o5, 0x80, %o5
a0006dc0:	82 03 00 0b 	add  %o4, %o3, %g1
a0006dc4:	82 28 40 0c 	andn  %g1, %o4, %g1
a0006dc8:	90 02 20 04 	add  %o0, 4, %o0
a0006dcc:	80 88 40 0d 	btst  %g1, %o5
a0006dd0:	12 80 00 09 	bne  a0006df4 <strcmp+0xb0>
a0006dd4:	92 02 60 04 	add  %o1, 4, %o1
a0006dd8:	d8 02 00 00 	ld  [ %o0 ], %o4
a0006ddc:	c2 02 40 00 	ld  [ %o1 ], %g1
a0006de0:	80 a3 00 01 	cmp  %o4, %g1
a0006de4:	02 bf ff f8 	be  a0006dc4 <strcmp+0x80>
a0006de8:	82 03 00 0b 	add  %o4, %o3, %g1
a0006dec:	10 bf ff e0 	b  a0006d6c <strcmp+0x28>
a0006df0:	d8 4a 00 00 	ldsb  [ %o0 ], %o4
a0006df4:	90 10 20 00 	clr  %o0
a0006df8:	81 c3 e0 08 	retl 
a0006dfc:	01 00 00 00 	nop 

a0006e00 <strlen>:
a0006e00:	80 8a 20 03 	btst  3, %o0
a0006e04:	12 80 00 12 	bne  a0006e4c <strlen+0x4c>
a0006e08:	94 10 00 08 	mov  %o0, %o2
a0006e0c:	03 3f bf bf 	sethi  %hi(0xfefefc00), %g1
a0006e10:	da 02 00 00 	ld  [ %o0 ], %o5
a0006e14:	96 10 62 ff 	or  %g1, 0x2ff, %o3
a0006e18:	82 03 40 0b 	add  %o5, %o3, %g1
a0006e1c:	19 20 20 20 	sethi  %hi(0x80808000), %o4
a0006e20:	9a 28 40 0d 	andn  %g1, %o5, %o5
a0006e24:	98 13 20 80 	or  %o4, 0x80, %o4
a0006e28:	80 8b 40 0c 	btst  %o5, %o4
a0006e2c:	32 80 00 09 	bne,a   a0006e50 <strlen+0x50>
a0006e30:	c2 4a 00 00 	ldsb  [ %o0 ], %g1
a0006e34:	90 02 20 04 	add  %o0, 4, %o0
a0006e38:	c2 02 00 00 	ld  [ %o0 ], %g1
a0006e3c:	9a 00 40 0b 	add  %g1, %o3, %o5
a0006e40:	82 2b 40 01 	andn  %o5, %g1, %g1
a0006e44:	10 bf ff fa 	b  a0006e2c <strlen+0x2c>
a0006e48:	80 88 40 0c 	btst  %g1, %o4
a0006e4c:	c2 4a 00 00 	ldsb  [ %o0 ], %g1
a0006e50:	80 a0 60 00 	cmp  %g1, 0
a0006e54:	32 bf ff fe 	bne,a   a0006e4c <strlen+0x4c>
a0006e58:	90 02 20 01 	inc  %o0
a0006e5c:	81 c3 e0 08 	retl 
a0006e60:	90 22 00 0a 	sub  %o0, %o2, %o0

a0006e64 <_write_r>:
a0006e64:	9d e3 bf 98 	save  %sp, -104, %sp
a0006e68:	21 28 00 2b 	sethi  %hi(0xa000ac00), %l0
a0006e6c:	c0 24 22 50 	clr  [ %l0 + 0x250 ]	! a000ae50 <errno>
a0006e70:	90 10 00 19 	mov  %i1, %o0
a0006e74:	92 10 00 1a 	mov  %i2, %o1
a0006e78:	40 00 02 fb 	call  a0007a64 <write>
a0006e7c:	94 10 00 1b 	mov  %i3, %o2
a0006e80:	80 a2 3f ff 	cmp  %o0, -1
a0006e84:	12 80 00 06 	bne  a0006e9c <_write_r+0x38>
a0006e88:	c2 04 22 50 	ld  [ %l0 + 0x250 ], %g1
a0006e8c:	80 a0 60 00 	cmp  %g1, 0
a0006e90:	02 80 00 03 	be  a0006e9c <_write_r+0x38>
a0006e94:	01 00 00 00 	nop 
a0006e98:	c2 26 00 00 	st  %g1, [ %i0 ]
a0006e9c:	81 c7 e0 08 	ret 
a0006ea0:	91 e8 00 08 	restore  %g0, %o0, %o0

a0006ea4 <_close_r>:
a0006ea4:	9d e3 bf 98 	save  %sp, -104, %sp
a0006ea8:	21 28 00 2b 	sethi  %hi(0xa000ac00), %l0
a0006eac:	c0 24 22 50 	clr  [ %l0 + 0x250 ]	! a000ae50 <errno>
a0006eb0:	40 00 02 ad 	call  a0007964 <close>
a0006eb4:	90 10 00 19 	mov  %i1, %o0
a0006eb8:	80 a2 3f ff 	cmp  %o0, -1
a0006ebc:	12 80 00 06 	bne  a0006ed4 <_close_r+0x30>
a0006ec0:	c2 04 22 50 	ld  [ %l0 + 0x250 ], %g1
a0006ec4:	80 a0 60 00 	cmp  %g1, 0
a0006ec8:	02 80 00 03 	be  a0006ed4 <_close_r+0x30>
a0006ecc:	01 00 00 00 	nop 
a0006ed0:	c2 26 00 00 	st  %g1, [ %i0 ]
a0006ed4:	81 c7 e0 08 	ret 
a0006ed8:	91 e8 00 08 	restore  %g0, %o0, %o0

a0006edc <_fclose_r>:
a0006edc:	9d e3 bf 98 	save  %sp, -104, %sp
a0006ee0:	a2 10 00 18 	mov  %i0, %l1
a0006ee4:	80 a6 60 00 	cmp  %i1, 0
a0006ee8:	02 80 00 5f 	be  a0007064 <_fclose_r+0x188>
a0006eec:	90 10 20 00 	clr  %o0
a0006ef0:	7f ff f7 74 	call  a0004cc0 <__sfp_lock_acquire>
a0006ef4:	01 00 00 00 	nop 
a0006ef8:	c2 16 60 0c 	lduh  [ %i1 + 0xc ], %g1
a0006efc:	80 88 62 00 	btst  0x200, %g1
a0006f00:	02 80 00 3b 	be  a0006fec <_fclose_r+0x110>
a0006f04:	01 00 00 00 	nop 
a0006f08:	21 28 00 29 	sethi  %hi(0xa000a400), %l0
a0006f0c:	d0 04 20 30 	ld  [ %l0 + 0x30 ], %o0	! a000a430 <_impure_ptr>
a0006f10:	80 a2 20 00 	cmp  %o0, 0
a0006f14:	22 80 00 07 	be,a   a0006f30 <_fclose_r+0x54>
a0006f18:	c2 16 60 0c 	lduh  [ %i1 + 0xc ], %g1
a0006f1c:	c2 02 20 38 	ld  [ %o0 + 0x38 ], %g1
a0006f20:	80 a0 60 00 	cmp  %g1, 0
a0006f24:	02 80 00 39 	be  a0007008 <_fclose_r+0x12c>
a0006f28:	01 00 00 00 	nop 
a0006f2c:	c2 16 60 0c 	lduh  [ %i1 + 0xc ], %g1
a0006f30:	83 28 60 10 	sll  %g1, 0x10, %g1
a0006f34:	80 a0 60 00 	cmp  %g1, 0
a0006f38:	12 80 00 09 	bne  a0006f5c <_fclose_r+0x80>
a0006f3c:	83 30 60 10 	srl  %g1, 0x10, %g1
a0006f40:	80 88 62 00 	btst  0x200, %g1
a0006f44:	02 80 00 2e 	be  a0006ffc <_fclose_r+0x120>
a0006f48:	01 00 00 00 	nop 
a0006f4c:	7f ff f7 63 	call  a0004cd8 <__sfp_lock_release>
a0006f50:	01 00 00 00 	nop 
a0006f54:	10 80 00 44 	b  a0007064 <_fclose_r+0x188>
a0006f58:	90 10 20 00 	clr  %o0	! 0 <_trap_table-0xa0000000>
a0006f5c:	80 88 60 08 	btst  8, %g1
a0006f60:	12 80 00 35 	bne  a0007034 <_fclose_r+0x158>
a0006f64:	b0 10 20 00 	clr  %i0
a0006f68:	c2 06 60 2c 	ld  [ %i1 + 0x2c ], %g1
a0006f6c:	80 a0 60 00 	cmp  %g1, 0
a0006f70:	12 80 00 2a 	bne  a0007018 <_fclose_r+0x13c>
a0006f74:	01 00 00 00 	nop 
a0006f78:	c2 16 60 0c 	lduh  [ %i1 + 0xc ], %g1
a0006f7c:	80 88 60 80 	btst  0x80, %g1
a0006f80:	12 80 00 31 	bne  a0007044 <_fclose_r+0x168>
a0006f84:	90 10 00 11 	mov  %l1, %o0
a0006f88:	d2 06 60 30 	ld  [ %i1 + 0x30 ], %o1
a0006f8c:	80 a2 60 00 	cmp  %o1, 0
a0006f90:	22 80 00 0a 	be,a   a0006fb8 <_fclose_r+0xdc>
a0006f94:	d2 06 60 44 	ld  [ %i1 + 0x44 ], %o1
a0006f98:	82 06 60 40 	add  %i1, 0x40, %g1
a0006f9c:	80 a2 40 01 	cmp  %o1, %g1
a0006fa0:	22 80 00 05 	be,a   a0006fb4 <_fclose_r+0xd8>
a0006fa4:	c0 26 60 30 	clr  [ %i1 + 0x30 ]
a0006fa8:	7f ff f7 f9 	call  a0004f8c <_free_r>
a0006fac:	d0 04 20 30 	ld  [ %l0 + 0x30 ], %o0
a0006fb0:	c0 26 60 30 	clr  [ %i1 + 0x30 ]
a0006fb4:	d2 06 60 44 	ld  [ %i1 + 0x44 ], %o1
a0006fb8:	80 a2 60 00 	cmp  %o1, 0
a0006fbc:	12 80 00 26 	bne  a0007054 <_fclose_r+0x178>
a0006fc0:	01 00 00 00 	nop 
a0006fc4:	a0 06 60 58 	add  %i1, 0x58, %l0
a0006fc8:	c0 36 60 0c 	clrh  [ %i1 + 0xc ]
a0006fcc:	40 00 05 8d 	call  a0008600 <___st_pthread_mutex_unlock>
a0006fd0:	90 10 00 10 	mov  %l0, %o0
a0006fd4:	40 00 05 67 	call  a0008570 <___st_pthread_mutex_destroy>
a0006fd8:	90 10 00 10 	mov  %l0, %o0
a0006fdc:	7f ff f7 3f 	call  a0004cd8 <__sfp_lock_release>
a0006fe0:	01 00 00 00 	nop 
a0006fe4:	10 80 00 20 	b  a0007064 <_fclose_r+0x188>
a0006fe8:	90 10 00 18 	mov  %i0, %o0
a0006fec:	40 00 05 6d 	call  a00085a0 <___st_pthread_mutex_lock>
a0006ff0:	90 06 60 58 	add  %i1, 0x58, %o0
a0006ff4:	10 bf ff c6 	b  a0006f0c <_fclose_r+0x30>
a0006ff8:	21 28 00 29 	sethi  %hi(0xa000a400), %l0
a0006ffc:	40 00 05 81 	call  a0008600 <___st_pthread_mutex_unlock>
a0007000:	90 06 60 58 	add  %i1, 0x58, %o0
a0007004:	30 bf ff d2 	b,a   a0006f4c <_fclose_r+0x70>
a0007008:	7f ff f7 07 	call  a0004c24 <__sinit>
a000700c:	01 00 00 00 	nop 
a0007010:	10 bf ff c8 	b  a0006f30 <_fclose_r+0x54>
a0007014:	c2 16 60 0c 	lduh  [ %i1 + 0xc ], %g1
a0007018:	9f c0 40 00 	call  %g1
a000701c:	d0 06 60 1c 	ld  [ %i1 + 0x1c ], %o0
a0007020:	80 a2 20 00 	cmp  %o0, 0
a0007024:	26 bf ff d5 	bl,a   a0006f78 <_fclose_r+0x9c>
a0007028:	b0 10 3f ff 	mov  -1, %i0
a000702c:	10 bf ff d4 	b  a0006f7c <_fclose_r+0xa0>
a0007030:	c2 16 60 0c 	lduh  [ %i1 + 0xc ], %g1
a0007034:	7f ff f6 66 	call  a00049cc <fflush>
a0007038:	90 10 00 19 	mov  %i1, %o0
a000703c:	10 bf ff cb 	b  a0006f68 <_fclose_r+0x8c>
a0007040:	b0 10 00 08 	mov  %o0, %i0
a0007044:	7f ff f7 d2 	call  a0004f8c <_free_r>
a0007048:	d2 06 60 10 	ld  [ %i1 + 0x10 ], %o1
a000704c:	10 bf ff d0 	b  a0006f8c <_fclose_r+0xb0>
a0007050:	d2 06 60 30 	ld  [ %i1 + 0x30 ], %o1
a0007054:	7f ff f7 ce 	call  a0004f8c <_free_r>
a0007058:	d0 04 20 30 	ld  [ %l0 + 0x30 ], %o0
a000705c:	10 bf ff da 	b  a0006fc4 <_fclose_r+0xe8>
a0007060:	c0 26 60 44 	clr  [ %i1 + 0x44 ]
a0007064:	81 c7 e0 08 	ret 
a0007068:	91 e8 00 08 	restore  %g0, %o0, %o0

a000706c <fclose>:
a000706c:	92 10 00 08 	mov  %o0, %o1
a0007070:	03 28 00 29 	sethi  %hi(0xa000a400), %g1
a0007074:	d0 00 60 30 	ld  [ %g1 + 0x30 ], %o0	! a000a430 <_impure_ptr>
a0007078:	82 13 c0 00 	mov  %o7, %g1
a000707c:	7f ff ff 98 	call  a0006edc <_fclose_r>
a0007080:	9e 10 40 00 	mov  %g1, %o7
a0007084:	01 00 00 00 	nop 

a0007088 <_fstat_r>:
a0007088:	9d e3 bf 98 	save  %sp, -104, %sp
a000708c:	21 28 00 2b 	sethi  %hi(0xa000ac00), %l0
a0007090:	c0 24 22 50 	clr  [ %l0 + 0x250 ]	! a000ae50 <errno>
a0007094:	90 10 00 19 	mov  %i1, %o0
a0007098:	40 00 02 35 	call  a000796c <fstat>
a000709c:	92 10 00 1a 	mov  %i2, %o1
a00070a0:	80 a2 3f ff 	cmp  %o0, -1
a00070a4:	12 80 00 06 	bne  a00070bc <_fstat_r+0x34>
a00070a8:	c2 04 22 50 	ld  [ %l0 + 0x250 ], %g1
a00070ac:	80 a0 60 00 	cmp  %g1, 0
a00070b0:	02 80 00 03 	be  a00070bc <_fstat_r+0x34>
a00070b4:	01 00 00 00 	nop 
a00070b8:	c2 26 00 00 	st  %g1, [ %i0 ]
a00070bc:	81 c7 e0 08 	ret 
a00070c0:	91 e8 00 08 	restore  %g0, %o0, %o0

a00070c4 <_lseek_r>:
a00070c4:	9d e3 bf 98 	save  %sp, -104, %sp
a00070c8:	21 28 00 2b 	sethi  %hi(0xa000ac00), %l0
a00070cc:	c0 24 22 50 	clr  [ %l0 + 0x250 ]	! a000ae50 <errno>
a00070d0:	90 10 00 19 	mov  %i1, %o0
a00070d4:	92 10 00 1a 	mov  %i2, %o1
a00070d8:	40 00 02 36 	call  a00079b0 <lseek>
a00070dc:	94 10 00 1b 	mov  %i3, %o2
a00070e0:	80 a2 3f ff 	cmp  %o0, -1
a00070e4:	12 80 00 06 	bne  a00070fc <_lseek_r+0x38>
a00070e8:	c2 04 22 50 	ld  [ %l0 + 0x250 ], %g1
a00070ec:	80 a0 60 00 	cmp  %g1, 0
a00070f0:	02 80 00 03 	be  a00070fc <_lseek_r+0x38>
a00070f4:	01 00 00 00 	nop 
a00070f8:	c2 26 00 00 	st  %g1, [ %i0 ]
a00070fc:	81 c7 e0 08 	ret 
a0007100:	91 e8 00 08 	restore  %g0, %o0, %o0

a0007104 <_read_r>:
a0007104:	9d e3 bf 98 	save  %sp, -104, %sp
a0007108:	21 28 00 2b 	sethi  %hi(0xa000ac00), %l0
a000710c:	c0 24 22 50 	clr  [ %l0 + 0x250 ]	! a000ae50 <errno>
a0007110:	90 10 00 19 	mov  %i1, %o0
a0007114:	92 10 00 1a 	mov  %i2, %o1
a0007118:	40 00 02 2d 	call  a00079cc <read>
a000711c:	94 10 00 1b 	mov  %i3, %o2
a0007120:	80 a2 3f ff 	cmp  %o0, -1
a0007124:	12 80 00 06 	bne  a000713c <_read_r+0x38>
a0007128:	c2 04 22 50 	ld  [ %l0 + 0x250 ], %g1
a000712c:	80 a0 60 00 	cmp  %g1, 0
a0007130:	02 80 00 03 	be  a000713c <_read_r+0x38>
a0007134:	01 00 00 00 	nop 
a0007138:	c2 26 00 00 	st  %g1, [ %i0 ]
a000713c:	81 c7 e0 08 	ret 
a0007140:	91 e8 00 08 	restore  %g0, %o0, %o0

a0007144 <cleanup_glue>:
a0007144:	9d e3 bf 98 	save  %sp, -104, %sp
a0007148:	d2 06 40 00 	ld  [ %i1 ], %o1
a000714c:	80 a2 60 00 	cmp  %o1, 0
a0007150:	12 80 00 04 	bne  a0007160 <cleanup_glue+0x1c>
a0007154:	90 10 00 18 	mov  %i0, %o0
a0007158:	7f ff f7 8d 	call  a0004f8c <_free_r>
a000715c:	81 e8 00 00 	restore 
a0007160:	7f ff ff f9 	call  a0007144 <cleanup_glue>
a0007164:	01 00 00 00 	nop 
a0007168:	7f ff f7 89 	call  a0004f8c <_free_r>
a000716c:	81 e8 00 00 	restore 
a0007170:	01 00 00 00 	nop 

a0007174 <_reclaim_reent>:
a0007174:	9d e3 bf 98 	save  %sp, -104, %sp
a0007178:	03 28 00 29 	sethi  %hi(0xa000a400), %g1
a000717c:	da 00 60 30 	ld  [ %g1 + 0x30 ], %o5	! a000a430 <_impure_ptr>
a0007180:	80 a6 00 0d 	cmp  %i0, %o5
a0007184:	02 80 00 41 	be  a0007288 <_reclaim_reent+0x114>
a0007188:	01 00 00 00 	nop 
a000718c:	d2 06 20 4c 	ld  [ %i0 + 0x4c ], %o1
a0007190:	80 a2 60 00 	cmp  %o1, 0
a0007194:	12 80 00 1c 	bne  a0007204 <_reclaim_reent+0x90>
a0007198:	a0 10 20 00 	clr  %l0
a000719c:	d2 06 21 48 	ld  [ %i0 + 0x148 ], %o1
a00071a0:	80 a2 60 00 	cmp  %o1, 0
a00071a4:	22 80 00 0f 	be,a   a00071e0 <_reclaim_reent+0x6c>
a00071a8:	d2 06 20 54 	ld  [ %i0 + 0x54 ], %o1
a00071ac:	a0 06 21 4c 	add  %i0, 0x14c, %l0
a00071b0:	80 a2 40 10 	cmp  %o1, %l0
a00071b4:	22 80 00 0b 	be,a   a00071e0 <_reclaim_reent+0x6c>
a00071b8:	d2 06 20 54 	ld  [ %i0 + 0x54 ], %o1
a00071bc:	10 80 00 05 	b  a00071d0 <_reclaim_reent+0x5c>
a00071c0:	b2 10 00 09 	mov  %o1, %i1
a00071c4:	f2 06 40 00 	ld  [ %i1 ], %i1
a00071c8:	7f ff f7 71 	call  a0004f8c <_free_r>
a00071cc:	90 10 00 18 	mov  %i0, %o0
a00071d0:	80 a4 00 19 	cmp  %l0, %i1
a00071d4:	12 bf ff fc 	bne  a00071c4 <_reclaim_reent+0x50>
a00071d8:	92 10 00 19 	mov  %i1, %o1
a00071dc:	d2 06 20 54 	ld  [ %i0 + 0x54 ], %o1
a00071e0:	80 a2 60 00 	cmp  %o1, 0
a00071e4:	12 80 00 25 	bne  a0007278 <_reclaim_reent+0x104>
a00071e8:	01 00 00 00 	nop 
a00071ec:	c2 06 20 38 	ld  [ %i0 + 0x38 ], %g1
a00071f0:	80 a0 60 00 	cmp  %g1, 0
a00071f4:	02 80 00 25 	be  a0007288 <_reclaim_reent+0x114>
a00071f8:	01 00 00 00 	nop 
a00071fc:	10 80 00 17 	b  a0007258 <_reclaim_reent+0xe4>
a0007200:	c2 06 20 3c 	ld  [ %i0 + 0x3c ], %g1
a0007204:	83 2c 20 02 	sll  %l0, 2, %g1
a0007208:	f2 02 40 01 	ld  [ %o1 + %g1 ], %i1
a000720c:	80 a6 60 00 	cmp  %i1, 0
a0007210:	22 80 00 0b 	be,a   a000723c <_reclaim_reent+0xc8>
a0007214:	a0 04 20 01 	inc  %l0
a0007218:	92 10 00 19 	mov  %i1, %o1
a000721c:	f2 06 40 00 	ld  [ %i1 ], %i1
a0007220:	7f ff f7 5b 	call  a0004f8c <_free_r>
a0007224:	90 10 00 18 	mov  %i0, %o0
a0007228:	80 a6 60 00 	cmp  %i1, 0
a000722c:	12 bf ff fc 	bne  a000721c <_reclaim_reent+0xa8>
a0007230:	92 10 00 19 	mov  %i1, %o1
a0007234:	d2 06 20 4c 	ld  [ %i0 + 0x4c ], %o1
a0007238:	a0 04 20 01 	inc  %l0
a000723c:	80 a4 20 0e 	cmp  %l0, 0xe
a0007240:	04 bf ff f2 	ble  a0007208 <_reclaim_reent+0x94>
a0007244:	83 2c 20 02 	sll  %l0, 2, %g1
a0007248:	7f ff f7 51 	call  a0004f8c <_free_r>
a000724c:	90 10 00 18 	mov  %i0, %o0
a0007250:	10 bf ff d4 	b  a00071a0 <_reclaim_reent+0x2c>
a0007254:	d2 06 21 48 	ld  [ %i0 + 0x148 ], %o1
a0007258:	9f c0 40 00 	call  %g1
a000725c:	90 10 00 18 	mov  %i0, %o0
a0007260:	f2 06 22 e0 	ld  [ %i0 + 0x2e0 ], %i1
a0007264:	80 a6 60 00 	cmp  %i1, 0
a0007268:	02 80 00 08 	be  a0007288 <_reclaim_reent+0x114>
a000726c:	01 00 00 00 	nop 
a0007270:	7f ff ff b5 	call  a0007144 <cleanup_glue>
a0007274:	81 e8 00 00 	restore 
a0007278:	7f ff f7 45 	call  a0004f8c <_free_r>
a000727c:	90 10 00 18 	mov  %i0, %o0
a0007280:	10 bf ff dc 	b  a00071f0 <_reclaim_reent+0x7c>
a0007284:	c2 06 20 38 	ld  [ %i0 + 0x38 ], %g1
a0007288:	81 c7 e0 08 	ret 
a000728c:	81 e8 00 00 	restore 

a0007290 <_wrapup_reent>:
a0007290:	9d e3 bf 98 	save  %sp, -104, %sp
a0007294:	80 a6 20 00 	cmp  %i0, 0
a0007298:	02 80 00 1d 	be  a000730c <_wrapup_reent+0x7c>
a000729c:	03 28 00 29 	sethi  %hi(0xa000a400), %g1
a00072a0:	e4 06 21 48 	ld  [ %i0 + 0x148 ], %l2
a00072a4:	80 a4 a0 00 	cmp  %l2, 0
a00072a8:	22 80 00 13 	be,a   a00072f4 <_wrapup_reent+0x64>
a00072ac:	c2 06 20 3c 	ld  [ %i0 + 0x3c ], %g1
a00072b0:	e2 04 a0 04 	ld  [ %l2 + 4 ], %l1
a00072b4:	a2 84 7f ff 	addcc  %l1, -1, %l1
a00072b8:	0c 80 00 0a 	bneg  a00072e0 <_wrapup_reent+0x50>
a00072bc:	83 2c 60 02 	sll  %l1, 2, %g1
a00072c0:	82 00 40 12 	add  %g1, %l2, %g1
a00072c4:	a0 00 60 08 	add  %g1, 8, %l0
a00072c8:	c2 04 00 00 	ld  [ %l0 ], %g1
a00072cc:	9f c0 40 00 	call  %g1
a00072d0:	a0 04 3f fc 	add  %l0, -4, %l0
a00072d4:	a2 84 7f ff 	addcc  %l1, -1, %l1
a00072d8:	3c bf ff fd 	bpos,a   a00072cc <_wrapup_reent+0x3c>
a00072dc:	c2 04 00 00 	ld  [ %l0 ], %g1
a00072e0:	e4 04 80 00 	ld  [ %l2 ], %l2
a00072e4:	80 a4 a0 00 	cmp  %l2, 0
a00072e8:	32 bf ff f3 	bne,a   a00072b4 <_wrapup_reent+0x24>
a00072ec:	e2 04 a0 04 	ld  [ %l2 + 4 ], %l1
a00072f0:	c2 06 20 3c 	ld  [ %i0 + 0x3c ], %g1
a00072f4:	80 a0 60 00 	cmp  %g1, 0
a00072f8:	02 80 00 07 	be  a0007314 <_wrapup_reent+0x84>
a00072fc:	01 00 00 00 	nop 
a0007300:	9f c0 40 00 	call  %g1
a0007304:	90 10 00 18 	mov  %i0, %o0
a0007308:	30 80 00 03 	b,a   a0007314 <_wrapup_reent+0x84>
a000730c:	10 bf ff e5 	b  a00072a0 <_wrapup_reent+0x10>
a0007310:	f0 00 60 30 	ld  [ %g1 + 0x30 ], %i0
a0007314:	81 c7 e0 08 	ret 
a0007318:	81 e8 00 00 	restore 

a000731c <.umul>:
a000731c:	98 12 00 09 	or  %o0, %o1, %o4
a0007320:	81 82 00 00 	mov  %o0, %y
a0007324:	9a ab 2f ff 	andncc  %o4, 0xfff, %o5
a0007328:	02 80 00 25 	be  a00073bc <mul_shortway>
a000732c:	98 88 00 00 	andcc  %g0, %g0, %o4
a0007330:	99 23 00 09 	mulscc  %o4, %o1, %o4
a0007334:	99 23 00 09 	mulscc  %o4, %o1, %o4
a0007338:	99 23 00 09 	mulscc  %o4, %o1, %o4
a000733c:	99 23 00 09 	mulscc  %o4, %o1, %o4
a0007340:	99 23 00 09 	mulscc  %o4, %o1, %o4
a0007344:	99 23 00 09 	mulscc  %o4, %o1, %o4
a0007348:	99 23 00 09 	mulscc  %o4, %o1, %o4
a000734c:	99 23 00 09 	mulscc  %o4, %o1, %o4
a0007350:	99 23 00 09 	mulscc  %o4, %o1, %o4
a0007354:	99 23 00 09 	mulscc  %o4, %o1, %o4
a0007358:	99 23 00 09 	mulscc  %o4, %o1, %o4
a000735c:	99 23 00 09 	mulscc  %o4, %o1, %o4
a0007360:	99 23 00 09 	mulscc  %o4, %o1, %o4
a0007364:	99 23 00 09 	mulscc  %o4, %o1, %o4
a0007368:	99 23 00 09 	mulscc  %o4, %o1, %o4
a000736c:	99 23 00 09 	mulscc  %o4, %o1, %o4
a0007370:	99 23 00 09 	mulscc  %o4, %o1, %o4
a0007374:	99 23 00 09 	mulscc  %o4, %o1, %o4
a0007378:	99 23 00 09 	mulscc  %o4, %o1, %o4
a000737c:	99 23 00 09 	mulscc  %o4, %o1, %o4
a0007380:	99 23 00 09 	mulscc  %o4, %o1, %o4
a0007384:	99 23 00 09 	mulscc  %o4, %o1, %o4
a0007388:	99 23 00 09 	mulscc  %o4, %o1, %o4
a000738c:	99 23 00 09 	mulscc  %o4, %o1, %o4
a0007390:	99 23 00 09 	mulscc  %o4, %o1, %o4
a0007394:	99 23 00 09 	mulscc  %o4, %o1, %o4
a0007398:	99 23 00 09 	mulscc  %o4, %o1, %o4
a000739c:	99 23 00 09 	mulscc  %o4, %o1, %o4
a00073a0:	99 23 00 09 	mulscc  %o4, %o1, %o4
a00073a4:	99 23 00 09 	mulscc  %o4, %o1, %o4
a00073a8:	99 23 00 09 	mulscc  %o4, %o1, %o4
a00073ac:	99 23 00 09 	mulscc  %o4, %o1, %o4
a00073b0:	99 23 00 00 	mulscc  %o4, %g0, %o4
a00073b4:	81 c3 e0 08 	retl 
a00073b8:	91 40 00 00 	rd  %y, %o0

a00073bc <mul_shortway>:
a00073bc:	99 23 00 09 	mulscc  %o4, %o1, %o4
a00073c0:	99 23 00 09 	mulscc  %o4, %o1, %o4
a00073c4:	99 23 00 09 	mulscc  %o4, %o1, %o4
a00073c8:	99 23 00 09 	mulscc  %o4, %o1, %o4
a00073cc:	99 23 00 09 	mulscc  %o4, %o1, %o4
a00073d0:	99 23 00 09 	mulscc  %o4, %o1, %o4
a00073d4:	99 23 00 09 	mulscc  %o4, %o1, %o4
a00073d8:	99 23 00 09 	mulscc  %o4, %o1, %o4
a00073dc:	99 23 00 09 	mulscc  %o4, %o1, %o4
a00073e0:	99 23 00 09 	mulscc  %o4, %o1, %o4
a00073e4:	99 23 00 09 	mulscc  %o4, %o1, %o4
a00073e8:	99 23 00 09 	mulscc  %o4, %o1, %o4
a00073ec:	99 23 00 00 	mulscc  %o4, %g0, %o4
a00073f0:	9b 40 00 00 	rd  %y, %o5
a00073f4:	99 2b 20 0c 	sll  %o4, 0xc, %o4
a00073f8:	9b 33 60 14 	srl  %o5, 0x14, %o5
a00073fc:	81 c3 e0 08 	retl 
a0007400:	90 13 40 0c 	or  %o5, %o4, %o0

a0007404 <.udiv>:
a0007404:	10 80 00 0b 	b  a0007430 <ready_to_divide>
a0007408:	86 10 20 00 	clr  %g3

a000740c <.div>:
a000740c:	80 92 40 08 	orcc  %o1, %o0, %g0
a0007410:	16 80 00 08 	bge  a0007430 <ready_to_divide>
a0007414:	86 1a 40 08 	xor  %o1, %o0, %g3
a0007418:	80 92 40 00 	tst  %o1
a000741c:	16 80 00 04 	bge  a000742c <.div+0x20>
a0007420:	80 92 00 00 	tst  %o0
a0007424:	16 80 00 03 	bge  a0007430 <ready_to_divide>
a0007428:	92 20 00 09 	neg  %o1
a000742c:	90 20 00 08 	neg  %o0

a0007430 <ready_to_divide>:
a0007430:	9a 92 40 00 	orcc  %o1, %g0, %o5
a0007434:	12 80 00 05 	bne  a0007448 <ready_to_divide+0x18>
a0007438:	96 10 00 08 	mov  %o0, %o3
a000743c:	91 d0 20 02 	ta  2
a0007440:	81 c3 e0 08 	retl 
a0007444:	90 10 00 00 	mov  %g0, %o0
a0007448:	80 a2 c0 0d 	cmp  %o3, %o5
a000744c:	0a 80 00 95 	bcs  a00076a0 <got_result>
a0007450:	94 10 00 00 	mov  %g0, %o2
a0007454:	03 02 00 00 	sethi  %hi(0x8000000), %g1
a0007458:	80 a2 c0 01 	cmp  %o3, %g1
a000745c:	0a 80 00 28 	bcs  a00074fc <not_really_big>
a0007460:	98 10 00 00 	mov  %g0, %o4
a0007464:	80 a3 40 01 	cmp  %o5, %g1
a0007468:	1a 80 00 0d 	bcc  a000749c <not_too_big>
a000746c:	84 10 20 01 	mov  1, %g2
a0007470:	9b 2b 60 04 	sll  %o5, 4, %o5
a0007474:	10 bf ff fc 	b  a0007464 <ready_to_divide+0x34>
a0007478:	98 03 20 01 	inc  %o4
a000747c:	9a 83 40 0d 	addcc  %o5, %o5, %o5
a0007480:	1a 80 00 07 	bcc  a000749c <not_too_big>
a0007484:	84 00 a0 01 	inc  %g2
a0007488:	83 28 60 04 	sll  %g1, 4, %g1
a000748c:	9b 33 60 01 	srl  %o5, 1, %o5
a0007490:	9a 03 40 01 	add  %o5, %g1, %o5
a0007494:	10 80 00 07 	b  a00074b0 <do_single_div>
a0007498:	84 20 a0 01 	dec  %g2

a000749c <not_too_big>:
a000749c:	80 a3 40 0b 	cmp  %o5, %o3
a00074a0:	0a bf ff f7 	bcs  a000747c <ready_to_divide+0x4c>
a00074a4:	01 00 00 00 	nop 
a00074a8:	02 80 00 02 	be  a00074b0 <do_single_div>
a00074ac:	01 00 00 00 	nop 

a00074b0 <do_single_div>:
a00074b0:	84 a0 a0 01 	deccc  %g2
a00074b4:	06 80 00 76 	bl  a000768c <end_regular_divide>
a00074b8:	01 00 00 00 	nop 
a00074bc:	96 22 c0 0d 	sub  %o3, %o5, %o3
a00074c0:	94 10 20 01 	mov  1, %o2
a00074c4:	10 80 00 0a 	b  a00074ec <end_single_divloop>
a00074c8:	01 00 00 00 	nop 

a00074cc <single_divloop>:
a00074cc:	95 2a a0 01 	sll  %o2, 1, %o2
a00074d0:	06 80 00 05 	bl  a00074e4 <single_divloop+0x18>
a00074d4:	9b 33 60 01 	srl  %o5, 1, %o5
a00074d8:	96 22 c0 0d 	sub  %o3, %o5, %o3
a00074dc:	10 80 00 04 	b  a00074ec <end_single_divloop>
a00074e0:	94 02 a0 01 	inc  %o2
a00074e4:	96 02 c0 0d 	add  %o3, %o5, %o3
a00074e8:	94 22 a0 01 	dec  %o2

a00074ec <end_single_divloop>:
a00074ec:	84 a0 a0 01 	deccc  %g2
a00074f0:	16 bf ff f7 	bge  a00074cc <single_divloop>
a00074f4:	80 92 c0 00 	tst  %o3
a00074f8:	30 80 00 65 	b,a   a000768c <end_regular_divide>

a00074fc <not_really_big>:
a00074fc:	9b 2b 60 04 	sll  %o5, 4, %o5
a0007500:	80 a3 40 0b 	cmp  %o5, %o3
a0007504:	08 bf ff fe 	bleu  a00074fc <not_really_big>
a0007508:	98 83 20 01 	inccc  %o4
a000750c:	02 80 00 65 	be  a00076a0 <got_result>
a0007510:	98 23 20 01 	dec  %o4
a0007514:	80 92 c0 00 	tst  %o3

a0007518 <divloop>:
a0007518:	95 2a a0 04 	sll  %o2, 4, %o2
a000751c:	06 80 00 2f 	bl  a00075d8 <L1.16>
a0007520:	9b 33 60 01 	srl  %o5, 1, %o5
a0007524:	96 a2 c0 0d 	subcc  %o3, %o5, %o3
a0007528:	06 80 00 17 	bl  a0007584 <L2.17>
a000752c:	9b 33 60 01 	srl  %o5, 1, %o5
a0007530:	96 a2 c0 0d 	subcc  %o3, %o5, %o3
a0007534:	06 80 00 0b 	bl  a0007560 <L3.19>
a0007538:	9b 33 60 01 	srl  %o5, 1, %o5
a000753c:	96 a2 c0 0d 	subcc  %o3, %o5, %o3
a0007540:	06 80 00 05 	bl  a0007554 <L4.23>
a0007544:	9b 33 60 01 	srl  %o5, 1, %o5
a0007548:	96 a2 c0 0d 	subcc  %o3, %o5, %o3
a000754c:	10 80 00 50 	b  a000768c <end_regular_divide>
a0007550:	94 02 a0 0f 	add  %o2, 0xf, %o2

a0007554 <L4.23>:
a0007554:	96 82 c0 0d 	addcc  %o3, %o5, %o3
a0007558:	10 80 00 4d 	b  a000768c <end_regular_divide>
a000755c:	94 02 a0 0d 	add  %o2, 0xd, %o2

a0007560 <L3.19>:
a0007560:	96 82 c0 0d 	addcc  %o3, %o5, %o3
a0007564:	06 80 00 05 	bl  a0007578 <L4.21>
a0007568:	9b 33 60 01 	srl  %o5, 1, %o5
a000756c:	96 a2 c0 0d 	subcc  %o3, %o5, %o3
a0007570:	10 80 00 47 	b  a000768c <end_regular_divide>
a0007574:	94 02 a0 0b 	add  %o2, 0xb, %o2

a0007578 <L4.21>:
a0007578:	96 82 c0 0d 	addcc  %o3, %o5, %o3
a000757c:	10 80 00 44 	b  a000768c <end_regular_divide>
a0007580:	94 02 a0 09 	add  %o2, 9, %o2

a0007584 <L2.17>:
a0007584:	96 82 c0 0d 	addcc  %o3, %o5, %o3
a0007588:	06 80 00 0b 	bl  a00075b4 <L3.17>
a000758c:	9b 33 60 01 	srl  %o5, 1, %o5
a0007590:	96 a2 c0 0d 	subcc  %o3, %o5, %o3
a0007594:	06 80 00 05 	bl  a00075a8 <L4.19>
a0007598:	9b 33 60 01 	srl  %o5, 1, %o5
a000759c:	96 a2 c0 0d 	subcc  %o3, %o5, %o3
a00075a0:	10 80 00 3b 	b  a000768c <end_regular_divide>
a00075a4:	94 02 a0 07 	add  %o2, 7, %o2

a00075a8 <L4.19>:
a00075a8:	96 82 c0 0d 	addcc  %o3, %o5, %o3
a00075ac:	10 80 00 38 	b  a000768c <end_regular_divide>
a00075b0:	94 02 a0 05 	add  %o2, 5, %o2

a00075b4 <L3.17>:
a00075b4:	96 82 c0 0d 	addcc  %o3, %o5, %o3
a00075b8:	06 80 00 05 	bl  a00075cc <L4.17>
a00075bc:	9b 33 60 01 	srl  %o5, 1, %o5
a00075c0:	96 a2 c0 0d 	subcc  %o3, %o5, %o3
a00075c4:	10 80 00 32 	b  a000768c <end_regular_divide>
a00075c8:	94 02 a0 03 	add  %o2, 3, %o2

a00075cc <L4.17>:
a00075cc:	96 82 c0 0d 	addcc  %o3, %o5, %o3
a00075d0:	10 80 00 2f 	b  a000768c <end_regular_divide>
a00075d4:	94 02 a0 01 	inc  %o2

a00075d8 <L1.16>:
a00075d8:	96 82 c0 0d 	addcc  %o3, %o5, %o3
a00075dc:	06 80 00 17 	bl  a0007638 <L2.15>
a00075e0:	9b 33 60 01 	srl  %o5, 1, %o5
a00075e4:	96 a2 c0 0d 	subcc  %o3, %o5, %o3
a00075e8:	06 80 00 0b 	bl  a0007614 <L3.15>
a00075ec:	9b 33 60 01 	srl  %o5, 1, %o5
a00075f0:	96 a2 c0 0d 	subcc  %o3, %o5, %o3
a00075f4:	06 80 00 05 	bl  a0007608 <L4.15>
a00075f8:	9b 33 60 01 	srl  %o5, 1, %o5
a00075fc:	96 a2 c0 0d 	subcc  %o3, %o5, %o3
a0007600:	10 80 00 23 	b  a000768c <end_regular_divide>
a0007604:	94 02 bf ff 	add  %o2, -1, %o2

a0007608 <L4.15>:
a0007608:	96 82 c0 0d 	addcc  %o3, %o5, %o3
a000760c:	10 80 00 20 	b  a000768c <end_regular_divide>
a0007610:	94 02 bf fd 	add  %o2, -3, %o2

a0007614 <L3.15>:
a0007614:	96 82 c0 0d 	addcc  %o3, %o5, %o3
a0007618:	06 80 00 05 	bl  a000762c <L4.13>
a000761c:	9b 33 60 01 	srl  %o5, 1, %o5
a0007620:	96 a2 c0 0d 	subcc  %o3, %o5, %o3
a0007624:	10 80 00 1a 	b  a000768c <end_regular_divide>
a0007628:	94 02 bf fb 	add  %o2, -5, %o2

a000762c <L4.13>:
a000762c:	96 82 c0 0d 	addcc  %o3, %o5, %o3
a0007630:	10 80 00 17 	b  a000768c <end_regular_divide>
a0007634:	94 02 bf f9 	add  %o2, -7, %o2

a0007638 <L2.15>:
a0007638:	96 82 c0 0d 	addcc  %o3, %o5, %o3
a000763c:	06 80 00 0b 	bl  a0007668 <L3.13>
a0007640:	9b 33 60 01 	srl  %o5, 1, %o5
a0007644:	96 a2 c0 0d 	subcc  %o3, %o5, %o3
a0007648:	06 80 00 05 	bl  a000765c <L4.11>
a000764c:	9b 33 60 01 	srl  %o5, 1, %o5
a0007650:	96 a2 c0 0d 	subcc  %o3, %o5, %o3
a0007654:	10 80 00 0e 	b  a000768c <end_regular_divide>
a0007658:	94 02 bf f7 	add  %o2, -9, %o2

a000765c <L4.11>:
a000765c:	96 82 c0 0d 	addcc  %o3, %o5, %o3
a0007660:	10 80 00 0b 	b  a000768c <end_regular_divide>
a0007664:	94 02 bf f5 	add  %o2, -11, %o2

a0007668 <L3.13>:
a0007668:	96 82 c0 0d 	addcc  %o3, %o5, %o3
a000766c:	06 80 00 05 	bl  a0007680 <L4.9>
a0007670:	9b 33 60 01 	srl  %o5, 1, %o5
a0007674:	96 a2 c0 0d 	subcc  %o3, %o5, %o3
a0007678:	10 80 00 05 	b  a000768c <end_regular_divide>
a000767c:	94 02 bf f3 	add  %o2, -13, %o2

a0007680 <L4.9>:
a0007680:	96 82 c0 0d 	addcc  %o3, %o5, %o3
a0007684:	10 80 00 02 	b  a000768c <end_regular_divide>
a0007688:	94 02 bf f1 	add  %o2, -15, %o2

a000768c <end_regular_divide>:
a000768c:	98 a3 20 01 	deccc  %o4
a0007690:	16 bf ff a2 	bge  a0007518 <divloop>
a0007694:	80 92 c0 00 	tst  %o3
a0007698:	26 80 00 02 	bl,a   a00076a0 <got_result>
a000769c:	94 22 a0 01 	dec  %o2

a00076a0 <got_result>:
a00076a0:	80 90 c0 00 	tst  %g3
a00076a4:	26 80 00 02 	bl,a   a00076ac <got_result+0xc>
a00076a8:	94 20 00 0a 	neg  %o2
a00076ac:	81 c3 e0 08 	retl 
a00076b0:	90 10 00 0a 	mov  %o2, %o0

a00076b4 <.urem>:
a00076b4:	10 80 00 0b 	b  a00076e0 <divide>
a00076b8:	86 10 20 00 	clr  %g3

a00076bc <.rem>:
a00076bc:	80 92 40 08 	orcc  %o1, %o0, %g0
a00076c0:	16 80 00 08 	bge  a00076e0 <divide>
a00076c4:	86 10 00 08 	mov  %o0, %g3
a00076c8:	80 92 40 00 	tst  %o1
a00076cc:	16 80 00 04 	bge  a00076dc <.rem+0x20>
a00076d0:	80 92 00 00 	tst  %o0
a00076d4:	16 80 00 03 	bge  a00076e0 <divide>
a00076d8:	92 20 00 09 	neg  %o1
a00076dc:	90 20 00 08 	neg  %o0

a00076e0 <divide>:
a00076e0:	9a 92 40 00 	orcc  %o1, %g0, %o5
a00076e4:	12 80 00 05 	bne  a00076f8 <divide+0x18>
a00076e8:	96 10 00 08 	mov  %o0, %o3
a00076ec:	91 d0 20 02 	ta  2
a00076f0:	81 c3 e0 08 	retl 
a00076f4:	90 10 00 00 	mov  %g0, %o0
a00076f8:	80 a2 c0 0d 	cmp  %o3, %o5
a00076fc:	0a 80 00 95 	bcs  a0007950 <got_result>
a0007700:	94 10 00 00 	mov  %g0, %o2
a0007704:	03 02 00 00 	sethi  %hi(0x8000000), %g1
a0007708:	80 a2 c0 01 	cmp  %o3, %g1
a000770c:	0a 80 00 28 	bcs  a00077ac <not_really_big>
a0007710:	98 10 00 00 	mov  %g0, %o4
a0007714:	80 a3 40 01 	cmp  %o5, %g1
a0007718:	1a 80 00 0d 	bcc  a000774c <not_too_big>
a000771c:	84 10 20 01 	mov  1, %g2
a0007720:	9b 2b 60 04 	sll  %o5, 4, %o5
a0007724:	10 bf ff fc 	b  a0007714 <divide+0x34>
a0007728:	98 03 20 01 	inc  %o4
a000772c:	9a 83 40 0d 	addcc  %o5, %o5, %o5
a0007730:	1a 80 00 07 	bcc  a000774c <not_too_big>
a0007734:	84 00 a0 01 	inc  %g2
a0007738:	83 28 60 04 	sll  %g1, 4, %g1
a000773c:	9b 33 60 01 	srl  %o5, 1, %o5
a0007740:	9a 03 40 01 	add  %o5, %g1, %o5
a0007744:	10 80 00 07 	b  a0007760 <do_single_div>
a0007748:	84 20 a0 01 	dec  %g2

a000774c <not_too_big>:
a000774c:	80 a3 40 0b 	cmp  %o5, %o3
a0007750:	0a bf ff f7 	bcs  a000772c <divide+0x4c>
a0007754:	01 00 00 00 	nop 
a0007758:	02 80 00 02 	be  a0007760 <do_single_div>
a000775c:	01 00 00 00 	nop 

a0007760 <do_single_div>:
a0007760:	84 a0 a0 01 	deccc  %g2
a0007764:	06 80 00 76 	bl  a000793c <end_regular_divide>
a0007768:	01 00 00 00 	nop 
a000776c:	96 22 c0 0d 	sub  %o3, %o5, %o3
a0007770:	94 10 20 01 	mov  1, %o2
a0007774:	10 80 00 0a 	b  a000779c <end_single_divloop>
a0007778:	01 00 00 00 	nop 

a000777c <single_divloop>:
a000777c:	95 2a a0 01 	sll  %o2, 1, %o2
a0007780:	06 80 00 05 	bl  a0007794 <single_divloop+0x18>
a0007784:	9b 33 60 01 	srl  %o5, 1, %o5
a0007788:	96 22 c0 0d 	sub  %o3, %o5, %o3
a000778c:	10 80 00 04 	b  a000779c <end_single_divloop>
a0007790:	94 02 a0 01 	inc  %o2
a0007794:	96 02 c0 0d 	add  %o3, %o5, %o3
a0007798:	94 22 a0 01 	dec  %o2

a000779c <end_single_divloop>:
a000779c:	84 a0 a0 01 	deccc  %g2
a00077a0:	16 bf ff f7 	bge  a000777c <single_divloop>
a00077a4:	80 92 c0 00 	tst  %o3
a00077a8:	30 80 00 65 	b,a   a000793c <end_regular_divide>

a00077ac <not_really_big>:
a00077ac:	9b 2b 60 04 	sll  %o5, 4, %o5
a00077b0:	80 a3 40 0b 	cmp  %o5, %o3
a00077b4:	08 bf ff fe 	bleu  a00077ac <not_really_big>
a00077b8:	98 83 20 01 	inccc  %o4
a00077bc:	02 80 00 65 	be  a0007950 <got_result>
a00077c0:	98 23 20 01 	dec  %o4
a00077c4:	80 92 c0 00 	tst  %o3

a00077c8 <divloop>:
a00077c8:	95 2a a0 04 	sll  %o2, 4, %o2
a00077cc:	06 80 00 2f 	bl  a0007888 <L1.16>
a00077d0:	9b 33 60 01 	srl  %o5, 1, %o5
a00077d4:	96 a2 c0 0d 	subcc  %o3, %o5, %o3
a00077d8:	06 80 00 17 	bl  a0007834 <L2.17>
a00077dc:	9b 33 60 01 	srl  %o5, 1, %o5
a00077e0:	96 a2 c0 0d 	subcc  %o3, %o5, %o3
a00077e4:	06 80 00 0b 	bl  a0007810 <L3.19>
a00077e8:	9b 33 60 01 	srl  %o5, 1, %o5
a00077ec:	96 a2 c0 0d 	subcc  %o3, %o5, %o3
a00077f0:	06 80 00 05 	bl  a0007804 <L4.23>
a00077f4:	9b 33 60 01 	srl  %o5, 1, %o5
a00077f8:	96 a2 c0 0d 	subcc  %o3, %o5, %o3
a00077fc:	10 80 00 50 	b  a000793c <end_regular_divide>
a0007800:	94 02 a0 0f 	add  %o2, 0xf, %o2

a0007804 <L4.23>:
a0007804:	96 82 c0 0d 	addcc  %o3, %o5, %o3
a0007808:	10 80 00 4d 	b  a000793c <end_regular_divide>
a000780c:	94 02 a0 0d 	add  %o2, 0xd, %o2

a0007810 <L3.19>:
a0007810:	96 82 c0 0d 	addcc  %o3, %o5, %o3
a0007814:	06 80 00 05 	bl  a0007828 <L4.21>
a0007818:	9b 33 60 01 	srl  %o5, 1, %o5
a000781c:	96 a2 c0 0d 	subcc  %o3, %o5, %o3
a0007820:	10 80 00 47 	b  a000793c <end_regular_divide>
a0007824:	94 02 a0 0b 	add  %o2, 0xb, %o2

a0007828 <L4.21>:
a0007828:	96 82 c0 0d 	addcc  %o3, %o5, %o3
a000782c:	10 80 00 44 	b  a000793c <end_regular_divide>
a0007830:	94 02 a0 09 	add  %o2, 9, %o2

a0007834 <L2.17>:
a0007834:	96 82 c0 0d 	addcc  %o3, %o5, %o3
a0007838:	06 80 00 0b 	bl  a0007864 <L3.17>
a000783c:	9b 33 60 01 	srl  %o5, 1, %o5
a0007840:	96 a2 c0 0d 	subcc  %o3, %o5, %o3
a0007844:	06 80 00 05 	bl  a0007858 <L4.19>
a0007848:	9b 33 60 01 	srl  %o5, 1, %o5
a000784c:	96 a2 c0 0d 	subcc  %o3, %o5, %o3
a0007850:	10 80 00 3b 	b  a000793c <end_regular_divide>
a0007854:	94 02 a0 07 	add  %o2, 7, %o2

a0007858 <L4.19>:
a0007858:	96 82 c0 0d 	addcc  %o3, %o5, %o3
a000785c:	10 80 00 38 	b  a000793c <end_regular_divide>
a0007860:	94 02 a0 05 	add  %o2, 5, %o2

a0007864 <L3.17>:
a0007864:	96 82 c0 0d 	addcc  %o3, %o5, %o3
a0007868:	06 80 00 05 	bl  a000787c <L4.17>
a000786c:	9b 33 60 01 	srl  %o5, 1, %o5
a0007870:	96 a2 c0 0d 	subcc  %o3, %o5, %o3
a0007874:	10 80 00 32 	b  a000793c <end_regular_divide>
a0007878:	94 02 a0 03 	add  %o2, 3, %o2

a000787c <L4.17>:
a000787c:	96 82 c0 0d 	addcc  %o3, %o5, %o3
a0007880:	10 80 00 2f 	b  a000793c <end_regular_divide>
a0007884:	94 02 a0 01 	inc  %o2

a0007888 <L1.16>:
a0007888:	96 82 c0 0d 	addcc  %o3, %o5, %o3
a000788c:	06 80 00 17 	bl  a00078e8 <L2.15>
a0007890:	9b 33 60 01 	srl  %o5, 1, %o5
a0007894:	96 a2 c0 0d 	subcc  %o3, %o5, %o3
a0007898:	06 80 00 0b 	bl  a00078c4 <L3.15>
a000789c:	9b 33 60 01 	srl  %o5, 1, %o5
a00078a0:	96 a2 c0 0d 	subcc  %o3, %o5, %o3
a00078a4:	06 80 00 05 	bl  a00078b8 <L4.15>
a00078a8:	9b 33 60 01 	srl  %o5, 1, %o5
a00078ac:	96 a2 c0 0d 	subcc  %o3, %o5, %o3
a00078b0:	10 80 00 23 	b  a000793c <end_regular_divide>
a00078b4:	94 02 bf ff 	add  %o2, -1, %o2

a00078b8 <L4.15>:
a00078b8:	96 82 c0 0d 	addcc  %o3, %o5, %o3
a00078bc:	10 80 00 20 	b  a000793c <end_regular_divide>
a00078c0:	94 02 bf fd 	add  %o2, -3, %o2

a00078c4 <L3.15>:
a00078c4:	96 82 c0 0d 	addcc  %o3, %o5, %o3
a00078c8:	06 80 00 05 	bl  a00078dc <L4.13>
a00078cc:	9b 33 60 01 	srl  %o5, 1, %o5
a00078d0:	96 a2 c0 0d 	subcc  %o3, %o5, %o3
a00078d4:	10 80 00 1a 	b  a000793c <end_regular_divide>
a00078d8:	94 02 bf fb 	add  %o2, -5, %o2

a00078dc <L4.13>:
a00078dc:	96 82 c0 0d 	addcc  %o3, %o5, %o3
a00078e0:	10 80 00 17 	b  a000793c <end_regular_divide>
a00078e4:	94 02 bf f9 	add  %o2, -7, %o2

a00078e8 <L2.15>:
a00078e8:	96 82 c0 0d 	addcc  %o3, %o5, %o3
a00078ec:	06 80 00 0b 	bl  a0007918 <L3.13>
a00078f0:	9b 33 60 01 	srl  %o5, 1, %o5
a00078f4:	96 a2 c0 0d 	subcc  %o3, %o5, %o3
a00078f8:	06 80 00 05 	bl  a000790c <L4.11>
a00078fc:	9b 33 60 01 	srl  %o5, 1, %o5
a0007900:	96 a2 c0 0d 	subcc  %o3, %o5, %o3
a0007904:	10 80 00 0e 	b  a000793c <end_regular_divide>
a0007908:	94 02 bf f7 	add  %o2, -9, %o2

a000790c <L4.11>:
a000790c:	96 82 c0 0d 	addcc  %o3, %o5, %o3
a0007910:	10 80 00 0b 	b  a000793c <end_regular_divide>
a0007914:	94 02 bf f5 	add  %o2, -11, %o2

a0007918 <L3.13>:
a0007918:	96 82 c0 0d 	addcc  %o3, %o5, %o3
a000791c:	06 80 00 05 	bl  a0007930 <L4.9>
a0007920:	9b 33 60 01 	srl  %o5, 1, %o5
a0007924:	96 a2 c0 0d 	subcc  %o3, %o5, %o3
a0007928:	10 80 00 05 	b  a000793c <end_regular_divide>
a000792c:	94 02 bf f3 	add  %o2, -13, %o2

a0007930 <L4.9>:
a0007930:	96 82 c0 0d 	addcc  %o3, %o5, %o3
a0007934:	10 80 00 02 	b  a000793c <end_regular_divide>
a0007938:	94 02 bf f1 	add  %o2, -15, %o2

a000793c <end_regular_divide>:
a000793c:	98 a3 20 01 	deccc  %o4
a0007940:	16 bf ff a2 	bge  a00077c8 <divloop>
a0007944:	80 92 c0 00 	tst  %o3
a0007948:	26 80 00 02 	bl,a   a0007950 <got_result>
a000794c:	96 02 c0 09 	add  %o3, %o1, %o3

a0007950 <got_result>:
a0007950:	80 90 c0 00 	tst  %g3
a0007954:	26 80 00 02 	bl,a   a000795c <got_result+0xc>
a0007958:	96 20 00 0b 	neg  %o3
a000795c:	81 c3 e0 08 	retl 
a0007960:	90 10 00 0b 	mov  %o3, %o0

a0007964 <close>:
a0007964:	81 c3 e0 08 	retl 
a0007968:	90 10 20 00 	clr  %o0

a000796c <fstat>:
a000796c:	03 00 00 08 	sethi  %hi(0x2000), %g1
a0007970:	c2 32 60 08 	sth  %g1, [ %o1 + 8 ]
a0007974:	c0 22 60 30 	clr  [ %o1 + 0x30 ]
a0007978:	81 c3 e0 08 	retl 
a000797c:	90 10 20 00 	clr  %o0

a0007980 <getpid>:
a0007980:	81 c3 e0 08 	retl 
a0007984:	90 10 20 01 	mov  1, %o0

a0007988 <isatty>:
a0007988:	81 c3 e0 08 	retl 
a000798c:	90 10 20 01 	mov  1, %o0

a0007990 <kill>:
a0007990:	9d e3 bf 98 	save  %sp, -104, %sp
a0007994:	80 a6 20 01 	cmp  %i0, 1
a0007998:	12 80 00 04 	bne  a00079a8 <kill+0x18>
a000799c:	90 10 00 19 	mov  %i1, %o0
a00079a0:	40 00 02 2b 	call  a000824c <_exit>
a00079a4:	01 00 00 00 	nop 
a00079a8:	81 c7 e0 08 	ret 
a00079ac:	91 e8 20 00 	restore  %g0, 0, %o0

a00079b0 <lseek>:
a00079b0:	9d e3 bf 98 	save  %sp, -104, %sp
a00079b4:	40 00 04 b2 	call  a0008c7c <__errno>
a00079b8:	b0 10 3f ff 	mov  -1, %i0
a00079bc:	82 10 20 1d 	mov  0x1d, %g1
a00079c0:	c2 22 00 00 	st  %g1, [ %o0 ]
a00079c4:	81 c7 e0 08 	ret 
a00079c8:	81 e8 00 00 	restore 

a00079cc <read>:
a00079cc:	9d e3 bf 98 	save  %sp, -104, %sp
a00079d0:	b0 10 20 00 	clr  %i0
a00079d4:	80 a6 00 1a 	cmp  %i0, %i2
a00079d8:	16 80 00 15 	bge  a0007a2c <read+0x60>
a00079dc:	01 00 00 00 	nop 
a00079e0:	30 80 00 05 	b,a   a00079f4 <read+0x28>
a00079e4:	b0 06 20 01 	inc  %i0
a00079e8:	80 a6 00 1a 	cmp  %i0, %i2
a00079ec:	16 80 00 10 	bge  a0007a2c <read+0x60>
a00079f0:	01 00 00 00 	nop 
a00079f4:	40 00 00 4c 	call  a0007b24 <inbyte>
a00079f8:	01 00 00 00 	nop 
a00079fc:	83 2a 20 18 	sll  %o0, 0x18, %g1
a0007a00:	83 38 60 18 	sra  %g1, 0x18, %g1
a0007a04:	9a 18 60 0a 	xor  %g1, 0xa, %o5
a0007a08:	80 a0 00 0d 	cmp  %g0, %o5
a0007a0c:	98 60 3f ff 	subx  %g0, -1, %o4
a0007a10:	82 18 60 0d 	xor  %g1, 0xd, %g1
a0007a14:	80 a0 00 01 	cmp  %g0, %g1
a0007a18:	9a 60 3f ff 	subx  %g0, -1, %o5
a0007a1c:	80 93 00 0d 	orcc  %o4, %o5, %g0
a0007a20:	02 bf ff f1 	be  a00079e4 <read+0x18>
a0007a24:	d0 2e 40 18 	stb  %o0, [ %i1 + %i0 ]
a0007a28:	b0 06 20 01 	inc  %i0
a0007a2c:	81 c7 e0 08 	ret 
a0007a30:	81 e8 00 00 	restore 

a0007a34 <sbrk>:
a0007a34:	19 28 00 2b 	sethi  %hi(0xa000ac00), %o4
a0007a38:	da 03 22 54 	ld  [ %o4 + 0x254 ], %o5	! a000ae54 <heap_ptr>
a0007a3c:	80 a3 60 00 	cmp  %o5, 0
a0007a40:	12 80 00 06 	bne  a0007a58 <sbrk+0x24>
a0007a44:	82 03 40 08 	add  %o5, %o0, %g1
a0007a48:	03 28 00 2c 	sethi  %hi(0xa000b000), %g1
a0007a4c:	9a 10 62 08 	or  %g1, 0x208, %o5	! a000b208 <__end>
a0007a50:	da 23 22 54 	st  %o5, [ %o4 + 0x254 ]
a0007a54:	82 03 40 08 	add  %o5, %o0, %g1
a0007a58:	c2 23 22 54 	st  %g1, [ %o4 + 0x254 ]
a0007a5c:	81 c3 e0 08 	retl 
a0007a60:	90 10 00 0d 	mov  %o5, %o0

a0007a64 <write>:
a0007a64:	9d e3 bf 98 	save  %sp, -104, %sp
a0007a68:	a0 10 20 00 	clr  %l0
a0007a6c:	80 a4 00 1a 	cmp  %l0, %i2
a0007a70:	06 80 00 0a 	bl  a0007a98 <write+0x34>
a0007a74:	b0 10 00 1a 	mov  %i2, %i0
a0007a78:	30 80 00 17 	b,a   a0007ad4 <write+0x70>
a0007a7c:	91 28 60 18 	sll  %g1, 0x18, %o0
a0007a80:	40 00 00 17 	call  a0007adc <outbyte>
a0007a84:	91 3a 20 18 	sra  %o0, 0x18, %o0
a0007a88:	a0 04 20 01 	inc  %l0
a0007a8c:	80 a4 00 18 	cmp  %l0, %i0
a0007a90:	16 80 00 11 	bge  a0007ad4 <write+0x70>
a0007a94:	01 00 00 00 	nop 
a0007a98:	c2 4e 40 10 	ldsb  [ %i1 + %l0 ], %g1
a0007a9c:	80 a0 60 0a 	cmp  %g1, 0xa
a0007aa0:	90 10 20 0d 	mov  0xd, %o0
a0007aa4:	12 bf ff f6 	bne  a0007a7c <write+0x18>
a0007aa8:	c2 0e 40 10 	ldub  [ %i1 + %l0 ], %g1
a0007aac:	40 00 00 0c 	call  a0007adc <outbyte>
a0007ab0:	01 00 00 00 	nop 
a0007ab4:	c2 0e 40 10 	ldub  [ %i1 + %l0 ], %g1
a0007ab8:	91 28 60 18 	sll  %g1, 0x18, %o0
a0007abc:	40 00 00 08 	call  a0007adc <outbyte>
a0007ac0:	91 3a 20 18 	sra  %o0, 0x18, %o0
a0007ac4:	a0 04 20 01 	inc  %l0
a0007ac8:	80 a4 00 18 	cmp  %l0, %i0
a0007acc:	26 bf ff f4 	bl,a   a0007a9c <write+0x38>
a0007ad0:	c2 4e 40 10 	ldsb  [ %i1 + %l0 ], %g1
a0007ad4:	81 c7 e0 08 	ret 
a0007ad8:	81 e8 00 00 	restore 

a0007adc <outbyte>:
a0007adc:	17 28 00 2a 	sethi  %hi(0xa000a800), %o3
a0007ae0:	d8 02 e1 94 	ld  [ %o3 + 0x194 ], %o4	! a000a994 <console>
a0007ae4:	9a 10 00 0c 	mov  %o4, %o5
a0007ae8:	c2 03 60 04 	ld  [ %o5 + 4 ], %g1
a0007aec:	80 88 60 04 	btst  4, %g1
a0007af0:	02 bf ff fe 	be  a0007ae8 <outbyte+0xc>
a0007af4:	82 0a 20 ff 	and  %o0, 0xff, %g1
a0007af8:	c2 23 00 00 	st  %g1, [ %o4 ]
a0007afc:	80 a2 20 0a 	cmp  %o0, 0xa
a0007b00:	12 80 00 07 	bne  a0007b1c <outbyte+0x40>
a0007b04:	da 02 e1 94 	ld  [ %o3 + 0x194 ], %o5
a0007b08:	c2 03 60 04 	ld  [ %o5 + 4 ], %g1
a0007b0c:	80 88 60 04 	btst  4, %g1
a0007b10:	02 bf ff fe 	be  a0007b08 <outbyte+0x2c>
a0007b14:	82 10 20 0d 	mov  0xd, %g1
a0007b18:	c2 23 40 00 	st  %g1, [ %o5 ]
a0007b1c:	81 c3 e0 08 	retl 
a0007b20:	01 00 00 00 	nop 

a0007b24 <inbyte>:
a0007b24:	03 28 00 2a 	sethi  %hi(0xa000a800), %g1
a0007b28:	c2 00 61 94 	ld  [ %g1 + 0x194 ], %g1	! a000a994 <console>
a0007b2c:	80 a0 60 00 	cmp  %g1, 0
a0007b30:	02 80 00 08 	be  a0007b50 <inbyte+0x2c>
a0007b34:	90 10 20 00 	clr  %o0
a0007b38:	90 10 00 01 	mov  %g1, %o0
a0007b3c:	c2 02 20 04 	ld  [ %o0 + 4 ], %g1
a0007b40:	80 88 60 01 	btst  1, %g1
a0007b44:	02 bf ff fe 	be  a0007b3c <inbyte+0x18>
a0007b48:	01 00 00 00 	nop 
a0007b4c:	d0 02 00 00 	ld  [ %o0 ], %o0
a0007b50:	81 c3 e0 08 	retl 
a0007b54:	01 00 00 00 	nop 

a0007b58 <__window_overflow_rettseq>:
a0007b58:	a7 50 00 00 	rd  %wim, %l3
a0007b5c:	ae 10 00 01 	mov  %g1, %l7
a0007b60:	83 34 e0 01 	srl  %l3, 1, %g1

a0007b64 <__window_overflow_rettseq_ret>:
a0007b64:	29 28 00 2a 	sethi  %hi(0xa000a800), %l4
a0007b68:	e8 05 21 9c 	ld  [ %l4 + 0x19c ], %l4	! a000a99c <_nwindows_min1>
a0007b6c:	a9 2c c0 14 	sll  %l3, %l4, %l4
a0007b70:	82 15 00 01 	or  %l4, %g1, %g1
a0007b74:	81 e0 00 00 	save 
a0007b78:	81 90 40 00 	mov  %g1, %wim
a0007b7c:	01 00 00 00 	nop 
a0007b80:	01 00 00 00 	nop 
a0007b84:	01 00 00 00 	nop 
a0007b88:	e0 3b a0 00 	std  %l0, [ %sp ]
a0007b8c:	e4 3b a0 08 	std  %l2, [ %sp + 8 ]
a0007b90:	e8 3b a0 10 	std  %l4, [ %sp + 0x10 ]
a0007b94:	ec 3b a0 18 	std  %l6, [ %sp + 0x18 ]
a0007b98:	f0 3b a0 20 	std  %i0, [ %sp + 0x20 ]
a0007b9c:	f4 3b a0 28 	std  %i2, [ %sp + 0x28 ]
a0007ba0:	f8 3b a0 30 	std  %i4, [ %sp + 0x30 ]
a0007ba4:	fc 3b a0 38 	std  %fp, [ %sp + 0x38 ]
a0007ba8:	81 e8 00 00 	restore 
a0007bac:	82 10 00 17 	mov  %l7, %g1
a0007bb0:	81 c4 40 00 	jmp  %l1
a0007bb4:	81 cc 80 00 	rett  %l2
a0007bb8:	01 00 00 00 	nop 

a0007bbc <__window_overflow_slow1>:
a0007bbc:	01 00 00 00 	nop 
a0007bc0:	01 00 00 00 	nop 

a0007bc4 <_window_underflow>:
a0007bc4:	a7 50 00 00 	rd  %wim, %l3
a0007bc8:	a9 2c e0 01 	sll  %l3, 1, %l4
a0007bcc:	2b 28 00 2a 	sethi  %hi(0xa000a800), %l5
a0007bd0:	ea 05 61 9c 	ld  [ %l5 + 0x19c ], %l5	! a000a99c <_nwindows_min1>
a0007bd4:	ab 34 c0 15 	srl  %l3, %l5, %l5
a0007bd8:	aa 15 40 14 	or  %l5, %l4, %l5
a0007bdc:	81 95 40 00 	mov  %l5, %wim
a0007be0:	01 00 00 00 	nop 
a0007be4:	01 00 00 00 	nop 
a0007be8:	01 00 00 00 	nop 
a0007bec:	81 e8 00 00 	restore 
a0007bf0:	81 e8 00 00 	restore 
a0007bf4:	e0 1b a0 00 	ldd  [ %sp ], %l0
a0007bf8:	e4 1b a0 08 	ldd  [ %sp + 8 ], %l2
a0007bfc:	e8 1b a0 10 	ldd  [ %sp + 0x10 ], %l4
a0007c00:	ec 1b a0 18 	ldd  [ %sp + 0x18 ], %l6
a0007c04:	f0 1b a0 20 	ldd  [ %sp + 0x20 ], %i0
a0007c08:	f4 1b a0 28 	ldd  [ %sp + 0x28 ], %i2
a0007c0c:	f8 1b a0 30 	ldd  [ %sp + 0x30 ], %i4
a0007c10:	fc 1b a0 38 	ldd  [ %sp + 0x38 ], %fp
a0007c14:	81 e0 00 00 	save 
a0007c18:	81 e0 00 00 	save 
a0007c1c:	81 c4 40 00 	jmp  %l1
a0007c20:	81 cc 80 00 	rett  %l2

a0007c24 <_flush_windows_svt>:
a0007c24:	a7 50 00 00 	rd  %wim, %l3

a0007c28 <_flush_windows>:
a0007c28:	29 28 00 22 	sethi  %hi(0xa0008800), %l4
a0007c2c:	ad c5 20 9c 	jmpl  %l4 + 0x9c, %l6	! a000889c <leonbare_trapsetup>
a0007c30:	01 00 00 00 	nop 
a0007c34:	27 28 00 2a 	sethi  %hi(0xa000a800), %l3
a0007c38:	a6 14 e1 68 	or  %l3, 0x168, %l3	! a000a968 <_lb_issideflush>
a0007c3c:	e0 24 c0 00 	st  %l0, [ %l3 ]
a0007c40:	81 8c 20 20 	wr  %l0, 0x20, %psr
a0007c44:	01 00 00 00 	nop 
a0007c48:	01 00 00 00 	nop 
a0007c4c:	01 00 00 00 	nop 
a0007c50:	9d e3 bf a0 	save  %sp, -96, %sp
a0007c54:	9d e3 bf a0 	save  %sp, -96, %sp
a0007c58:	9d e3 bf a0 	save  %sp, -96, %sp
a0007c5c:	9d e3 bf a0 	save  %sp, -96, %sp
a0007c60:	9d e3 bf a0 	save  %sp, -96, %sp
a0007c64:	9d e3 bf a0 	save  %sp, -96, %sp
a0007c68:	9d e3 bf a0 	save  %sp, -96, %sp
a0007c6c:	81 e8 00 00 	restore 
a0007c70:	81 e8 00 00 	restore 
a0007c74:	81 e8 00 00 	restore 
a0007c78:	81 e8 00 00 	restore 
a0007c7c:	81 e8 00 00 	restore 
a0007c80:	81 e8 00 00 	restore 
a0007c84:	81 e8 00 00 	restore 
a0007c88:	27 28 00 2a 	sethi  %hi(0xa000a800), %l3
a0007c8c:	a6 14 e1 68 	or  %l3, 0x168, %l3	! a000a968 <_lb_issideflush>
a0007c90:	c0 24 c0 00 	clr  [ %l3 ]
a0007c94:	e2 03 a0 68 	ld  [ %sp + 0x68 ], %l1
a0007c98:	a4 04 60 04 	add  %l1, 4, %l2
a0007c9c:	e2 23 a0 64 	st  %l1, [ %sp + 0x64 ]
a0007ca0:	e4 23 a0 68 	st  %l2, [ %sp + 0x68 ]
a0007ca4:	10 80 03 24 	b  a0008934 <leonbare_trapreturn>
a0007ca8:	ac 10 00 00 	mov  %g0, %l6

a0007cac <_irqcall_flush_windows>:
a0007cac:	29 28 00 2a 	sethi  %hi(0xa000a800), %l4
a0007cb0:	a8 15 21 4c 	or  %l4, 0x14c, %l4	! a000a94c <_lb_spillglobals>
a0007cb4:	c2 25 20 00 	st  %g1, [ %l4 ]
a0007cb8:	c8 25 20 04 	st  %g4, [ %l4 + 4 ]
a0007cbc:	e0 25 20 10 	st  %l0, [ %l4 + 0x10 ]
a0007cc0:	e2 25 20 14 	st  %l1, [ %l4 + 0x14 ]
a0007cc4:	e4 25 20 18 	st  %l2, [ %l4 + 0x18 ]
a0007cc8:	e8 25 20 1c 	st  %l4, [ %l4 + 0x1c ]
a0007ccc:	81 e8 00 00 	restore 
a0007cd0:	83 48 00 00 	rd  %psr, %g1
a0007cd4:	82 10 6f 00 	or  %g1, 0xf00, %g1
a0007cd8:	81 88 60 20 	wr  %g1, 0x20, %psr
a0007cdc:	01 00 00 00 	nop 
a0007ce0:	01 00 00 00 	nop 
a0007ce4:	01 00 00 00 	nop 
a0007ce8:	09 28 00 2a 	sethi  %hi(0xa000a800), %g4
a0007cec:	c8 01 21 9c 	ld  [ %g4 + 0x19c ], %g4	! a000a99c <_nwindows_min1>
a0007cf0:	81 e0 00 00 	save 
a0007cf4:	88 21 20 01 	dec  %g4
a0007cf8:	80 a9 20 ff 	andncc  %g4, 0xff, %g0
a0007cfc:	02 80 00 03 	be  a0007d08 <.lab1>
a0007d00:	01 00 00 00 	nop 
a0007d04:	01 00 00 00 	nop 

a0007d08 <.lab1>:
a0007d08:	80 a1 00 00 	cmp  %g4, %g0
a0007d0c:	12 bf ff f9 	bne  a0007cf0 <_irqcall_flush_windows+0x44>
a0007d10:	01 00 00 00 	nop 
a0007d14:	09 28 00 2a 	sethi  %hi(0xa000a800), %g4
a0007d18:	c8 01 21 9c 	ld  [ %g4 + 0x19c ], %g4	! a000a99c <_nwindows_min1>
a0007d1c:	81 e8 00 00 	restore 
a0007d20:	80 a9 20 ff 	andncc  %g4, 0xff, %g0
a0007d24:	02 80 00 03 	be  a0007d30 <.lab2>
a0007d28:	01 00 00 00 	nop 
a0007d2c:	01 00 00 00 	nop 

a0007d30 <.lab2>:
a0007d30:	88 21 20 01 	dec  %g4
a0007d34:	80 a1 00 00 	cmp  %g4, %g0
a0007d38:	12 bf ff f9 	bne  a0007d1c <.lab1+0x14>
a0007d3c:	01 00 00 00 	nop 
a0007d40:	81 e0 00 00 	save 
a0007d44:	29 28 00 2a 	sethi  %hi(0xa000a800), %l4
a0007d48:	a8 15 21 4c 	or  %l4, 0x14c, %l4	! a000a94c <_lb_spillglobals>
a0007d4c:	c8 05 20 04 	ld  [ %l4 + 4 ], %g4
a0007d50:	c2 05 20 00 	ld  [ %l4 ], %g1
a0007d54:	e0 05 20 10 	ld  [ %l4 + 0x10 ], %l0
a0007d58:	e2 05 20 14 	ld  [ %l4 + 0x14 ], %l1
a0007d5c:	e4 05 20 18 	ld  [ %l4 + 0x18 ], %l2
a0007d60:	c0 25 20 1c 	clr  [ %l4 + 0x1c ]
a0007d64:	81 8c 20 00 	mov  %l0, %psr
a0007d68:	01 00 00 00 	nop 
a0007d6c:	01 00 00 00 	nop 
a0007d70:	01 00 00 00 	nop 
a0007d74:	81 c4 80 00 	jmp  %l2
a0007d78:	81 cc a0 04 	rett  %l2 + 4

a0007d7c <_irqcall_disableirq>:
a0007d7c:	a0 14 2f 00 	or  %l0, 0xf00, %l0
a0007d80:	81 8c 00 00 	mov  %l0, %psr
a0007d84:	01 00 00 00 	nop 
a0007d88:	01 00 00 00 	nop 
a0007d8c:	01 00 00 00 	nop 
a0007d90:	81 c4 80 00 	jmp  %l2
a0007d94:	81 cc a0 04 	rett  %l2 + 4

a0007d98 <_irqcall>:
a0007d98:	80 a6 60 02 	cmp  %i1, 2
a0007d9c:	12 80 00 05 	bne  a0007db0 <_irqcall+0x18>
a0007da0:	a8 14 2f 00 	or  %l0, 0xf00, %l4
a0007da4:	81 8d 00 00 	mov  %l4, %psr
a0007da8:	b0 14 20 20 	or  %l0, 0x20, %i0
a0007dac:	30 80 00 1f 	b,a   a0007e28 <_irqcall+0x90>
a0007db0:	80 a6 60 03 	cmp  %i1, 3
a0007db4:	12 80 00 06 	bne  a0007dcc <_irqcall+0x34>
a0007db8:	a8 0e 2f 00 	and  %i0, 0xf00, %l4
a0007dbc:	aa 2c 2f 00 	andn  %l0, 0xf00, %l5
a0007dc0:	a8 15 40 14 	or  %l5, %l4, %l4
a0007dc4:	81 8d 00 00 	mov  %l4, %psr
a0007dc8:	30 80 00 18 	b,a   a0007e28 <_irqcall+0x90>
a0007dcc:	80 a6 60 04 	cmp  %i1, 4
a0007dd0:	12 80 00 08 	bne  a0007df0 <_irqcall+0x58>
a0007dd4:	a9 48 00 00 	rd  %psr, %l4
a0007dd8:	a8 15 20 40 	or  %l4, 0x40, %l4
a0007ddc:	81 8d 00 00 	mov  %l4, %psr
a0007de0:	01 00 00 00 	nop 
a0007de4:	01 00 00 00 	nop 
a0007de8:	01 00 00 00 	nop 
a0007dec:	30 80 00 0f 	b,a   a0007e28 <_irqcall+0x90>
a0007df0:	80 a6 60 05 	cmp  %i1, 5
a0007df4:	12 80 00 08 	bne  a0007e14 <_irqcall+0x7c>
a0007df8:	a9 48 00 00 	rd  %psr, %l4
a0007dfc:	a8 2d 20 40 	andn  %l4, 0x40, %l4
a0007e00:	81 8d 00 00 	mov  %l4, %psr
a0007e04:	01 00 00 00 	nop 
a0007e08:	01 00 00 00 	nop 
a0007e0c:	01 00 00 00 	nop 
a0007e10:	30 80 00 06 	b,a   a0007e28 <_irqcall+0x90>
a0007e14:	80 a6 60 06 	cmp  %i1, 6
a0007e18:	12 80 00 03 	bne  a0007e24 <_irqcall+0x8c>
a0007e1c:	01 00 00 00 	nop 
a0007e20:	30 bf ff a3 	b,a   a0007cac <_irqcall_flush_windows>
a0007e24:	91 d0 20 00 	ta  0
a0007e28:	81 c4 80 00 	jmp  %l2
a0007e2c:	81 cc a0 04 	rett  %l2 + 4

a0007e30 <leonbare_enable_traps>:
a0007e30:	92 10 20 03 	mov  3, %o1
a0007e34:	81 c3 e0 08 	retl 
a0007e38:	91 d0 20 02 	ta  2

a0007e3c <leonbare_disable_traps>:
a0007e3c:	92 10 20 02 	mov  2, %o1
a0007e40:	81 c3 e0 08 	retl 
a0007e44:	91 d0 20 02 	ta  2

a0007e48 <leonbare_flush_windows>:
a0007e48:	92 10 20 06 	mov  6, %o1
a0007e4c:	81 c3 e0 08 	retl 
a0007e50:	91 d0 20 02 	ta  2

a0007e54 <bdinit1>:
a0007e54:	81 c3 e0 08 	retl 
a0007e58:	01 00 00 00 	nop 

a0007e5c <bdinit2>:
a0007e5c:	81 c3 e0 08 	retl 
a0007e60:	01 00 00 00 	nop 

a0007e64 <prelibchook>:
a0007e64:	81 c3 e0 08 	retl 
a0007e68:	01 00 00 00 	nop 

a0007e6c <_leonbare_irq_entry_svt>:
a0007e6c:	ae 25 a0 10 	sub  %l6, 0x10, %l7
a0007e70:	a7 50 00 00 	rd  %wim, %l3

a0007e74 <leonbare_irq_entry>:
a0007e74:	2d 28 00 1f 	sethi  %hi(0xa0007c00), %l6
a0007e78:	ac 15 a2 80 	or  %l6, 0x280, %l6	! a0007e80 <leonbare_irq_entry+0xc>
a0007e7c:	29 28 00 22 	sethi  %hi(0xa0008800), %l4
a0007e80:	81 c5 22 44 	jmp  %l4 + 0x244	! a0008a44 <leonbare_trapsetup_fast>
a0007e84:	01 00 00 00 	nop 
a0007e88:	11 28 00 2a 	sethi  %hi(0xa000a800), %o0
a0007e8c:	90 12 21 74 	or  %o0, 0x174, %o0	! a000a974 <nestcount>
a0007e90:	d2 02 00 00 	ld  [ %o0 ], %o1
a0007e94:	92 02 60 01 	inc  %o1
a0007e98:	d2 22 00 00 	st  %o1, [ %o0 ]
a0007e9c:	93 2d e0 08 	sll  %l7, 8, %o1
a0007ea0:	90 2c 2f 00 	andn  %l0, 0xf00, %o0
a0007ea4:	92 12 00 09 	or  %o0, %o1, %o1
a0007ea8:	11 28 00 2a 	sethi  %hi(0xa000a800), %o0
a0007eac:	90 12 21 6c 	or  %o0, 0x16c, %o0	! a000a96c <nestedirq>
a0007eb0:	d0 02 00 00 	ld  [ %o0 ], %o0
a0007eb4:	80 a0 00 08 	cmp  %g0, %o0
a0007eb8:	22 80 00 02 	be,a   a0007ec0 <leonbare_irq_entry+0x4c>
a0007ebc:	92 12 6f 00 	or  %o1, 0xf00, %o1
a0007ec0:	81 8a 60 20 	wr  %o1, 0x20, %psr
a0007ec4:	01 00 00 00 	nop 
a0007ec8:	01 00 00 00 	nop 
a0007ecc:	01 00 00 00 	nop 
a0007ed0:	90 10 00 17 	mov  %l7, %o0
a0007ed4:	40 00 00 31 	call  a0007f98 <handler_irq>
a0007ed8:	92 03 a0 60 	add  %sp, 0x60, %o1
a0007edc:	92 14 2f 00 	or  %l0, 0xf00, %o1
a0007ee0:	81 8a 60 20 	wr  %o1, 0x20, %psr
a0007ee4:	01 00 00 00 	nop 
a0007ee8:	01 00 00 00 	nop 
a0007eec:	01 00 00 00 	nop 
a0007ef0:	11 28 00 2a 	sethi  %hi(0xa000a800), %o0
a0007ef4:	90 12 21 74 	or  %o0, 0x174, %o0	! a000a974 <nestcount>
a0007ef8:	d2 02 00 00 	ld  [ %o0 ], %o1
a0007efc:	92 22 60 01 	dec  %o1
a0007f00:	d2 22 00 00 	st  %o1, [ %o0 ]
a0007f04:	10 80 02 ef 	b  a0008ac0 <leonbare_trapreturn_fast>
a0007f08:	ac 10 00 00 	mov  %g0, %l6

a0007f0c <chained_catch_interrupt>:
a0007f0c:	1b 28 00 2b 	sethi  %hi(0xa000ac00), %o5
a0007f10:	9a 13 61 64 	or  %o5, 0x164, %o5	! a000ad64 <_irqtbl>
a0007f14:	91 2a 20 02 	sll  %o0, 2, %o0
a0007f18:	c2 03 40 08 	ld  [ %o5 + %o0 ], %g1
a0007f1c:	c2 22 60 0c 	st  %g1, [ %o1 + 0xc ]
a0007f20:	81 c3 e0 08 	retl 
a0007f24:	d2 23 40 08 	st  %o1, [ %o5 + %o0 ]

a0007f28 <catch_interrupt>:
a0007f28:	9d e3 bf 98 	save  %sp, -104, %sp
a0007f2c:	03 28 00 2b 	sethi  %hi(0xa000ac00), %g1
a0007f30:	82 10 61 64 	or  %g1, 0x164, %g1	! a000ad64 <_irqtbl>
a0007f34:	99 2e 60 02 	sll  %i1, 2, %o4
a0007f38:	1b 28 00 2a 	sethi  %hi(0xa000a800), %o5
a0007f3c:	97 2e 60 04 	sll  %i1, 4, %o3
a0007f40:	d8 00 40 0c 	ld  [ %g1 + %o4 ], %o4
a0007f44:	9a 13 63 64 	or  %o5, 0x364, %o5
a0007f48:	90 10 00 19 	mov  %i1, %o0
a0007f4c:	92 02 c0 0d 	add  %o3, %o5, %o1
a0007f50:	80 a6 60 1f 	cmp  %i1, 0x1f
a0007f54:	14 80 00 0f 	bg  a0007f90 <catch_interrupt+0x68>
a0007f58:	82 10 20 00 	clr  %g1
a0007f5c:	10 80 00 06 	b  a0007f74 <catch_interrupt+0x4c>
a0007f60:	80 a3 20 00 	cmp  %o4, 0
a0007f64:	22 80 00 0a 	be,a   a0007f8c <catch_interrupt+0x64>
a0007f68:	c2 02 40 00 	ld  [ %o1 ], %g1
a0007f6c:	d8 03 20 0c 	ld  [ %o4 + 0xc ], %o4
a0007f70:	80 a3 20 00 	cmp  %o4, 0
a0007f74:	12 bf ff fc 	bne  a0007f64 <catch_interrupt+0x3c>
a0007f78:	80 a3 00 09 	cmp  %o4, %o1
a0007f7c:	7f ff ff e4 	call  a0007f0c <chained_catch_interrupt>
a0007f80:	f0 22 40 00 	st  %i0, [ %o1 ]
a0007f84:	10 80 00 03 	b  a0007f90 <catch_interrupt+0x68>
a0007f88:	82 10 20 00 	clr  %g1
a0007f8c:	f0 22 40 00 	st  %i0, [ %o1 ]
a0007f90:	81 c7 e0 08 	ret 
a0007f94:	91 e8 00 01 	restore  %g0, %g1, %o0

a0007f98 <handler_irq>:
a0007f98:	9d e3 bf 98 	save  %sp, -104, %sp
a0007f9c:	1b 28 00 2a 	sethi  %hi(0xa000a800), %o5
a0007fa0:	82 13 61 8c 	or  %o5, 0x18c, %g1	! a000a98c <LEON3_IrqCtrl_Regs>
a0007fa4:	d8 00 60 04 	ld  [ %g1 + 4 ], %o4
a0007fa8:	80 a3 00 18 	cmp  %o4, %i0
a0007fac:	02 80 00 44 	be  a00080bc <handler_irq+0x124>
a0007fb0:	c2 03 61 8c 	ld  [ %o5 + 0x18c ], %g1
a0007fb4:	80 a6 20 00 	cmp  %i0, 0
a0007fb8:	22 80 00 02 	be,a   a0007fc0 <handler_irq+0x28>
a0007fbc:	b0 10 00 0c 	mov  %o4, %i0
a0007fc0:	03 28 00 2b 	sethi  %hi(0xa000ac00), %g1
a0007fc4:	a3 2e 20 02 	sll  %i0, 2, %l1
a0007fc8:	82 10 61 64 	or  %g1, 0x164, %g1
a0007fcc:	e0 00 40 11 	ld  [ %g1 + %l1 ], %l0
a0007fd0:	80 a4 20 00 	cmp  %l0, 0
a0007fd4:	02 80 00 3d 	be  a00080c8 <handler_irq+0x130>
a0007fd8:	03 28 00 2a 	sethi  %hi(0xa000a800), %g1
a0007fdc:	10 80 00 12 	b  a0008024 <handler_irq+0x8c>
a0007fe0:	a4 10 62 e0 	or  %g1, 0x2e0, %l2	! a000aae0 <inirq>
a0007fe4:	d2 04 20 08 	ld  [ %l0 + 8 ], %o1
a0007fe8:	94 10 00 19 	mov  %i1, %o2
a0007fec:	9f c3 00 00 	call  %o4
a0007ff0:	90 10 00 18 	mov  %i0, %o0
a0007ff4:	03 28 00 2a 	sethi  %hi(0xa000a800), %g1
a0007ff8:	c2 00 62 d8 	ld  [ %g1 + 0x2d8 ], %g1	! a000aad8 <handler_irq_post>
a0007ffc:	80 a0 60 00 	cmp  %g1, 0
a0008000:	12 80 00 2b 	bne  a00080ac <handler_irq+0x114>
a0008004:	01 00 00 00 	nop 
a0008008:	c2 04 80 11 	ld  [ %l2 + %l1 ], %g1
a000800c:	82 00 7f ff 	add  %g1, -1, %g1
a0008010:	c2 24 80 11 	st  %g1, [ %l2 + %l1 ]
a0008014:	e0 04 20 0c 	ld  [ %l0 + 0xc ], %l0
a0008018:	80 a4 20 00 	cmp  %l0, 0
a000801c:	02 80 00 2b 	be  a00080c8 <handler_irq+0x130>
a0008020:	01 00 00 00 	nop 
a0008024:	d8 04 00 00 	ld  [ %l0 ], %o4
a0008028:	80 a3 20 00 	cmp  %o4, 0
a000802c:	22 bf ff fb 	be,a   a0008018 <handler_irq+0x80>
a0008030:	e0 04 20 0c 	ld  [ %l0 + 0xc ], %l0
a0008034:	03 28 00 2a 	sethi  %hi(0xa000a800), %g1
a0008038:	da 00 63 60 	ld  [ %g1 + 0x360 ], %o5	! a000ab60 <no_inirq_check>
a000803c:	80 a3 60 00 	cmp  %o5, 0
a0008040:	12 80 00 08 	bne  a0008060 <handler_irq+0xc8>
a0008044:	96 10 00 12 	mov  %l2, %o3
a0008048:	03 28 00 2a 	sethi  %hi(0xa000a800), %g1
a000804c:	82 10 62 e0 	or  %g1, 0x2e0, %g1	! a000aae0 <inirq>
a0008050:	da 00 40 11 	ld  [ %g1 + %l1 ], %o5
a0008054:	80 a3 60 00 	cmp  %o5, 0
a0008058:	32 bf ff f0 	bne,a   a0008018 <handler_irq+0x80>
a000805c:	e0 04 20 0c 	ld  [ %l0 + 0xc ], %l0
a0008060:	da 02 c0 11 	ld  [ %o3 + %l1 ], %o5
a0008064:	03 28 00 2a 	sethi  %hi(0xa000a800), %g1
a0008068:	9a 03 60 01 	inc  %o5
a000806c:	c2 00 62 dc 	ld  [ %g1 + 0x2dc ], %g1
a0008070:	80 a0 60 00 	cmp  %g1, 0
a0008074:	02 bf ff dc 	be  a0007fe4 <handler_irq+0x4c>
a0008078:	da 22 c0 11 	st  %o5, [ %o3 + %l1 ]
a000807c:	9f c0 40 00 	call  %g1
a0008080:	01 00 00 00 	nop 
a0008084:	d8 04 00 00 	ld  [ %l0 ], %o4
a0008088:	d2 04 20 08 	ld  [ %l0 + 8 ], %o1
a000808c:	94 10 00 19 	mov  %i1, %o2
a0008090:	9f c3 00 00 	call  %o4
a0008094:	90 10 00 18 	mov  %i0, %o0
a0008098:	03 28 00 2a 	sethi  %hi(0xa000a800), %g1
a000809c:	c2 00 62 d8 	ld  [ %g1 + 0x2d8 ], %g1	! a000aad8 <handler_irq_post>
a00080a0:	80 a0 60 00 	cmp  %g1, 0
a00080a4:	22 bf ff da 	be,a   a000800c <handler_irq+0x74>
a00080a8:	c2 04 80 11 	ld  [ %l2 + %l1 ], %g1
a00080ac:	9f c0 40 00 	call  %g1
a00080b0:	01 00 00 00 	nop 
a00080b4:	10 bf ff d6 	b  a000800c <handler_irq+0x74>
a00080b8:	c2 04 80 11 	ld  [ %l2 + %l1 ], %g1
a00080bc:	da 00 60 c0 	ld  [ %g1 + 0xc0 ], %o5
a00080c0:	10 bf ff bd 	b  a0007fb4 <handler_irq+0x1c>
a00080c4:	b0 0b 60 1f 	and  %o5, 0x1f, %i0
a00080c8:	81 c7 e0 08 	ret 
a00080cc:	81 e8 00 00 	restore 

a00080d0 <traptable_genjmp>:
a00080d0:	9d e3 bf 98 	save  %sp, -104, %sp
a00080d4:	03 28 00 2a 	sethi  %hi(0xa000a800), %g1
a00080d8:	98 10 61 78 	or  %g1, 0x178, %o4	! a000a978 <genseq>
a00080dc:	3b 3f ff f8 	sethi  %hi(0xffffe000), %i5
a00080e0:	de 03 20 08 	ld  [ %o4 + 8 ], %o7
a00080e4:	da 00 61 78 	ld  [ %g1 + 0x178 ], %o5
a00080e8:	9e 0b c0 1d 	and  %o7, %i5, %o7
a00080ec:	03 3f f0 00 	sethi  %hi(0xffc00000), %g1
a00080f0:	b3 2e 60 04 	sll  %i1, 4, %i1
a00080f4:	ba 0e e3 ff 	and  %i3, 0x3ff, %i5
a00080f8:	f8 03 20 04 	ld  [ %o4 + 4 ], %i4
a00080fc:	9a 13 40 1a 	or  %o5, %i2, %o5
a0008100:	da 26 00 19 	st  %o5, [ %i0 + %i1 ]
a0008104:	b8 0f 00 01 	and  %i4, %g1, %i4
a0008108:	b7 36 e0 0a 	srl  %i3, 0xa, %i3
a000810c:	b2 06 40 18 	add  %i1, %i0, %i1
a0008110:	b8 17 00 1b 	or  %i4, %i3, %i4
a0008114:	9e 13 c0 1d 	or  %o7, %i5, %o7
a0008118:	c2 03 20 0c 	ld  [ %o4 + 0xc ], %g1
a000811c:	c2 26 60 0c 	st  %g1, [ %i1 + 0xc ]
a0008120:	f8 26 60 04 	st  %i4, [ %i1 + 4 ]
a0008124:	de 26 60 08 	st  %o7, [ %i1 + 8 ]
a0008128:	81 c7 e0 08 	ret 
a000812c:	81 e8 00 00 	restore 

a0008130 <sparc_leon23_get_tbr_base>:
a0008130:	91 58 00 00 	rd  %tbr, %o0
a0008134:	81 c3 e0 08 	retl 
a0008138:	90 0a 30 00 	and  %o0, -4096, %o0

a000813c <cpuinit>:
a000813c:	8c 10 00 0f 	mov  %o7, %g6
a0008140:	a7 48 00 00 	rd  %psr, %l3
a0008144:	8b 34 e0 18 	srl  %l3, 0x18, %g5
a0008148:	8a 09 60 0f 	and  %g5, 0xf, %g5
a000814c:	80 a1 60 03 	cmp  %g5, 3
a0008150:	02 80 00 02 	be  a0008158 <cpuinit+0x1c>
a0008154:	10 80 00 39 	b  a0008238 <cpuinit+0xfc>
a0008158:	90 10 20 01 	mov  1, %o0
a000815c:	92 10 20 06 	mov  6, %o1
a0008160:	40 00 02 8e 	call  a0008b98 <ahbslv_scan>
a0008164:	01 00 00 00 	nop 
a0008168:	80 a0 00 08 	cmp  %g0, %o0
a000816c:	02 80 00 33 	be  a0008238 <cpuinit+0xfc>
a0008170:	01 00 00 00 	nop 
a0008174:	c2 02 20 10 	ld  [ %o0 + 0x10 ], %g1
a0008178:	11 3f fc 00 	sethi  %hi(0xfff00000), %o0
a000817c:	82 08 40 08 	and  %g1, %o0, %g1
a0008180:	11 00 03 fc 	sethi  %hi(0xff000), %o0
a0008184:	84 10 40 08 	or  %g1, %o0, %g2
a0008188:	90 10 00 02 	mov  %g2, %o0
a000818c:	92 10 20 01 	mov  1, %o1
a0008190:	94 10 20 0c 	mov  0xc, %o2
a0008194:	40 00 02 97 	call  a0008bf0 <apbslv_scan>
a0008198:	01 00 00 00 	nop 
a000819c:	80 a0 00 08 	cmp  %g0, %o0
a00081a0:	02 80 00 26 	be  a0008238 <cpuinit+0xfc>
a00081a4:	01 00 00 00 	nop 
a00081a8:	40 00 02 a7 	call  a0008c44 <iobar_getbase>
a00081ac:	92 10 00 01 	mov  %g1, %o1
a00081b0:	0b 28 00 2a 	sethi  %hi(0xa000a800), %g5
a00081b4:	8a 11 61 94 	or  %g5, 0x194, %g5	! a000a994 <console>
a00081b8:	d2 21 40 00 	st  %o1, [ %g5 ]
a00081bc:	90 10 00 02 	mov  %g2, %o0
a00081c0:	92 10 20 01 	mov  1, %o1
a00081c4:	94 10 20 11 	mov  0x11, %o2
a00081c8:	40 00 02 8a 	call  a0008bf0 <apbslv_scan>
a00081cc:	01 00 00 00 	nop 
a00081d0:	80 a0 00 08 	cmp  %g0, %o0
a00081d4:	02 80 00 19 	be  a0008238 <cpuinit+0xfc>
a00081d8:	01 00 00 00 	nop 
a00081dc:	40 00 02 9a 	call  a0008c44 <iobar_getbase>
a00081e0:	92 10 00 01 	mov  %g1, %o1
a00081e4:	92 02 60 10 	add  %o1, 0x10, %o1
a00081e8:	0b 28 00 2a 	sethi  %hi(0xa000a800), %g5
a00081ec:	8a 11 61 88 	or  %g5, 0x188, %g5	! a000a988 <rtc>
a00081f0:	d2 21 40 00 	st  %o1, [ %g5 ]
a00081f4:	90 10 00 02 	mov  %g2, %o0
a00081f8:	92 10 20 01 	mov  1, %o1
a00081fc:	94 10 20 0d 	mov  0xd, %o2
a0008200:	40 00 02 7c 	call  a0008bf0 <apbslv_scan>
a0008204:	01 00 00 00 	nop 
a0008208:	80 a0 00 08 	cmp  %g0, %o0
a000820c:	02 80 00 0b 	be  a0008238 <cpuinit+0xfc>
a0008210:	01 00 00 00 	nop 
a0008214:	40 00 02 8c 	call  a0008c44 <iobar_getbase>
a0008218:	92 10 00 01 	mov  %g1, %o1
a000821c:	0b 28 00 2a 	sethi  %hi(0xa000a800), %g5
a0008220:	8a 11 61 8c 	or  %g5, 0x18c, %g5	! a000a98c <LEON3_IrqCtrl_Regs>
a0008224:	d2 21 40 00 	st  %o1, [ %g5 ]
a0008228:	d4 02 60 10 	ld  [ %o1 + 0x10 ], %o2
a000822c:	95 32 a0 10 	srl  %o2, 0x10, %o2
a0008230:	94 0a a0 0f 	and  %o2, 0xf, %o2
a0008234:	d4 21 60 04 	st  %o2, [ %g5 + 4 ]
a0008238:	9e 10 00 06 	mov  %g6, %o7
a000823c:	81 c3 e0 08 	retl 
a0008240:	01 00 00 00 	nop 
a0008244:	03 28 00 2a 	sethi  %hi(0xa000a800), %g1
a0008248:	82 10 61 a8 	or  %g1, 0x1a8, %g1	! a000a9a8 <jiffies_64>

a000824c <_exit>:
a000824c:	82 10 20 01 	mov  1, %g1
a0008250:	91 d0 20 00 	ta  0
a0008254:	81 c3 e0 08 	retl 
a0008258:	01 00 00 00 	nop 

a000825c <amba_find_apbslv_addr>:
a000825c:	9d e3 bf 98 	save  %sp, -104, %sp
a0008260:	03 28 00 2b 	sethi  %hi(0xa000ac00), %g1
a0008264:	82 10 62 58 	or  %g1, 0x258, %g1	! a000ae58 <amba_conf>
a0008268:	fa 00 60 90 	ld  [ %g1 + 0x90 ], %i5
a000826c:	9e 10 00 18 	mov  %i0, %o7
a0008270:	9a 10 00 19 	mov  %i1, %o5
a0008274:	98 10 00 1a 	mov  %i2, %o4
a0008278:	80 a7 60 00 	cmp  %i5, 0
a000827c:	08 80 00 23 	bleu  a0008308 <amba_find_apbslv_addr+0xac>
a0008280:	b6 10 20 00 	clr  %i3
a0008284:	b2 10 00 01 	mov  %g1, %i1
a0008288:	10 80 00 05 	b  a000829c <amba_find_apbslv_addr+0x40>
a000828c:	b0 10 00 1d 	mov  %i5, %i0
a0008290:	80 a6 00 1b 	cmp  %i0, %i3
a0008294:	08 80 00 1d 	bleu  a0008308 <amba_find_apbslv_addr+0xac>
a0008298:	b2 06 60 04 	add  %i1, 4, %i1
a000829c:	f4 06 60 94 	ld  [ %i1 + 0x94 ], %i2
a00082a0:	f8 06 80 00 	ld  [ %i2 ], %i4
a00082a4:	83 37 20 0c 	srl  %i4, 0xc, %g1
a00082a8:	bb 37 20 18 	srl  %i4, 0x18, %i5
a00082ac:	b6 06 e0 01 	inc  %i3
a00082b0:	80 a7 40 0f 	cmp  %i5, %o7
a00082b4:	12 bf ff f7 	bne  a0008290 <amba_find_apbslv_addr+0x34>
a00082b8:	82 08 6f ff 	and  %g1, 0xfff, %g1
a00082bc:	80 a0 40 0d 	cmp  %g1, %o5
a00082c0:	12 bf ff f5 	bne  a0008294 <amba_find_apbslv_addr+0x38>
a00082c4:	80 a6 00 1b 	cmp  %i0, %i3
a00082c8:	80 a3 20 00 	cmp  %o4, 0
a00082cc:	02 80 00 03 	be  a00082d8 <amba_find_apbslv_addr+0x7c>
a00082d0:	82 0f 20 0f 	and  %i4, 0xf, %g1
a00082d4:	c2 23 00 00 	st  %g1, [ %o4 ]
a00082d8:	03 00 00 3f 	sethi  %hi(0xfc00), %g1
a00082dc:	f8 06 a0 04 	ld  [ %i2 + 4 ], %i4
a00082e0:	82 10 63 f0 	or  %g1, 0x3f0, %g1
a00082e4:	82 0f 00 01 	and  %i4, %g1, %g1
a00082e8:	3b 3f fc 00 	sethi  %hi(0xfff00000), %i5
a00082ec:	b8 0f 00 1d 	and  %i4, %i5, %i4
a00082f0:	b9 37 20 0c 	srl  %i4, 0xc, %i4
a00082f4:	83 28 60 04 	sll  %g1, 4, %g1
a00082f8:	b8 0f 00 01 	and  %i4, %g1, %i4
a00082fc:	fa 06 61 94 	ld  [ %i1 + 0x194 ], %i5
a0008300:	10 80 00 03 	b  a000830c <amba_find_apbslv_addr+0xb0>
a0008304:	b0 17 40 1c 	or  %i5, %i4, %i0
a0008308:	b0 10 20 00 	clr  %i0
a000830c:	81 c7 e0 08 	ret 
a0008310:	81 e8 00 00 	restore 

a0008314 <amba_init>:
a0008314:	9d e3 bf 98 	save  %sp, -104, %sp
a0008318:	1b 28 00 2b 	sethi  %hi(0xa000ac00), %o5
a000831c:	c2 03 61 e4 	ld  [ %o5 + 0x1e4 ], %g1	! a000ade4 <amba_init_done>
a0008320:	80 a0 60 00 	cmp  %g1, 0
a0008324:	12 80 00 84 	bne  a0008534 <amba_init+0x220>
a0008328:	a4 10 20 00 	clr  %l2
a000832c:	23 28 00 2b 	sethi  %hi(0xa000ac00), %l1
a0008330:	82 10 20 01 	mov  1, %g1
a0008334:	a0 14 62 58 	or  %l1, 0x258, %l0
a0008338:	94 10 23 a4 	mov  0x3a4, %o2
a000833c:	c2 23 61 e4 	st  %g1, [ %o5 + 0x1e4 ]
a0008340:	90 10 00 10 	mov  %l0, %o0
a0008344:	7f ff f8 05 	call  a0006358 <memset>
a0008348:	92 10 20 00 	clr  %o1
a000834c:	96 10 30 00 	mov  -4096, %o3
a0008350:	d8 04 62 58 	ld  [ %l1 + 0x258 ], %o4
a0008354:	94 10 20 07 	mov  7, %o2
a0008358:	c2 02 c0 00 	ld  [ %o3 ], %g1
a000835c:	9b 2b 20 02 	sll  %o4, 2, %o5
a0008360:	80 a0 60 00 	cmp  %g1, 0
a0008364:	02 80 00 04 	be  a0008374 <amba_init+0x60>
a0008368:	9a 03 40 10 	add  %o5, %l0, %o5
a000836c:	98 03 20 01 	inc  %o4
a0008370:	d6 23 60 04 	st  %o3, [ %o5 + 4 ]
a0008374:	94 82 bf ff 	addcc  %o2, -1, %o2
a0008378:	1c bf ff f8 	bpos  a0008358 <amba_init+0x44>
a000837c:	96 02 e0 20 	add  %o3, 0x20, %o3
a0008380:	11 28 00 2b 	sethi  %hi(0xa000ac00), %o0
a0008384:	d8 24 62 58 	st  %o4, [ %l1 + 0x258 ]
a0008388:	96 10 38 00 	mov  -2048, %o3
a000838c:	92 12 22 a0 	or  %o0, 0x2a0, %o1
a0008390:	d8 02 22 a0 	ld  [ %o0 + 0x2a0 ], %o4
a0008394:	94 10 20 07 	mov  7, %o2
a0008398:	c2 02 c0 00 	ld  [ %o3 ], %g1
a000839c:	9b 2b 20 02 	sll  %o4, 2, %o5
a00083a0:	80 a0 60 00 	cmp  %g1, 0
a00083a4:	02 80 00 04 	be  a00083b4 <amba_init+0xa0>
a00083a8:	9a 03 40 09 	add  %o5, %o1, %o5
a00083ac:	98 03 20 01 	inc  %o4
a00083b0:	d6 23 60 04 	st  %o3, [ %o5 + 4 ]
a00083b4:	94 82 bf ff 	addcc  %o2, -1, %o2
a00083b8:	1c bf ff f8 	bpos  a0008398 <amba_init+0x84>
a00083bc:	96 02 e0 20 	add  %o3, 0x20, %o3
a00083c0:	23 28 00 2b 	sethi  %hi(0xa000ac00), %l1
a00083c4:	d8 22 22 a0 	st  %o4, [ %o0 + 0x2a0 ]
a00083c8:	a0 14 62 58 	or  %l1, 0x258, %l0
a00083cc:	c2 04 20 48 	ld  [ %l0 + 0x48 ], %g1
a00083d0:	80 a0 60 00 	cmp  %g1, 0
a00083d4:	04 80 00 43 	ble  a00084e0 <amba_init+0x1cc>
a00083d8:	94 10 20 00 	clr  %o2
a00083dc:	03 00 00 3f 	sethi  %hi(0xfc00), %g1
a00083e0:	90 10 00 10 	mov  %l0, %o0
a00083e4:	aa 10 63 f0 	or  %g1, 0x3f0, %l5
a00083e8:	a8 04 20 90 	add  %l0, 0x90, %l4
a00083ec:	10 80 00 08 	b  a000840c <amba_init+0xf8>
a00083f0:	92 04 20 4c 	add  %l0, 0x4c, %o1
a00083f4:	94 02 a0 01 	inc  %o2
a00083f8:	c2 02 20 48 	ld  [ %o0 + 0x48 ], %g1
a00083fc:	80 a0 40 0a 	cmp  %g1, %o2
a0008400:	92 02 60 04 	add  %o1, 4, %o1
a0008404:	04 80 00 37 	ble  a00084e0 <amba_init+0x1cc>
a0008408:	a0 10 00 08 	mov  %o0, %l0
a000840c:	da 02 40 00 	ld  [ %o1 ], %o5
a0008410:	d8 03 40 00 	ld  [ %o5 ], %o4
a0008414:	83 33 20 18 	srl  %o4, 0x18, %g1
a0008418:	80 a0 60 01 	cmp  %g1, 1
a000841c:	12 bf ff f6 	bne  a00083f4 <amba_init+0xe0>
a0008420:	da 03 60 10 	ld  [ %o5 + 0x10 ], %o5
a0008424:	83 33 20 0c 	srl  %o4, 0xc, %g1
a0008428:	82 08 6f ff 	and  %g1, 0xfff, %g1
a000842c:	80 a0 60 06 	cmp  %g1, 6
a0008430:	32 bf ff f2 	bne,a   a00083f8 <amba_init+0xe4>
a0008434:	94 02 a0 01 	inc  %o2
a0008438:	82 0b 40 15 	and  %o5, %l5, %g1
a000843c:	83 28 60 10 	sll  %g1, 0x10, %g1
a0008440:	9e 08 40 0d 	and  %g1, %o5, %o7
a0008444:	1b 00 03 fc 	sethi  %hi(0xff000), %o5
a0008448:	96 13 c0 0d 	or  %o7, %o5, %o3
a000844c:	e0 04 20 90 	ld  [ %l0 + 0x90 ], %l0
a0008450:	98 10 20 00 	clr  %o4
a0008454:	23 28 00 2b 	sethi  %hi(0xa000ac00), %l1
a0008458:	a6 10 00 14 	mov  %l4, %l3
a000845c:	80 a4 20 3f 	cmp  %l0, 0x3f
a0008460:	a0 04 20 01 	inc  %l0
a0008464:	9a 10 20 01 	mov  1, %o5
a0008468:	04 80 00 03 	ble  a0008474 <amba_init+0x160>
a000846c:	82 10 20 01 	mov  1, %g1
a0008470:	9a 10 20 00 	clr  %o5
a0008474:	80 a3 20 0f 	cmp  %o4, 0xf
a0008478:	04 80 00 03 	ble  a0008484 <amba_init+0x170>
a000847c:	98 03 20 01 	inc  %o4
a0008480:	82 10 20 00 	clr  %g1
a0008484:	80 8b 40 01 	btst  %o5, %g1
a0008488:	22 80 00 10 	be,a   a00084c8 <amba_init+0x1b4>
a000848c:	94 02 a0 01 	inc  %o2
a0008490:	c2 02 c0 00 	ld  [ %o3 ], %g1
a0008494:	80 a0 60 00 	cmp  %g1, 0
a0008498:	22 bf ff f1 	be,a   a000845c <amba_init+0x148>
a000849c:	96 02 e0 08 	add  %o3, 8, %o3
a00084a0:	c2 04 62 e8 	ld  [ %l1 + 0x2e8 ], %g1
a00084a4:	9b 28 60 02 	sll  %g1, 2, %o5
a00084a8:	9a 03 40 13 	add  %o5, %l3, %o5
a00084ac:	82 00 60 01 	inc  %g1
a00084b0:	e4 23 62 04 	st  %l2, [ %o5 + 0x204 ]
a00084b4:	c2 24 62 e8 	st  %g1, [ %l1 + 0x2e8 ]
a00084b8:	de 23 61 04 	st  %o7, [ %o5 + 0x104 ]
a00084bc:	d6 23 60 04 	st  %o3, [ %o5 + 4 ]
a00084c0:	10 bf ff e7 	b  a000845c <amba_init+0x148>
a00084c4:	96 02 e0 08 	add  %o3, 8, %o3
a00084c8:	c2 02 20 48 	ld  [ %o0 + 0x48 ], %g1
a00084cc:	a4 04 a0 01 	inc  %l2
a00084d0:	80 a0 40 0a 	cmp  %g1, %o2
a00084d4:	92 02 60 04 	add  %o1, 4, %o1
a00084d8:	14 bf ff cd 	bg  a000840c <amba_init+0xf8>
a00084dc:	a0 10 00 08 	mov  %o0, %l0
a00084e0:	90 10 20 01 	mov  1, %o0
a00084e4:	92 10 20 0d 	mov  0xd, %o1
a00084e8:	7f ff ff 5d 	call  a000825c <amba_find_apbslv_addr>
a00084ec:	94 10 20 00 	clr  %o2
a00084f0:	80 a2 20 00 	cmp  %o0, 0
a00084f4:	02 80 00 03 	be  a0008500 <amba_init+0x1ec>
a00084f8:	21 28 00 2a 	sethi  %hi(0xa000a800), %l0
a00084fc:	d0 24 21 8c 	st  %o0, [ %l0 + 0x18c ]	! a000a98c <LEON3_IrqCtrl_Regs>
a0008500:	15 28 00 2b 	sethi  %hi(0xa000ac00), %o2
a0008504:	94 12 a1 e8 	or  %o2, 0x1e8, %o2	! a000ade8 <LEON3_GpTimer_Irq>
a0008508:	90 10 20 01 	mov  1, %o0
a000850c:	7f ff ff 54 	call  a000825c <amba_find_apbslv_addr>
a0008510:	92 10 20 11 	mov  0x11, %o1
a0008514:	80 a2 20 00 	cmp  %o0, 0
a0008518:	02 80 00 03 	be  a0008524 <amba_init+0x210>
a000851c:	03 28 00 2b 	sethi  %hi(0xa000ac00), %g1
a0008520:	d0 20 61 ec 	st  %o0, [ %g1 + 0x1ec ]	! a000adec <LEON3_GpTimer_Regs>
a0008524:	c2 04 21 8c 	ld  [ %l0 + 0x18c ], %g1
a0008528:	80 a0 60 00 	cmp  %g1, 0
a000852c:	32 80 00 02 	bne,a   a0008534 <amba_init+0x220>
a0008530:	c0 20 60 40 	clr  [ %g1 + 0x40 ]
a0008534:	81 c7 e0 08 	ret 
a0008538:	81 e8 00 00 	restore 

a000853c <___st_pthread_mutex_init>:
a000853c:	9d e3 bf 98 	save  %sp, -104, %sp
a0008540:	03 28 00 2b 	sethi  %hi(0xa000ac00), %g1
a0008544:	c2 00 62 0c 	ld  [ %g1 + 0x20c ], %g1	! a000ae0c <__lbst_pthread_mutex_init>
a0008548:	90 10 00 18 	mov  %i0, %o0
a000854c:	92 10 00 19 	mov  %i1, %o1
a0008550:	80 a0 60 00 	cmp  %g1, 0
a0008554:	02 80 00 05 	be  a0008568 <___st_pthread_mutex_init+0x2c>
a0008558:	b0 10 20 00 	clr  %i0
a000855c:	9f c0 40 00 	call  %g1
a0008560:	01 00 00 00 	nop 
a0008564:	b0 10 00 08 	mov  %o0, %i0
a0008568:	81 c7 e0 08 	ret 
a000856c:	81 e8 00 00 	restore 

a0008570 <___st_pthread_mutex_destroy>:
a0008570:	9d e3 bf 98 	save  %sp, -104, %sp
a0008574:	03 28 00 2b 	sethi  %hi(0xa000ac00), %g1
a0008578:	c2 00 62 08 	ld  [ %g1 + 0x208 ], %g1	! a000ae08 <__lbst_pthread_mutex_destroy>
a000857c:	90 10 00 18 	mov  %i0, %o0
a0008580:	80 a0 60 00 	cmp  %g1, 0
a0008584:	02 80 00 05 	be  a0008598 <___st_pthread_mutex_destroy+0x28>
a0008588:	b0 10 20 00 	clr  %i0
a000858c:	9f c0 40 00 	call  %g1
a0008590:	01 00 00 00 	nop 
a0008594:	b0 10 00 08 	mov  %o0, %i0
a0008598:	81 c7 e0 08 	ret 
a000859c:	81 e8 00 00 	restore 

a00085a0 <___st_pthread_mutex_lock>:
a00085a0:	9d e3 bf 98 	save  %sp, -104, %sp
a00085a4:	03 28 00 2b 	sethi  %hi(0xa000ac00), %g1
a00085a8:	c2 00 62 00 	ld  [ %g1 + 0x200 ], %g1	! a000ae00 <__lbst_pthread_mutex_lock>
a00085ac:	90 10 00 18 	mov  %i0, %o0
a00085b0:	80 a0 60 00 	cmp  %g1, 0
a00085b4:	02 80 00 05 	be  a00085c8 <___st_pthread_mutex_lock+0x28>
a00085b8:	b0 10 20 00 	clr  %i0
a00085bc:	9f c0 40 00 	call  %g1
a00085c0:	01 00 00 00 	nop 
a00085c4:	b0 10 00 08 	mov  %o0, %i0
a00085c8:	81 c7 e0 08 	ret 
a00085cc:	81 e8 00 00 	restore 

a00085d0 <___st_pthread_mutex_trylock>:
a00085d0:	9d e3 bf 98 	save  %sp, -104, %sp
a00085d4:	03 28 00 2b 	sethi  %hi(0xa000ac00), %g1
a00085d8:	c2 00 62 04 	ld  [ %g1 + 0x204 ], %g1	! a000ae04 <__lbst_pthread_mutex_trylock>
a00085dc:	90 10 00 18 	mov  %i0, %o0
a00085e0:	80 a0 60 00 	cmp  %g1, 0
a00085e4:	02 80 00 05 	be  a00085f8 <___st_pthread_mutex_trylock+0x28>
a00085e8:	b0 10 20 00 	clr  %i0
a00085ec:	9f c0 40 00 	call  %g1
a00085f0:	01 00 00 00 	nop 
a00085f4:	b0 10 00 08 	mov  %o0, %i0
a00085f8:	81 c7 e0 08 	ret 
a00085fc:	81 e8 00 00 	restore 

a0008600 <___st_pthread_mutex_unlock>:
a0008600:	9d e3 bf 98 	save  %sp, -104, %sp
a0008604:	03 28 00 2b 	sethi  %hi(0xa000ac00), %g1
a0008608:	c2 00 61 fc 	ld  [ %g1 + 0x1fc ], %g1	! a000adfc <__lbst_pthread_mutex_unlock>
a000860c:	90 10 00 18 	mov  %i0, %o0
a0008610:	80 a0 60 00 	cmp  %g1, 0
a0008614:	02 80 00 05 	be  a0008628 <___st_pthread_mutex_unlock+0x28>
a0008618:	b0 10 20 00 	clr  %i0
a000861c:	9f c0 40 00 	call  %g1
a0008620:	01 00 00 00 	nop 
a0008624:	b0 10 00 08 	mov  %o0, %i0
a0008628:	81 c7 e0 08 	ret 
a000862c:	81 e8 00 00 	restore 

a0008630 <___st_pthread_mutexattr_init>:
a0008630:	9d e3 bf 98 	save  %sp, -104, %sp
a0008634:	03 28 00 2b 	sethi  %hi(0xa000ac00), %g1
a0008638:	c2 00 61 f8 	ld  [ %g1 + 0x1f8 ], %g1	! a000adf8 <__lbst_pthread_mutexattr_init>
a000863c:	90 10 00 18 	mov  %i0, %o0
a0008640:	80 a0 60 00 	cmp  %g1, 0
a0008644:	02 80 00 05 	be  a0008658 <___st_pthread_mutexattr_init+0x28>
a0008648:	b0 10 20 00 	clr  %i0
a000864c:	9f c0 40 00 	call  %g1
a0008650:	01 00 00 00 	nop 
a0008654:	b0 10 00 08 	mov  %o0, %i0
a0008658:	81 c7 e0 08 	ret 
a000865c:	81 e8 00 00 	restore 

a0008660 <___st_pthread_mutexattr_destroy>:
a0008660:	9d e3 bf 98 	save  %sp, -104, %sp
a0008664:	03 28 00 2b 	sethi  %hi(0xa000ac00), %g1
a0008668:	c2 00 61 f4 	ld  [ %g1 + 0x1f4 ], %g1	! a000adf4 <__lbst_pthread_mutexattr_destroy>
a000866c:	90 10 00 18 	mov  %i0, %o0
a0008670:	80 a0 60 00 	cmp  %g1, 0
a0008674:	02 80 00 05 	be  a0008688 <___st_pthread_mutexattr_destroy+0x28>
a0008678:	b0 10 20 00 	clr  %i0
a000867c:	9f c0 40 00 	call  %g1
a0008680:	01 00 00 00 	nop 
a0008684:	b0 10 00 08 	mov  %o0, %i0
a0008688:	81 c7 e0 08 	ret 
a000868c:	81 e8 00 00 	restore 

a0008690 <___st_pthread_mutexattr_settype>:
a0008690:	9d e3 bf 98 	save  %sp, -104, %sp
a0008694:	03 28 00 2b 	sethi  %hi(0xa000ac00), %g1
a0008698:	c2 00 61 f0 	ld  [ %g1 + 0x1f0 ], %g1	! a000adf0 <__lbst_pthread_mutexattr_settype>
a000869c:	90 10 00 18 	mov  %i0, %o0
a00086a0:	92 10 00 19 	mov  %i1, %o1
a00086a4:	80 a0 60 00 	cmp  %g1, 0
a00086a8:	02 80 00 05 	be  a00086bc <___st_pthread_mutexattr_settype+0x2c>
a00086ac:	b0 10 20 00 	clr  %i0
a00086b0:	9f c0 40 00 	call  %g1
a00086b4:	01 00 00 00 	nop 
a00086b8:	b0 10 00 08 	mov  %o0, %i0
a00086bc:	81 c7 e0 08 	ret 
a00086c0:	81 e8 00 00 	restore 

a00086c4 <_hardreset_real>:
a00086c4:	01 00 00 00 	nop 

a00086c8 <_hardreset>:
a00086c8:	03 28 00 21 	sethi  %hi(0xa0008400), %g1
a00086cc:	82 10 63 7c 	or  %g1, 0x37c, %g1	! a000877c <_hardreset_custom_weak>
a00086d0:	9f c0 40 00 	call  %g1
a00086d4:	01 00 00 00 	nop 
a00086d8:	03 28 00 00 	sethi  %hi(0xa0000000), %g1
a00086dc:	82 10 60 00 	mov  %g1, %g1	! a0000000 <_trap_table>
a00086e0:	81 98 40 00 	mov  %g1, %tbr
a00086e4:	03 28 00 21 	sethi  %hi(0xa0008400), %g1
a00086e8:	82 10 63 e4 	or  %g1, 0x3e4, %g1	! a00087e4 <_hardreset_custom_svt_weak>
a00086ec:	9f c0 40 00 	call  %g1
a00086f0:	01 00 00 00 	nop 
a00086f4:	03 28 00 21 	sethi  %hi(0xa0008400), %g1
a00086f8:	82 10 63 6c 	or  %g1, 0x36c, %g1	! a000876c <_cleanregs_libgloss>
a00086fc:	9f c0 40 00 	call  %g1
a0008700:	01 00 00 00 	nop 
a0008704:	8b 44 40 00 	rd  %asr17, %g5
a0008708:	8b 31 60 1c 	srl  %g5, 0x1c, %g5
a000870c:	80 a1 40 00 	cmp  %g5, %g0
a0008710:	12 80 00 06 	bne  a0008728 <slavego>
a0008714:	01 00 00 00 	nop 

a0008718 <callcpuinit>:
a0008718:	7f ff fe 89 	call  a000813c <cpuinit>
a000871c:	01 00 00 00 	nop 
a0008720:	7f ff e4 70 	call  a00018e0 <pnpinit>
a0008724:	01 00 00 00 	nop 

a0008728 <slavego>:
a0008728:	9c 23 a0 40 	sub  %sp, 0x40, %sp
a000872c:	7f ff e2 35 	call  a0001000 <_start>
a0008730:	01 00 00 00 	nop 
a0008734:	82 10 20 01 	mov  1, %g1	! 1 <_trap_table-0x9fffffff>
a0008738:	91 d0 20 00 	ta  0
a000873c:	01 00 00 00 	nop 

a0008740 <_fpdis>:
a0008740:	29 00 00 04 	sethi  %hi(0x1000), %l4
a0008744:	a6 8c 00 14 	andcc  %l0, %l4, %l3
a0008748:	32 80 00 03 	bne,a   a0008754 <_fpdis+0x14>
a000874c:	a0 2c 00 14 	andn  %l0, %l4, %l0
a0008750:	91 d0 20 00 	ta  0
a0008754:	81 8c 00 00 	mov  %l0, %psr
a0008758:	01 00 00 00 	nop 
a000875c:	01 00 00 00 	nop 
a0008760:	01 00 00 00 	nop 
a0008764:	81 c4 80 00 	jmp  %l2
a0008768:	81 cc a0 04 	rett  %l2 + 4

a000876c <_cleanregs_libgloss>:
a000876c:	81 c3 e0 08 	retl 
a0008770:	01 00 00 00 	nop 
a0008774:	81 c1 e0 08 	jmp  %g7 + 8
a0008778:	01 00 00 00 	nop 

a000877c <_hardreset_custom_weak>:
a000877c:	a7 48 00 00 	rd  %psr, %l3
a0008780:	8b 34 e0 18 	srl  %l3, 0x18, %g5
a0008784:	8a 09 60 03 	and  %g5, 3, %g5
a0008788:	80 a1 60 03 	cmp  %g5, 3
a000878c:	12 80 00 08 	bne  a00087ac <_hardreset_custom_weak+0x30>
a0008790:	01 00 00 00 	nop 
a0008794:	21 28 00 2a 	sethi  %hi(0xa000a800), %l0
a0008798:	a0 14 21 a4 	or  %l0, 0x1a4, %l0	! a000a9a4 <_leon_version>
a000879c:	a2 10 20 03 	mov  3, %l1
a00087a0:	e2 24 00 00 	st  %l1, [ %l0 ]
a00087a4:	8b 44 40 00 	rd  %asr17, %g5
a00087a8:	10 80 00 01 	b  a00087ac <_hardreset_custom_weak+0x30>
a00087ac:	8a 09 60 1f 	and  %g5, 0x1f, %g5
a00087b0:	27 28 00 2a 	sethi  %hi(0xa000a800), %l3
a00087b4:	a6 14 e1 9c 	or  %l3, 0x19c, %l3	! a000a99c <_nwindows_min1>
a00087b8:	ca 24 c0 00 	st  %g5, [ %l3 ]
a00087bc:	8a 01 60 01 	inc  %g5
a00087c0:	27 28 00 2a 	sethi  %hi(0xa000a800), %l3
a00087c4:	a6 14 e1 98 	or  %l3, 0x198, %l3	! a000a998 <_nwindows>
a00087c8:	ca 24 c0 00 	st  %g5, [ %l3 ]
a00087cc:	27 28 00 2a 	sethi  %hi(0xa000a800), %l3
a00087d0:	a6 14 e1 a0 	or  %l3, 0x1a0, %l3	! a000a9a0 <_nwindows_min2>
a00087d4:	8a 21 60 02 	sub  %g5, 2, %g5
a00087d8:	ca 24 c0 00 	st  %g5, [ %l3 ]
a00087dc:	81 c3 e0 08 	retl 
a00087e0:	01 00 00 00 	nop 

a00087e4 <_hardreset_custom_svt_weak>:
a00087e4:	81 c3 e0 08 	retl 
a00087e8:	01 00 00 00 	nop 

a00087ec <_srmmu_fault>:
a00087ec:	91 d0 20 00 	ta  0
a00087f0:	01 00 00 00 	nop 
a00087f4:	01 00 00 00 	nop 
a00087f8:	01 00 00 00 	nop 
a00087fc:	81 c4 40 00 	jmp  %l1
a0008800:	81 cc 80 00 	rett  %l2

a0008804 <_hardreset_mvt>:
a0008804:	83 48 00 00 	rd  %psr, %g1
a0008808:	83 30 60 18 	srl  %g1, 0x18, %g1
a000880c:	82 08 60 03 	and  %g1, 3, %g1
a0008810:	80 a0 60 03 	cmp  %g1, 3
a0008814:	12 80 00 06 	bne  a000882c <_hardreset_mvt+0x28>
a0008818:	01 00 00 00 	nop 
a000881c:	83 44 40 00 	rd  %asr17, %g1
a0008820:	05 00 00 08 	sethi  %hi(0x2000), %g2
a0008824:	82 28 40 02 	andn  %g1, %g2, %g1
a0008828:	a3 80 40 00 	mov  %g1, %asr17
a000882c:	88 10 00 00 	mov  %g0, %g4
a0008830:	09 28 00 21 	sethi  %hi(0xa0008400), %g4
a0008834:	81 c1 22 c8 	jmp  %g4 + 0x2c8	! a00086c8 <_hardreset>
a0008838:	01 00 00 00 	nop 

a000883c <_call_initcalls>:
a000883c:	9d e3 bf 98 	save  %sp, -104, %sp
a0008840:	03 28 00 23 	sethi  %hi(0xa0008c00), %g1
a0008844:	1b 28 00 23 	sethi  %hi(0xa0008c00), %o5
a0008848:	a0 10 61 10 	or  %g1, 0x110, %l0
a000884c:	9a 13 61 10 	or  %o5, 0x110, %o5
a0008850:	80 a4 00 0d 	cmp  %l0, %o5
a0008854:	1a 80 00 10 	bcc  a0008894 <_call_initcalls+0x58>
a0008858:	a2 10 00 0d 	mov  %o5, %l1
a000885c:	10 80 00 06 	b  a0008874 <_call_initcalls+0x38>
a0008860:	c2 04 00 00 	ld  [ %l0 ], %g1
a0008864:	80 a4 00 11 	cmp  %l0, %l1
a0008868:	1a 80 00 0b 	bcc  a0008894 <_call_initcalls+0x58>
a000886c:	01 00 00 00 	nop 
a0008870:	c2 04 00 00 	ld  [ %l0 ], %g1
a0008874:	80 a0 60 00 	cmp  %g1, 0
a0008878:	02 bf ff fb 	be  a0008864 <_call_initcalls+0x28>
a000887c:	a0 04 20 04 	add  %l0, 4, %l0
a0008880:	9f c0 40 00 	call  %g1
a0008884:	01 00 00 00 	nop 
a0008888:	80 a4 00 11 	cmp  %l0, %l1
a000888c:	2a bf ff fa 	bcs,a   a0008874 <_call_initcalls+0x38>
a0008890:	c2 04 00 00 	ld  [ %l0 ], %g1
a0008894:	81 c7 e0 08 	ret 
a0008898:	81 e8 00 00 	restore 

a000889c <leonbare_trapsetup>:
a000889c:	aa 27 a0 b0 	sub  %fp, 0xb0, %l5
a00088a0:	e0 25 60 60 	st  %l0, [ %l5 + 0x60 ]
a00088a4:	e2 25 60 64 	st  %l1, [ %l5 + 0x64 ]
a00088a8:	e4 25 60 68 	st  %l2, [ %l5 + 0x68 ]
a00088ac:	c2 25 60 74 	st  %g1, [ %l5 + 0x74 ]
a00088b0:	c4 3d 60 78 	std  %g2, [ %l5 + 0x78 ]
a00088b4:	c8 3d 60 80 	std  %g4, [ %l5 + 0x80 ]
a00088b8:	cc 3d 60 88 	std  %g6, [ %l5 + 0x88 ]
a00088bc:	85 40 00 00 	rd  %y, %g2
a00088c0:	c4 25 60 6c 	st  %g2, [ %l5 + 0x6c ]
a00088c4:	f0 3d 60 90 	std  %i0, [ %l5 + 0x90 ]
a00088c8:	f4 3d 60 98 	std  %i2, [ %l5 + 0x98 ]
a00088cc:	f8 3d 60 a0 	std  %i4, [ %l5 + 0xa0 ]
a00088d0:	fc 3d 60 a8 	std  %fp, [ %l5 + 0xa8 ]
a00088d4:	a8 10 20 01 	mov  1, %l4
a00088d8:	a9 2d 00 10 	sll  %l4, %l0, %l4
a00088dc:	80 8d 00 13 	btst  %l4, %l3
a00088e0:	02 80 00 13 	be  a000892c <leonbare_trapsetup+0x90>
a00088e4:	01 00 00 00 	nop 
a00088e8:	85 34 e0 01 	srl  %l3, 1, %g2
a00088ec:	07 28 00 2a 	sethi  %hi(0xa000a800), %g3
a00088f0:	c6 00 e1 9c 	ld  [ %g3 + 0x19c ], %g3	! a000a99c <_nwindows_min1>
a00088f4:	a7 2c c0 03 	sll  %l3, %g3, %l3
a00088f8:	84 14 c0 02 	or  %l3, %g2, %g2
a00088fc:	84 08 a0 ff 	and  %g2, 0xff, %g2
a0008900:	81 e0 00 00 	save 
a0008904:	81 90 a0 00 	mov  %g2, %wim
a0008908:	e0 3b a0 00 	std  %l0, [ %sp ]
a000890c:	e4 3b a0 08 	std  %l2, [ %sp + 8 ]
a0008910:	e8 3b a0 10 	std  %l4, [ %sp + 0x10 ]
a0008914:	ec 3b a0 18 	std  %l6, [ %sp + 0x18 ]
a0008918:	f0 3b a0 20 	std  %i0, [ %sp + 0x20 ]
a000891c:	f4 3b a0 28 	std  %i2, [ %sp + 0x28 ]
a0008920:	f8 3b a0 30 	std  %i4, [ %sp + 0x30 ]
a0008924:	fc 3b a0 38 	std  %fp, [ %sp + 0x38 ]
a0008928:	81 e8 00 00 	restore 
a000892c:	81 c5 a0 08 	jmp  %l6 + 8
a0008930:	9c 10 00 15 	mov  %l5, %sp

a0008934 <leonbare_trapreturn>:
a0008934:	05 28 00 2a 	sethi  %hi(0xa000a800), %g2
a0008938:	84 10 a2 d4 	or  %g2, 0x2d4, %g2	! a000aad4 <schedule_callback>
a000893c:	c4 00 80 00 	ld  [ %g2 ], %g2
a0008940:	80 a0 80 00 	cmp  %g2, %g0
a0008944:	02 80 00 04 	be  a0008954 <leonbare_trapreturn+0x20>
a0008948:	01 00 00 00 	nop 
a000894c:	9f c0 80 00 	call  %g2
a0008950:	92 03 a0 60 	add  %sp, 0x60, %o1
a0008954:	81 8c 20 00 	mov  %l0, %psr
a0008958:	82 10 20 02 	mov  2, %g1
a000895c:	83 28 40 10 	sll  %g1, %l0, %g1
a0008960:	05 28 00 2a 	sethi  %hi(0xa000a800), %g2
a0008964:	c4 00 a1 98 	ld  [ %g2 + 0x198 ], %g2	! a000a998 <_nwindows>
a0008968:	85 30 40 02 	srl  %g1, %g2, %g2
a000896c:	82 10 40 02 	or  %g1, %g2, %g1
a0008970:	85 50 00 00 	rd  %wim, %g2
a0008974:	80 88 80 01 	btst  %g2, %g1
a0008978:	02 80 00 20 	be  a00089f8 <leonbare_trapreturn+0xc4>
a000897c:	83 28 a0 01 	sll  %g2, 1, %g1
a0008980:	07 28 00 2a 	sethi  %hi(0xa000a800), %g3
a0008984:	c6 00 e1 9c 	ld  [ %g3 + 0x19c ], %g3	! a000a99c <_nwindows_min1>
a0008988:	85 30 80 03 	srl  %g2, %g3, %g2
a000898c:	82 10 40 02 	or  %g1, %g2, %g1
a0008990:	82 08 60 ff 	and  %g1, 0xff, %g1
a0008994:	81 90 60 00 	mov  %g1, %wim
a0008998:	c2 03 a0 6c 	ld  [ %sp + 0x6c ], %g1
a000899c:	81 80 60 00 	mov  %g1, %y
a00089a0:	f0 1b a0 90 	ldd  [ %sp + 0x90 ], %i0
a00089a4:	f4 1b a0 98 	ldd  [ %sp + 0x98 ], %i2
a00089a8:	f8 1b a0 a0 	ldd  [ %sp + 0xa0 ], %i4
a00089ac:	fc 1b a0 a8 	ldd  [ %sp + 0xa8 ], %fp
a00089b0:	c2 03 a0 74 	ld  [ %sp + 0x74 ], %g1
a00089b4:	c4 1b a0 78 	ldd  [ %sp + 0x78 ], %g2
a00089b8:	c8 1b a0 80 	ldd  [ %sp + 0x80 ], %g4
a00089bc:	cc 1b a0 88 	ldd  [ %sp + 0x88 ], %g6
a00089c0:	e0 03 a0 60 	ld  [ %sp + 0x60 ], %l0
a00089c4:	e2 03 a0 64 	ld  [ %sp + 0x64 ], %l1
a00089c8:	e4 03 a0 68 	ld  [ %sp + 0x68 ], %l2
a00089cc:	81 e8 00 00 	restore 
a00089d0:	e0 1b a0 00 	ldd  [ %sp ], %l0
a00089d4:	e4 1b a0 08 	ldd  [ %sp + 8 ], %l2
a00089d8:	e8 1b a0 10 	ldd  [ %sp + 0x10 ], %l4
a00089dc:	ec 1b a0 18 	ldd  [ %sp + 0x18 ], %l6
a00089e0:	f0 1b a0 20 	ldd  [ %sp + 0x20 ], %i0
a00089e4:	f4 1b a0 28 	ldd  [ %sp + 0x28 ], %i2
a00089e8:	f8 1b a0 30 	ldd  [ %sp + 0x30 ], %i4
a00089ec:	fc 1b a0 38 	ldd  [ %sp + 0x38 ], %fp
a00089f0:	10 80 00 0f 	b  a0008a2c <leonbare_trapreturn+0xf8>
a00089f4:	81 e0 00 00 	save 
a00089f8:	c2 03 a0 6c 	ld  [ %sp + 0x6c ], %g1
a00089fc:	81 80 60 00 	mov  %g1, %y
a0008a00:	f0 1b a0 90 	ldd  [ %sp + 0x90 ], %i0
a0008a04:	f4 1b a0 98 	ldd  [ %sp + 0x98 ], %i2
a0008a08:	f8 1b a0 a0 	ldd  [ %sp + 0xa0 ], %i4
a0008a0c:	fc 1b a0 a8 	ldd  [ %sp + 0xa8 ], %fp
a0008a10:	c2 03 a0 74 	ld  [ %sp + 0x74 ], %g1
a0008a14:	c4 1b a0 78 	ldd  [ %sp + 0x78 ], %g2
a0008a18:	c8 1b a0 80 	ldd  [ %sp + 0x80 ], %g4
a0008a1c:	cc 1b a0 88 	ldd  [ %sp + 0x88 ], %g6
a0008a20:	e0 03 a0 60 	ld  [ %sp + 0x60 ], %l0
a0008a24:	e2 03 a0 64 	ld  [ %sp + 0x64 ], %l1
a0008a28:	e4 03 a0 68 	ld  [ %sp + 0x68 ], %l2
a0008a2c:	81 8c 20 00 	mov  %l0, %psr
a0008a30:	01 00 00 00 	nop 
a0008a34:	01 00 00 00 	nop 
a0008a38:	01 00 00 00 	nop 
a0008a3c:	81 c4 40 00 	jmp  %l1
a0008a40:	81 cc 80 00 	rett  %l2

a0008a44 <leonbare_trapsetup_fast>:
a0008a44:	aa 27 a0 b0 	sub  %fp, 0xb0, %l5
a0008a48:	c2 25 60 74 	st  %g1, [ %l5 + 0x74 ]
a0008a4c:	c4 3d 60 78 	std  %g2, [ %l5 + 0x78 ]
a0008a50:	c8 3d 60 80 	std  %g4, [ %l5 + 0x80 ]
a0008a54:	cc 3d 60 88 	std  %g6, [ %l5 + 0x88 ]
a0008a58:	85 40 00 00 	rd  %y, %g2
a0008a5c:	c4 25 60 6c 	st  %g2, [ %l5 + 0x6c ]
a0008a60:	a8 10 20 01 	mov  1, %l4
a0008a64:	a9 2d 00 10 	sll  %l4, %l0, %l4
a0008a68:	80 8d 00 13 	btst  %l4, %l3
a0008a6c:	02 80 00 13 	be  a0008ab8 <leonbare_trapsetup_fast+0x74>
a0008a70:	01 00 00 00 	nop 
a0008a74:	85 34 e0 01 	srl  %l3, 1, %g2
a0008a78:	07 28 00 2a 	sethi  %hi(0xa000a800), %g3
a0008a7c:	c6 00 e1 9c 	ld  [ %g3 + 0x19c ], %g3	! a000a99c <_nwindows_min1>
a0008a80:	a7 2c c0 03 	sll  %l3, %g3, %l3
a0008a84:	84 14 c0 02 	or  %l3, %g2, %g2
a0008a88:	84 08 a0 ff 	and  %g2, 0xff, %g2
a0008a8c:	81 e0 00 00 	save 
a0008a90:	81 90 a0 00 	mov  %g2, %wim
a0008a94:	e0 3b a0 00 	std  %l0, [ %sp ]
a0008a98:	e4 3b a0 08 	std  %l2, [ %sp + 8 ]
a0008a9c:	e8 3b a0 10 	std  %l4, [ %sp + 0x10 ]
a0008aa0:	ec 3b a0 18 	std  %l6, [ %sp + 0x18 ]
a0008aa4:	f0 3b a0 20 	std  %i0, [ %sp + 0x20 ]
a0008aa8:	f4 3b a0 28 	std  %i2, [ %sp + 0x28 ]
a0008aac:	f8 3b a0 30 	std  %i4, [ %sp + 0x30 ]
a0008ab0:	fc 3b a0 38 	std  %fp, [ %sp + 0x38 ]
a0008ab4:	81 e8 00 00 	restore 
a0008ab8:	81 c5 a0 08 	jmp  %l6 + 8
a0008abc:	9c 10 00 15 	mov  %l5, %sp

a0008ac0 <leonbare_trapreturn_fast>:
a0008ac0:	05 28 00 2a 	sethi  %hi(0xa000a800), %g2
a0008ac4:	84 10 a2 d4 	or  %g2, 0x2d4, %g2	! a000aad4 <schedule_callback>
a0008ac8:	c4 00 80 00 	ld  [ %g2 ], %g2
a0008acc:	80 a0 80 00 	cmp  %g2, %g0
a0008ad0:	02 80 00 04 	be  a0008ae0 <leonbare_trapreturn_fast+0x20>
a0008ad4:	01 00 00 00 	nop 
a0008ad8:	9f c0 80 00 	call  %g2
a0008adc:	92 03 a0 60 	add  %sp, 0x60, %o1
a0008ae0:	81 8c 20 00 	mov  %l0, %psr
a0008ae4:	82 10 20 02 	mov  2, %g1
a0008ae8:	83 28 40 10 	sll  %g1, %l0, %g1
a0008aec:	05 28 00 2a 	sethi  %hi(0xa000a800), %g2
a0008af0:	c4 00 a1 98 	ld  [ %g2 + 0x198 ], %g2	! a000a998 <_nwindows>
a0008af4:	85 30 40 02 	srl  %g1, %g2, %g2
a0008af8:	82 10 40 02 	or  %g1, %g2, %g1
a0008afc:	85 50 00 00 	rd  %wim, %g2
a0008b00:	80 88 80 01 	btst  %g2, %g1
a0008b04:	02 80 00 19 	be  a0008b68 <leonbare_trapreturn_fast+0xa8>
a0008b08:	83 28 a0 01 	sll  %g2, 1, %g1
a0008b0c:	07 28 00 2a 	sethi  %hi(0xa000a800), %g3
a0008b10:	c6 00 e1 9c 	ld  [ %g3 + 0x19c ], %g3	! a000a99c <_nwindows_min1>
a0008b14:	85 30 80 03 	srl  %g2, %g3, %g2
a0008b18:	82 10 40 02 	or  %g1, %g2, %g1
a0008b1c:	82 08 60 ff 	and  %g1, 0xff, %g1
a0008b20:	81 90 60 00 	mov  %g1, %wim
a0008b24:	c2 03 a0 6c 	ld  [ %sp + 0x6c ], %g1
a0008b28:	81 80 60 00 	mov  %g1, %y
a0008b2c:	c2 03 a0 74 	ld  [ %sp + 0x74 ], %g1
a0008b30:	c4 1b a0 78 	ldd  [ %sp + 0x78 ], %g2
a0008b34:	c8 1b a0 80 	ldd  [ %sp + 0x80 ], %g4
a0008b38:	cc 1b a0 88 	ldd  [ %sp + 0x88 ], %g6
a0008b3c:	81 e8 00 00 	restore 
a0008b40:	e0 1b a0 00 	ldd  [ %sp ], %l0
a0008b44:	e4 1b a0 08 	ldd  [ %sp + 8 ], %l2
a0008b48:	e8 1b a0 10 	ldd  [ %sp + 0x10 ], %l4
a0008b4c:	ec 1b a0 18 	ldd  [ %sp + 0x18 ], %l6
a0008b50:	f0 1b a0 20 	ldd  [ %sp + 0x20 ], %i0
a0008b54:	f4 1b a0 28 	ldd  [ %sp + 0x28 ], %i2
a0008b58:	f8 1b a0 30 	ldd  [ %sp + 0x30 ], %i4
a0008b5c:	fc 1b a0 38 	ldd  [ %sp + 0x38 ], %fp
a0008b60:	10 80 00 08 	b  a0008b80 <leonbare_trapreturn_fast+0xc0>
a0008b64:	81 e0 00 00 	save 
a0008b68:	c2 03 a0 6c 	ld  [ %sp + 0x6c ], %g1
a0008b6c:	81 80 60 00 	mov  %g1, %y
a0008b70:	c2 03 a0 74 	ld  [ %sp + 0x74 ], %g1
a0008b74:	c4 1b a0 78 	ldd  [ %sp + 0x78 ], %g2
a0008b78:	c8 1b a0 80 	ldd  [ %sp + 0x80 ], %g4
a0008b7c:	cc 1b a0 88 	ldd  [ %sp + 0x88 ], %g6
a0008b80:	81 8c 20 00 	mov  %l0, %psr
a0008b84:	01 00 00 00 	nop 
a0008b88:	01 00 00 00 	nop 
a0008b8c:	01 00 00 00 	nop 
a0008b90:	81 c4 40 00 	jmp  %l1
a0008b94:	81 cc 80 00 	rett  %l2

a0008b98 <ahbslv_scan>:
a0008b98:	82 10 00 08 	mov  %o0, %g1
a0008b9c:	9a 10 38 00 	mov  -2048, %o5
a0008ba0:	96 10 20 00 	clr  %o3
a0008ba4:	91 2a e0 05 	sll  %o3, 5, %o0
a0008ba8:	98 03 40 08 	add  %o5, %o0, %o4
a0008bac:	d4 03 40 08 	ld  [ %o5 + %o0 ], %o2
a0008bb0:	91 32 a0 18 	srl  %o2, 0x18, %o0
a0008bb4:	80 a2 00 01 	cmp  %o0, %g1
a0008bb8:	32 80 00 08 	bne,a   a0008bd8 <ahbslv_scan+0x40>
a0008bbc:	96 02 e0 01 	inc  %o3
a0008bc0:	91 32 a0 0c 	srl  %o2, 0xc, %o0
a0008bc4:	90 0a 2f ff 	and  %o0, 0xfff, %o0
a0008bc8:	80 a2 00 09 	cmp  %o0, %o1
a0008bcc:	02 80 00 07 	be  a0008be8 <ahbslv_scan+0x50>
a0008bd0:	94 10 00 0c 	mov  %o4, %o2
a0008bd4:	96 02 e0 01 	inc  %o3
a0008bd8:	80 a2 e0 07 	cmp  %o3, 7
a0008bdc:	28 bf ff f3 	bleu,a   a0008ba8 <ahbslv_scan+0x10>
a0008be0:	91 2a e0 05 	sll  %o3, 5, %o0
a0008be4:	94 10 20 00 	clr  %o2
a0008be8:	81 c3 e0 08 	retl 
a0008bec:	90 10 00 0a 	mov  %o2, %o0

a0008bf0 <apbslv_scan>:
a0008bf0:	82 10 00 08 	mov  %o0, %g1
a0008bf4:	98 10 20 00 	clr  %o4
a0008bf8:	91 2b 20 03 	sll  %o4, 3, %o0
a0008bfc:	9a 00 40 08 	add  %g1, %o0, %o5
a0008c00:	d6 00 40 08 	ld  [ %g1 + %o0 ], %o3
a0008c04:	91 32 e0 18 	srl  %o3, 0x18, %o0
a0008c08:	80 a2 00 09 	cmp  %o0, %o1
a0008c0c:	32 80 00 08 	bne,a   a0008c2c <apbslv_scan+0x3c>
a0008c10:	98 03 20 01 	inc  %o4
a0008c14:	91 32 e0 0c 	srl  %o3, 0xc, %o0
a0008c18:	90 0a 2f ff 	and  %o0, 0xfff, %o0
a0008c1c:	80 a2 00 0a 	cmp  %o0, %o2
a0008c20:	02 80 00 07 	be  a0008c3c <apbslv_scan+0x4c>
a0008c24:	96 10 00 0d 	mov  %o5, %o3
a0008c28:	98 03 20 01 	inc  %o4
a0008c2c:	80 a3 20 0f 	cmp  %o4, 0xf
a0008c30:	28 bf ff f3 	bleu,a   a0008bfc <apbslv_scan+0xc>
a0008c34:	91 2b 20 03 	sll  %o4, 3, %o0
a0008c38:	96 10 20 00 	clr  %o3
a0008c3c:	81 c3 e0 08 	retl 
a0008c40:	90 10 00 0b 	mov  %o3, %o0

a0008c44 <iobar_getbase>:
a0008c44:	d4 02 20 04 	ld  [ %o0 + 4 ], %o2
a0008c48:	17 3f fc 00 	sethi  %hi(0xfff00000), %o3
a0008c4c:	92 0a 40 0b 	and  %o1, %o3, %o1
a0008c50:	90 0a 80 0b 	and  %o2, %o3, %o0
a0008c54:	91 32 20 0c 	srl  %o0, 0xc, %o0
a0008c58:	92 12 40 08 	or  %o1, %o0, %o1
a0008c5c:	11 00 00 3f 	sethi  %hi(0xfc00), %o0
a0008c60:	90 12 23 f0 	or  %o0, 0x3f0, %o0	! fff0 <_trap_table-0x9fff0010>
a0008c64:	94 0a 80 08 	and  %o2, %o0, %o2
a0008c68:	95 2a a0 04 	sll  %o2, 4, %o2
a0008c6c:	94 12 80 0b 	or  %o2, %o3, %o2
a0008c70:	92 0a 40 0a 	and  %o1, %o2, %o1
a0008c74:	81 c3 e0 08 	retl 
a0008c78:	90 10 00 09 	mov  %o1, %o0

a0008c7c <__errno>:
a0008c7c:	03 28 00 29 	sethi  %hi(0xa000a400), %g1
a0008c80:	81 c3 e0 08 	retl 
a0008c84:	d0 00 60 30 	ld  [ %g1 + 0x30 ], %o0	! a000a430 <_impure_ptr>

a0008c88 <__do_global_ctors_aux>:
a0008c88:	9d e3 bf 98 	save  %sp, -104, %sp
a0008c8c:	03 28 00 23 	sethi  %hi(0xa0008c00), %g1
a0008c90:	82 10 60 f8 	or  %g1, 0xf8, %g1	! a0008cf8 <__CTOR_END__>
a0008c94:	da 00 7f fc 	ld  [ %g1 + -4 ], %o5
a0008c98:	80 a3 7f ff 	cmp  %o5, -1
a0008c9c:	02 80 00 09 	be  a0008cc0 <__do_global_ctors_aux+0x38>
a0008ca0:	a0 00 7f fc 	add  %g1, -4, %l0
a0008ca4:	82 10 00 0d 	mov  %o5, %g1
a0008ca8:	9f c0 40 00 	call  %g1
a0008cac:	a0 04 3f fc 	add  %l0, -4, %l0
a0008cb0:	c2 04 00 00 	ld  [ %l0 ], %g1
a0008cb4:	80 a0 7f ff 	cmp  %g1, -1
a0008cb8:	12 bf ff fc 	bne  a0008ca8 <__do_global_ctors_aux+0x20>
a0008cbc:	01 00 00 00 	nop 
a0008cc0:	81 c7 e0 08 	ret 
a0008cc4:	81 e8 00 00 	restore 

a0008cc8 <call___do_global_ctors_aux>:
a0008cc8:	9d e3 bf 98 	save  %sp, -104, %sp
a0008ccc:	81 c7 e0 08 	ret 
a0008cd0:	81 e8 00 00 	restore 
	...

a0008ce0 <__EH_FRAME_BEGIN__>:
	...

a0008cf0 <___CTOR_LIST__>:
a0008cf0:	00 00 00 02 	unimp  0x2

a0008cf4 <__CTOR_LIST__>:
a0008cf4:	ff ff ff ff                                         ....

a0008cf8 <__CTOR_END__>:
	...

a0008d00 <___CTOR_END__>:
a0008d00:	00 00 00 02 	unimp  0x2

a0008d04 <__DTOR_LIST__>:
a0008d04:	ff ff ff ff                                         ....

a0008d08 <__DTOR_END__>:
	...

a0008d10 <___DTOR_END__>:
a0008d10:	00 00 ff f0 	unimp  0xfff0
a0008d14:	00 00 00 00 	unimp  0

a0008d18 <key>:
a0008d18:	2b 7e 15 16 28 ae d2 a6 ab f7 15 88 09 cf 4f 3c     +~..(.........O<

a0008d28 <Te3>:
a0008d28:	63 63 a5 c6 7c 7c 84 f8 77 77 99 ee 7b 7b 8d f6     cc..||..ww..{{..
a0008d38:	f2 f2 0d ff 6b 6b bd d6 6f 6f b1 de c5 c5 54 91     ....kk..oo....T.
a0008d48:	30 30 50 60 01 01 03 02 67 67 a9 ce 2b 2b 7d 56     00P`....gg..++}V
a0008d58:	fe fe 19 e7 d7 d7 62 b5 ab ab e6 4d 76 76 9a ec     ......b....Mvv..
a0008d68:	ca ca 45 8f 82 82 9d 1f c9 c9 40 89 7d 7d 87 fa     ..E.......@.}}..
a0008d78:	fa fa 15 ef 59 59 eb b2 47 47 c9 8e f0 f0 0b fb     ....YY..GG......
a0008d88:	ad ad ec 41 d4 d4 67 b3 a2 a2 fd 5f af af ea 45     ...A..g...._...E
a0008d98:	9c 9c bf 23 a4 a4 f7 53 72 72 96 e4 c0 c0 5b 9b     ...#...Srr....[.
a0008da8:	b7 b7 c2 75 fd fd 1c e1 93 93 ae 3d 26 26 6a 4c     ...u.......=&&jL
a0008db8:	36 36 5a 6c 3f 3f 41 7e f7 f7 02 f5 cc cc 4f 83     66Zl??A~......O.
a0008dc8:	34 34 5c 68 a5 a5 f4 51 e5 e5 34 d1 f1 f1 08 f9     44\h...Q..4.....
a0008dd8:	71 71 93 e2 d8 d8 73 ab 31 31 53 62 15 15 3f 2a     qq....s.11Sb..?*
a0008de8:	04 04 0c 08 c7 c7 52 95 23 23 65 46 c3 c3 5e 9d     ......R.##eF..^.
a0008df8:	18 18 28 30 96 96 a1 37 05 05 0f 0a 9a 9a b5 2f     ..(0...7......./
a0008e08:	07 07 09 0e 12 12 36 24 80 80 9b 1b e2 e2 3d df     ......6$......=.
a0008e18:	eb eb 26 cd 27 27 69 4e b2 b2 cd 7f 75 75 9f ea     ..&.''iN....uu..
a0008e28:	09 09 1b 12 83 83 9e 1d 2c 2c 74 58 1a 1a 2e 34     ........,,tX...4
a0008e38:	1b 1b 2d 36 6e 6e b2 dc 5a 5a ee b4 a0 a0 fb 5b     ..-6nn..ZZ.....[
a0008e48:	52 52 f6 a4 3b 3b 4d 76 d6 d6 61 b7 b3 b3 ce 7d     RR..;;Mv..a....}
a0008e58:	29 29 7b 52 e3 e3 3e dd 2f 2f 71 5e 84 84 97 13     )){R..>.//q^....
a0008e68:	53 53 f5 a6 d1 d1 68 b9 00 00 00 00 ed ed 2c c1     SS....h.......,.
a0008e78:	20 20 60 40 fc fc 1f e3 b1 b1 c8 79 5b 5b ed b6       `@.......y[[..
a0008e88:	6a 6a be d4 cb cb 46 8d be be d9 67 39 39 4b 72     jj....F....g99Kr
a0008e98:	4a 4a de 94 4c 4c d4 98 58 58 e8 b0 cf cf 4a 85     JJ..LL..XX....J.
a0008ea8:	d0 d0 6b bb ef ef 2a c5 aa aa e5 4f fb fb 16 ed     ..k...*....O....
a0008eb8:	43 43 c5 86 4d 4d d7 9a 33 33 55 66 85 85 94 11     CC..MM..33Uf....
a0008ec8:	45 45 cf 8a f9 f9 10 e9 02 02 06 04 7f 7f 81 fe     EE..............
a0008ed8:	50 50 f0 a0 3c 3c 44 78 9f 9f ba 25 a8 a8 e3 4b     PP..<<Dx...%...K
a0008ee8:	51 51 f3 a2 a3 a3 fe 5d 40 40 c0 80 8f 8f 8a 05     QQ.....]@@......
a0008ef8:	92 92 ad 3f 9d 9d bc 21 38 38 48 70 f5 f5 04 f1     ...?...!88Hp....
a0008f08:	bc bc df 63 b6 b6 c1 77 da da 75 af 21 21 63 42     ...c...w..u.!!cB
a0008f18:	10 10 30 20 ff ff 1a e5 f3 f3 0e fd d2 d2 6d bf     ..0 ..........m.
a0008f28:	cd cd 4c 81 0c 0c 14 18 13 13 35 26 ec ec 2f c3     ..L.......5&../.
a0008f38:	5f 5f e1 be 97 97 a2 35 44 44 cc 88 17 17 39 2e     __.....5DD....9.
a0008f48:	c4 c4 57 93 a7 a7 f2 55 7e 7e 82 fc 3d 3d 47 7a     ..W....U~~..==Gz
a0008f58:	64 64 ac c8 5d 5d e7 ba 19 19 2b 32 73 73 95 e6     dd..]]....+2ss..
a0008f68:	60 60 a0 c0 81 81 98 19 4f 4f d1 9e dc dc 7f a3     ``......OO......
a0008f78:	22 22 66 44 2a 2a 7e 54 90 90 ab 3b 88 88 83 0b     ""fD**~T...;....
a0008f88:	46 46 ca 8c ee ee 29 c7 b8 b8 d3 6b 14 14 3c 28     FF....)....k..<(
a0008f98:	de de 79 a7 5e 5e e2 bc 0b 0b 1d 16 db db 76 ad     ..y.^^........v.
a0008fa8:	e0 e0 3b db 32 32 56 64 3a 3a 4e 74 0a 0a 1e 14     ..;.22Vd::Nt....
a0008fb8:	49 49 db 92 06 06 0a 0c 24 24 6c 48 5c 5c e4 b8     II......$$lH\\..
a0008fc8:	c2 c2 5d 9f d3 d3 6e bd ac ac ef 43 62 62 a6 c4     ..]...n....Cbb..
a0008fd8:	91 91 a8 39 95 95 a4 31 e4 e4 37 d3 79 79 8b f2     ...9...1..7.yy..
a0008fe8:	e7 e7 32 d5 c8 c8 43 8b 37 37 59 6e 6d 6d b7 da     ..2...C.77Ynmm..
a0008ff8:	8d 8d 8c 01 d5 d5 64 b1 4e 4e d2 9c a9 a9 e0 49     ......d.NN.....I
a0009008:	6c 6c b4 d8 56 56 fa ac f4 f4 07 f3 ea ea 25 cf     ll..VV........%.
a0009018:	65 65 af ca 7a 7a 8e f4 ae ae e9 47 08 08 18 10     ee..zz.....G....
a0009028:	ba ba d5 6f 78 78 88 f0 25 25 6f 4a 2e 2e 72 5c     ...oxx..%%oJ..r\
a0009038:	1c 1c 24 38 a6 a6 f1 57 b4 b4 c7 73 c6 c6 51 97     ..$8...W...s..Q.
a0009048:	e8 e8 23 cb dd dd 7c a1 74 74 9c e8 1f 1f 21 3e     ..#...|.tt....!>
a0009058:	4b 4b dd 96 bd bd dc 61 8b 8b 86 0d 8a 8a 85 0f     KK.....a........
a0009068:	70 70 90 e0 3e 3e 42 7c b5 b5 c4 71 66 66 aa cc     pp..>>B|...qff..
a0009078:	48 48 d8 90 03 03 05 06 f6 f6 01 f7 0e 0e 12 1c     HH..............
a0009088:	61 61 a3 c2 35 35 5f 6a 57 57 f9 ae b9 b9 d0 69     aa..55_jWW.....i
a0009098:	86 86 91 17 c1 c1 58 99 1d 1d 27 3a 9e 9e b9 27     ......X...':...'
a00090a8:	e1 e1 38 d9 f8 f8 13 eb 98 98 b3 2b 11 11 33 22     ..8........+..3"
a00090b8:	69 69 bb d2 d9 d9 70 a9 8e 8e 89 07 94 94 a7 33     ii....p........3
a00090c8:	9b 9b b6 2d 1e 1e 22 3c 87 87 92 15 e9 e9 20 c9     ...-.."<...... .
a00090d8:	ce ce 49 87 55 55 ff aa 28 28 78 50 df df 7a a5     ..I.UU..((xP..z.
a00090e8:	8c 8c 8f 03 a1 a1 f8 59 89 89 80 09 0d 0d 17 1a     .......Y........
a00090f8:	bf bf da 65 e6 e6 31 d7 42 42 c6 84 68 68 b8 d0     ...e..1.BB..hh..
a0009108:	41 41 c3 82 99 99 b0 29 2d 2d 77 5a 0f 0f 11 1e     AA.....)--wZ....
a0009118:	b0 b0 cb 7b 54 54 fc a8 bb bb d6 6d 16 16 3a 2c     ...{TT.....m..:,

a0009128 <Te2>:
a0009128:	63 a5 c6 63 7c 84 f8 7c 77 99 ee 77 7b 8d f6 7b     c..c|..|w..w{..{
a0009138:	f2 0d ff f2 6b bd d6 6b 6f b1 de 6f c5 54 91 c5     ....k..ko..o.T..
a0009148:	30 50 60 30 01 03 02 01 67 a9 ce 67 2b 7d 56 2b     0P`0....g..g+}V+
a0009158:	fe 19 e7 fe d7 62 b5 d7 ab e6 4d ab 76 9a ec 76     .....b....M.v..v
a0009168:	ca 45 8f ca 82 9d 1f 82 c9 40 89 c9 7d 87 fa 7d     .E.......@..}..}
a0009178:	fa 15 ef fa 59 eb b2 59 47 c9 8e 47 f0 0b fb f0     ....Y..YG..G....
a0009188:	ad ec 41 ad d4 67 b3 d4 a2 fd 5f a2 af ea 45 af     ..A..g...._...E.
a0009198:	9c bf 23 9c a4 f7 53 a4 72 96 e4 72 c0 5b 9b c0     ..#...S.r..r.[..
a00091a8:	b7 c2 75 b7 fd 1c e1 fd 93 ae 3d 93 26 6a 4c 26     ..u.......=.&jL&
a00091b8:	36 5a 6c 36 3f 41 7e 3f f7 02 f5 f7 cc 4f 83 cc     6Zl6?A~?.....O..
a00091c8:	34 5c 68 34 a5 f4 51 a5 e5 34 d1 e5 f1 08 f9 f1     4\h4..Q..4......
a00091d8:	71 93 e2 71 d8 73 ab d8 31 53 62 31 15 3f 2a 15     q..q.s..1Sb1.?*.
a00091e8:	04 0c 08 04 c7 52 95 c7 23 65 46 23 c3 5e 9d c3     .....R..#eF#.^..
a00091f8:	18 28 30 18 96 a1 37 96 05 0f 0a 05 9a b5 2f 9a     .(0...7......./.
a0009208:	07 09 0e 07 12 36 24 12 80 9b 1b 80 e2 3d df e2     .....6$......=..
a0009218:	eb 26 cd eb 27 69 4e 27 b2 cd 7f b2 75 9f ea 75     .&..'iN'....u..u
a0009228:	09 1b 12 09 83 9e 1d 83 2c 74 58 2c 1a 2e 34 1a     ........,tX,..4.
a0009238:	1b 2d 36 1b 6e b2 dc 6e 5a ee b4 5a a0 fb 5b a0     .-6.n..nZ..Z..[.
a0009248:	52 f6 a4 52 3b 4d 76 3b d6 61 b7 d6 b3 ce 7d b3     R..R;Mv;.a....}.
a0009258:	29 7b 52 29 e3 3e dd e3 2f 71 5e 2f 84 97 13 84     ){R).>../q^/....
a0009268:	53 f5 a6 53 d1 68 b9 d1 00 00 00 00 ed 2c c1 ed     S..S.h.......,..
a0009278:	20 60 40 20 fc 1f e3 fc b1 c8 79 b1 5b ed b6 5b      `@ ......y.[..[
a0009288:	6a be d4 6a cb 46 8d cb be d9 67 be 39 4b 72 39     j..j.F....g.9Kr9
a0009298:	4a de 94 4a 4c d4 98 4c 58 e8 b0 58 cf 4a 85 cf     J..JL..LX..X.J..
a00092a8:	d0 6b bb d0 ef 2a c5 ef aa e5 4f aa fb 16 ed fb     .k...*....O.....
a00092b8:	43 c5 86 43 4d d7 9a 4d 33 55 66 33 85 94 11 85     C..CM..M3Uf3....
a00092c8:	45 cf 8a 45 f9 10 e9 f9 02 06 04 02 7f 81 fe 7f     E..E............
a00092d8:	50 f0 a0 50 3c 44 78 3c 9f ba 25 9f a8 e3 4b a8     P..P<Dx<..%...K.
a00092e8:	51 f3 a2 51 a3 fe 5d a3 40 c0 80 40 8f 8a 05 8f     Q..Q..].@..@....
a00092f8:	92 ad 3f 92 9d bc 21 9d 38 48 70 38 f5 04 f1 f5     ..?...!.8Hp8....
a0009308:	bc df 63 bc b6 c1 77 b6 da 75 af da 21 63 42 21     ..c...w..u..!cB!
a0009318:	10 30 20 10 ff 1a e5 ff f3 0e fd f3 d2 6d bf d2     .0 ..........m..
a0009328:	cd 4c 81 cd 0c 14 18 0c 13 35 26 13 ec 2f c3 ec     .L.......5&../..
a0009338:	5f e1 be 5f 97 a2 35 97 44 cc 88 44 17 39 2e 17     _.._..5.D..D.9..
a0009348:	c4 57 93 c4 a7 f2 55 a7 7e 82 fc 7e 3d 47 7a 3d     .W....U.~..~=Gz=
a0009358:	64 ac c8 64 5d e7 ba 5d 19 2b 32 19 73 95 e6 73     d..d]..].+2.s..s
a0009368:	60 a0 c0 60 81 98 19 81 4f d1 9e 4f dc 7f a3 dc     `..`....O..O....
a0009378:	22 66 44 22 2a 7e 54 2a 90 ab 3b 90 88 83 0b 88     "fD"*~T*..;.....
a0009388:	46 ca 8c 46 ee 29 c7 ee b8 d3 6b b8 14 3c 28 14     F..F.)....k..<(.
a0009398:	de 79 a7 de 5e e2 bc 5e 0b 1d 16 0b db 76 ad db     .y..^..^.....v..
a00093a8:	e0 3b db e0 32 56 64 32 3a 4e 74 3a 0a 1e 14 0a     .;..2Vd2:Nt:....
a00093b8:	49 db 92 49 06 0a 0c 06 24 6c 48 24 5c e4 b8 5c     I..I....$lH$\..\
a00093c8:	c2 5d 9f c2 d3 6e bd d3 ac ef 43 ac 62 a6 c4 62     .]...n....C.b..b
a00093d8:	91 a8 39 91 95 a4 31 95 e4 37 d3 e4 79 8b f2 79     ..9...1..7..y..y
a00093e8:	e7 32 d5 e7 c8 43 8b c8 37 59 6e 37 6d b7 da 6d     .2...C..7Yn7m..m
a00093f8:	8d 8c 01 8d d5 64 b1 d5 4e d2 9c 4e a9 e0 49 a9     .....d..N..N..I.
a0009408:	6c b4 d8 6c 56 fa ac 56 f4 07 f3 f4 ea 25 cf ea     l..lV..V.....%..
a0009418:	65 af ca 65 7a 8e f4 7a ae e9 47 ae 08 18 10 08     e..ez..z..G.....
a0009428:	ba d5 6f ba 78 88 f0 78 25 6f 4a 25 2e 72 5c 2e     ..o.x..x%oJ%.r\.
a0009438:	1c 24 38 1c a6 f1 57 a6 b4 c7 73 b4 c6 51 97 c6     .$8...W...s..Q..
a0009448:	e8 23 cb e8 dd 7c a1 dd 74 9c e8 74 1f 21 3e 1f     .#...|..t..t.!>.
a0009458:	4b dd 96 4b bd dc 61 bd 8b 86 0d 8b 8a 85 0f 8a     K..K..a.........
a0009468:	70 90 e0 70 3e 42 7c 3e b5 c4 71 b5 66 aa cc 66     p..p>B|>..q.f..f
a0009478:	48 d8 90 48 03 05 06 03 f6 01 f7 f6 0e 12 1c 0e     H..H............
a0009488:	61 a3 c2 61 35 5f 6a 35 57 f9 ae 57 b9 d0 69 b9     a..a5_j5W..W..i.
a0009498:	86 91 17 86 c1 58 99 c1 1d 27 3a 1d 9e b9 27 9e     .....X...':...'.
a00094a8:	e1 38 d9 e1 f8 13 eb f8 98 b3 2b 98 11 33 22 11     .8........+..3".
a00094b8:	69 bb d2 69 d9 70 a9 d9 8e 89 07 8e 94 a7 33 94     i..i.p........3.
a00094c8:	9b b6 2d 9b 1e 22 3c 1e 87 92 15 87 e9 20 c9 e9     ..-.."<...... ..
a00094d8:	ce 49 87 ce 55 ff aa 55 28 78 50 28 df 7a a5 df     .I..U..U(xP(.z..
a00094e8:	8c 8f 03 8c a1 f8 59 a1 89 80 09 89 0d 17 1a 0d     ......Y.........
a00094f8:	bf da 65 bf e6 31 d7 e6 42 c6 84 42 68 b8 d0 68     ..e..1..B..Bh..h
a0009508:	41 c3 82 41 99 b0 29 99 2d 77 5a 2d 0f 11 1e 0f     A..A..).-wZ-....
a0009518:	b0 cb 7b b0 54 fc a8 54 bb d6 6d bb 16 3a 2c 16     ..{.T..T..m..:,.

a0009528 <Te1>:
a0009528:	a5 c6 63 63 84 f8 7c 7c 99 ee 77 77 8d f6 7b 7b     ..cc..||..ww..{{
a0009538:	0d ff f2 f2 bd d6 6b 6b b1 de 6f 6f 54 91 c5 c5     ......kk..ooT...
a0009548:	50 60 30 30 03 02 01 01 a9 ce 67 67 7d 56 2b 2b     P`00......gg}V++
a0009558:	19 e7 fe fe 62 b5 d7 d7 e6 4d ab ab 9a ec 76 76     ....b....M....vv
a0009568:	45 8f ca ca 9d 1f 82 82 40 89 c9 c9 87 fa 7d 7d     E.......@.....}}
a0009578:	15 ef fa fa eb b2 59 59 c9 8e 47 47 0b fb f0 f0     ......YY..GG....
a0009588:	ec 41 ad ad 67 b3 d4 d4 fd 5f a2 a2 ea 45 af af     .A..g...._...E..
a0009598:	bf 23 9c 9c f7 53 a4 a4 96 e4 72 72 5b 9b c0 c0     .#...S....rr[...
a00095a8:	c2 75 b7 b7 1c e1 fd fd ae 3d 93 93 6a 4c 26 26     .u.......=..jL&&
a00095b8:	5a 6c 36 36 41 7e 3f 3f 02 f5 f7 f7 4f 83 cc cc     Zl66A~??....O...
a00095c8:	5c 68 34 34 f4 51 a5 a5 34 d1 e5 e5 08 f9 f1 f1     \h44.Q..4.......
a00095d8:	93 e2 71 71 73 ab d8 d8 53 62 31 31 3f 2a 15 15     ..qqs...Sb11?*..
a00095e8:	0c 08 04 04 52 95 c7 c7 65 46 23 23 5e 9d c3 c3     ....R...eF##^...
a00095f8:	28 30 18 18 a1 37 96 96 0f 0a 05 05 b5 2f 9a 9a     (0...7......./..
a0009608:	09 0e 07 07 36 24 12 12 9b 1b 80 80 3d df e2 e2     ....6$......=...
a0009618:	26 cd eb eb 69 4e 27 27 cd 7f b2 b2 9f ea 75 75     &...iN''......uu
a0009628:	1b 12 09 09 9e 1d 83 83 74 58 2c 2c 2e 34 1a 1a     ........tX,,.4..
a0009638:	2d 36 1b 1b b2 dc 6e 6e ee b4 5a 5a fb 5b a0 a0     -6....nn..ZZ.[..
a0009648:	f6 a4 52 52 4d 76 3b 3b 61 b7 d6 d6 ce 7d b3 b3     ..RRMv;;a....}..
a0009658:	7b 52 29 29 3e dd e3 e3 71 5e 2f 2f 97 13 84 84     {R))>...q^//....
a0009668:	f5 a6 53 53 68 b9 d1 d1 00 00 00 00 2c c1 ed ed     ..SSh.......,...
a0009678:	60 40 20 20 1f e3 fc fc c8 79 b1 b1 ed b6 5b 5b     `@  .....y....[[
a0009688:	be d4 6a 6a 46 8d cb cb d9 67 be be 4b 72 39 39     ..jjF....g..Kr99
a0009698:	de 94 4a 4a d4 98 4c 4c e8 b0 58 58 4a 85 cf cf     ..JJ..LL..XXJ...
a00096a8:	6b bb d0 d0 2a c5 ef ef e5 4f aa aa 16 ed fb fb     k...*....O......
a00096b8:	c5 86 43 43 d7 9a 4d 4d 55 66 33 33 94 11 85 85     ..CC..MMUf33....
a00096c8:	cf 8a 45 45 10 e9 f9 f9 06 04 02 02 81 fe 7f 7f     ..EE............
a00096d8:	f0 a0 50 50 44 78 3c 3c ba 25 9f 9f e3 4b a8 a8     ..PPDx<<.%...K..
a00096e8:	f3 a2 51 51 fe 5d a3 a3 c0 80 40 40 8a 05 8f 8f     ..QQ.]....@@....
a00096f8:	ad 3f 92 92 bc 21 9d 9d 48 70 38 38 04 f1 f5 f5     .?...!..Hp88....
a0009708:	df 63 bc bc c1 77 b6 b6 75 af da da 63 42 21 21     .c...w..u...cB!!
a0009718:	30 20 10 10 1a e5 ff ff 0e fd f3 f3 6d bf d2 d2     0 ..........m...
a0009728:	4c 81 cd cd 14 18 0c 0c 35 26 13 13 2f c3 ec ec     L.......5&../...
a0009738:	e1 be 5f 5f a2 35 97 97 cc 88 44 44 39 2e 17 17     ..__.5....DD9...
a0009748:	57 93 c4 c4 f2 55 a7 a7 82 fc 7e 7e 47 7a 3d 3d     W....U....~~Gz==
a0009758:	ac c8 64 64 e7 ba 5d 5d 2b 32 19 19 95 e6 73 73     ..dd..]]+2....ss
a0009768:	a0 c0 60 60 98 19 81 81 d1 9e 4f 4f 7f a3 dc dc     ..``......OO....
a0009778:	66 44 22 22 7e 54 2a 2a ab 3b 90 90 83 0b 88 88     fD""~T**.;......
a0009788:	ca 8c 46 46 29 c7 ee ee d3 6b b8 b8 3c 28 14 14     ..FF)....k..<(..
a0009798:	79 a7 de de e2 bc 5e 5e 1d 16 0b 0b 76 ad db db     y.....^^....v...
a00097a8:	3b db e0 e0 56 64 32 32 4e 74 3a 3a 1e 14 0a 0a     ;...Vd22Nt::....
a00097b8:	db 92 49 49 0a 0c 06 06 6c 48 24 24 e4 b8 5c 5c     ..II....lH$$..\\
a00097c8:	5d 9f c2 c2 6e bd d3 d3 ef 43 ac ac a6 c4 62 62     ]...n....C....bb
a00097d8:	a8 39 91 91 a4 31 95 95 37 d3 e4 e4 8b f2 79 79     .9...1..7.....yy
a00097e8:	32 d5 e7 e7 43 8b c8 c8 59 6e 37 37 b7 da 6d 6d     2...C...Yn77..mm
a00097f8:	8c 01 8d 8d 64 b1 d5 d5 d2 9c 4e 4e e0 49 a9 a9     ....d.....NN.I..
a0009808:	b4 d8 6c 6c fa ac 56 56 07 f3 f4 f4 25 cf ea ea     ..ll..VV....%...
a0009818:	af ca 65 65 8e f4 7a 7a e9 47 ae ae 18 10 08 08     ..ee..zz.G......
a0009828:	d5 6f ba ba 88 f0 78 78 6f 4a 25 25 72 5c 2e 2e     .o....xxoJ%%r\..
a0009838:	24 38 1c 1c f1 57 a6 a6 c7 73 b4 b4 51 97 c6 c6     $8...W...s..Q...
a0009848:	23 cb e8 e8 7c a1 dd dd 9c e8 74 74 21 3e 1f 1f     #...|.....tt!>..
a0009858:	dd 96 4b 4b dc 61 bd bd 86 0d 8b 8b 85 0f 8a 8a     ..KK.a..........
a0009868:	90 e0 70 70 42 7c 3e 3e c4 71 b5 b5 aa cc 66 66     ..ppB|>>.q....ff
a0009878:	d8 90 48 48 05 06 03 03 01 f7 f6 f6 12 1c 0e 0e     ..HH............
a0009888:	a3 c2 61 61 5f 6a 35 35 f9 ae 57 57 d0 69 b9 b9     ..aa_j55..WW.i..
a0009898:	91 17 86 86 58 99 c1 c1 27 3a 1d 1d b9 27 9e 9e     ....X...':...'..
a00098a8:	38 d9 e1 e1 13 eb f8 f8 b3 2b 98 98 33 22 11 11     8........+..3"..
a00098b8:	bb d2 69 69 70 a9 d9 d9 89 07 8e 8e a7 33 94 94     ..iip........3..
a00098c8:	b6 2d 9b 9b 22 3c 1e 1e 92 15 87 87 20 c9 e9 e9     .-.."<...... ...
a00098d8:	49 87 ce ce ff aa 55 55 78 50 28 28 7a a5 df df     I.....UUxP((z...
a00098e8:	8f 03 8c 8c f8 59 a1 a1 80 09 89 89 17 1a 0d 0d     .....Y..........
a00098f8:	da 65 bf bf 31 d7 e6 e6 c6 84 42 42 b8 d0 68 68     .e..1.....BB..hh
a0009908:	c3 82 41 41 b0 29 99 99 77 5a 2d 2d 11 1e 0f 0f     ..AA.)..wZ--....
a0009918:	cb 7b b0 b0 fc a8 54 54 d6 6d bb bb 3a 2c 16 16     .{....TT.m..:,..

a0009928 <Te0>:
a0009928:	c6 63 63 a5 f8 7c 7c 84 ee 77 77 99 f6 7b 7b 8d     .cc..||..ww..{{.
a0009938:	ff f2 f2 0d d6 6b 6b bd de 6f 6f b1 91 c5 c5 54     .....kk..oo....T
a0009948:	60 30 30 50 02 01 01 03 ce 67 67 a9 56 2b 2b 7d     `00P.....gg.V++}
a0009958:	e7 fe fe 19 b5 d7 d7 62 4d ab ab e6 ec 76 76 9a     .......bM....vv.
a0009968:	8f ca ca 45 1f 82 82 9d 89 c9 c9 40 fa 7d 7d 87     ...E.......@.}}.
a0009978:	ef fa fa 15 b2 59 59 eb 8e 47 47 c9 fb f0 f0 0b     .....YY..GG.....
a0009988:	41 ad ad ec b3 d4 d4 67 5f a2 a2 fd 45 af af ea     A......g_...E...
a0009998:	23 9c 9c bf 53 a4 a4 f7 e4 72 72 96 9b c0 c0 5b     #...S....rr....[
a00099a8:	75 b7 b7 c2 e1 fd fd 1c 3d 93 93 ae 4c 26 26 6a     u.......=...L&&j
a00099b8:	6c 36 36 5a 7e 3f 3f 41 f5 f7 f7 02 83 cc cc 4f     l66Z~??A.......O
a00099c8:	68 34 34 5c 51 a5 a5 f4 d1 e5 e5 34 f9 f1 f1 08     h44\Q......4....
a00099d8:	e2 71 71 93 ab d8 d8 73 62 31 31 53 2a 15 15 3f     .qq....sb11S*..?
a00099e8:	08 04 04 0c 95 c7 c7 52 46 23 23 65 9d c3 c3 5e     .......RF##e...^
a00099f8:	30 18 18 28 37 96 96 a1 0a 05 05 0f 2f 9a 9a b5     0..(7......./...
a0009a08:	0e 07 07 09 24 12 12 36 1b 80 80 9b df e2 e2 3d     ....$..6.......=
a0009a18:	cd eb eb 26 4e 27 27 69 7f b2 b2 cd ea 75 75 9f     ...&N''i.....uu.
a0009a28:	12 09 09 1b 1d 83 83 9e 58 2c 2c 74 34 1a 1a 2e     ........X,,t4...
a0009a38:	36 1b 1b 2d dc 6e 6e b2 b4 5a 5a ee 5b a0 a0 fb     6..-.nn..ZZ.[...
a0009a48:	a4 52 52 f6 76 3b 3b 4d b7 d6 d6 61 7d b3 b3 ce     .RR.v;;M...a}...
a0009a58:	52 29 29 7b dd e3 e3 3e 5e 2f 2f 71 13 84 84 97     R)){...>^//q....
a0009a68:	a6 53 53 f5 b9 d1 d1 68 00 00 00 00 c1 ed ed 2c     .SS....h.......,
a0009a78:	40 20 20 60 e3 fc fc 1f 79 b1 b1 c8 b6 5b 5b ed     @  `....y....[[.
a0009a88:	d4 6a 6a be 8d cb cb 46 67 be be d9 72 39 39 4b     .jj....Fg...r99K
a0009a98:	94 4a 4a de 98 4c 4c d4 b0 58 58 e8 85 cf cf 4a     .JJ..LL..XX....J
a0009aa8:	bb d0 d0 6b c5 ef ef 2a 4f aa aa e5 ed fb fb 16     ...k...*O.......
a0009ab8:	86 43 43 c5 9a 4d 4d d7 66 33 33 55 11 85 85 94     .CC..MM.f33U....
a0009ac8:	8a 45 45 cf e9 f9 f9 10 04 02 02 06 fe 7f 7f 81     .EE.............
a0009ad8:	a0 50 50 f0 78 3c 3c 44 25 9f 9f ba 4b a8 a8 e3     .PP.x<<D%...K...
a0009ae8:	a2 51 51 f3 5d a3 a3 fe 80 40 40 c0 05 8f 8f 8a     .QQ.]....@@.....
a0009af8:	3f 92 92 ad 21 9d 9d bc 70 38 38 48 f1 f5 f5 04     ?...!...p88H....
a0009b08:	63 bc bc df 77 b6 b6 c1 af da da 75 42 21 21 63     c...w......uB!!c
a0009b18:	20 10 10 30 e5 ff ff 1a fd f3 f3 0e bf d2 d2 6d      ..0...........m
a0009b28:	81 cd cd 4c 18 0c 0c 14 26 13 13 35 c3 ec ec 2f     ...L....&..5.../
a0009b38:	be 5f 5f e1 35 97 97 a2 88 44 44 cc 2e 17 17 39     .__.5....DD....9
a0009b48:	93 c4 c4 57 55 a7 a7 f2 fc 7e 7e 82 7a 3d 3d 47     ...WU....~~.z==G
a0009b58:	c8 64 64 ac ba 5d 5d e7 32 19 19 2b e6 73 73 95     .dd..]].2..+.ss.
a0009b68:	c0 60 60 a0 19 81 81 98 9e 4f 4f d1 a3 dc dc 7f     .``......OO.....
a0009b78:	44 22 22 66 54 2a 2a 7e 3b 90 90 ab 0b 88 88 83     D""fT**~;.......
a0009b88:	8c 46 46 ca c7 ee ee 29 6b b8 b8 d3 28 14 14 3c     .FF....)k...(..<
a0009b98:	a7 de de 79 bc 5e 5e e2 16 0b 0b 1d ad db db 76     ...y.^^........v
a0009ba8:	db e0 e0 3b 64 32 32 56 74 3a 3a 4e 14 0a 0a 1e     ...;d22Vt::N....
a0009bb8:	92 49 49 db 0c 06 06 0a 48 24 24 6c b8 5c 5c e4     .II.....H$$l.\\.
a0009bc8:	9f c2 c2 5d bd d3 d3 6e 43 ac ac ef c4 62 62 a6     ...]...nC....bb.
a0009bd8:	39 91 91 a8 31 95 95 a4 d3 e4 e4 37 f2 79 79 8b     9...1......7.yy.
a0009be8:	d5 e7 e7 32 8b c8 c8 43 6e 37 37 59 da 6d 6d b7     ...2...Cn77Y.mm.
a0009bf8:	01 8d 8d 8c b1 d5 d5 64 9c 4e 4e d2 49 a9 a9 e0     .......d.NN.I...
a0009c08:	d8 6c 6c b4 ac 56 56 fa f3 f4 f4 07 cf ea ea 25     .ll..VV........%
a0009c18:	ca 65 65 af f4 7a 7a 8e 47 ae ae e9 10 08 08 18     .ee..zz.G.......
a0009c28:	6f ba ba d5 f0 78 78 88 4a 25 25 6f 5c 2e 2e 72     o....xx.J%%o\..r
a0009c38:	38 1c 1c 24 57 a6 a6 f1 73 b4 b4 c7 97 c6 c6 51     8..$W...s......Q
a0009c48:	cb e8 e8 23 a1 dd dd 7c e8 74 74 9c 3e 1f 1f 21     ...#...|.tt.>..!
a0009c58:	96 4b 4b dd 61 bd bd dc 0d 8b 8b 86 0f 8a 8a 85     .KK.a...........
a0009c68:	e0 70 70 90 7c 3e 3e 42 71 b5 b5 c4 cc 66 66 aa     .pp.|>>Bq....ff.
a0009c78:	90 48 48 d8 06 03 03 05 f7 f6 f6 01 1c 0e 0e 12     .HH.............
a0009c88:	c2 61 61 a3 6a 35 35 5f ae 57 57 f9 69 b9 b9 d0     .aa.j55_.WW.i...
a0009c98:	17 86 86 91 99 c1 c1 58 3a 1d 1d 27 27 9e 9e b9     .......X:..''...
a0009ca8:	d9 e1 e1 38 eb f8 f8 13 2b 98 98 b3 22 11 11 33     ...8....+..."..3
a0009cb8:	d2 69 69 bb a9 d9 d9 70 07 8e 8e 89 33 94 94 a7     .ii....p....3...
a0009cc8:	2d 9b 9b b6 3c 1e 1e 22 15 87 87 92 c9 e9 e9 20     -...<.."....... 
a0009cd8:	87 ce ce 49 aa 55 55 ff 50 28 28 78 a5 df df 7a     ...I.UU.P((x...z
a0009ce8:	03 8c 8c 8f 59 a1 a1 f8 09 89 89 80 1a 0d 0d 17     ....Y...........
a0009cf8:	65 bf bf da d7 e6 e6 31 84 42 42 c6 d0 68 68 b8     e......1.BB..hh.
a0009d08:	82 41 41 c3 29 99 99 b0 5a 2d 2d 77 1e 0f 0f 11     .AA.)...Z--w....
a0009d18:	7b b0 b0 cb a8 54 54 fc 6d bb bb d6 2c 16 16 3a     {....TT.m...,..:

a0009d28 <rcon>:
a0009d28:	01 00 00 00 02 00 00 00 04 00 00 00 08 00 00 00     ................
a0009d38:	10 00 00 00 20 00 00 00 40 00 00 00 80 00 00 00     .... ...@.......
a0009d48:	1b 00 00 00 36 00 00 00 41 45 53 5f 74 62 6f 78     ....6...AES_tbox
a0009d58:	2e 63 00 00 00 00 00 00 69 6e 20 26 26 20 6f 75     .c......in && ou
a0009d68:	74 20 26 26 20 6b 65 79 00 6b c1 be e2 2e 40 9f     t && key.k....@.
a0009d78:	96 e9 3d 7e 11 73 93 17 2a 00 00 00 00 00 00 00     ..=~.s..*.......
a0009d88:	61 73 73 65 72 74 69 6f 6e 20 22 25 73 22 20 66     assertion "%s" f
a0009d98:	61 69 6c 65 64 3a 20 66 69 6c 65 20 22 25 73 22     ailed: file "%s"
a0009da8:	2c 20 6c 69 6e 65 20 25 64 0a 00 00                 , line %d...

a0009db4 <_global_impure_ptr>:
a0009db4:	a0 00 9e e0 43 00 00 00 00 00 00 00                 ....C.......

a0009dc0 <blanks.0>:
a0009dc0:	20 20 20 20 20 20 20 20 20 20 20 20 20 20 20 20                     

a0009dd0 <zeroes.1>:
a0009dd0:	30 30 30 30 30 30 30 30 30 30 30 30 30 30 30 30     0000000000000000
a0009de0:	62 75 67 20 69 6e 20 76 66 70 72 69 6e 74 66 3a     bug in vfprintf:
a0009df0:	20 62 61 64 20 62 61 73 65 00 00 00 00 00 00 00      bad base.......
a0009e00:	30 31 32 33 34 35 36 37 38 39 61 62 63 64 65 66     0123456789abcdef
	...
a0009e18:	30 31 32 33 34 35 36 37 38 39 41 42 43 44 45 46     0123456789ABCDEF
	...
a0009e30:	28 6e 75 6c 6c 29 00 00 43 2d 55 54 46 2d 38 00     (null)..C-UTF-8.
a0009e40:	43 2d 53 4a 49 53 00 00 43 2d 45 55 43 4a 50 00     C-SJIS..C-EUCJP.
a0009e50:	43 2d 4a 49 53 00 00 00 2e 00 00 00 00 00 00 00     C-JIS...........
a0009e60:	49 53 4f 2d 38 38 35 39 2d 31 00 00                 ISO-8859-1..

a0009e6c <lconv>:
a0009e6c:	a0 00 9e 58 a0 00 9e 28 a0 00 9e 28 a0 00 9e 28     ...X...(...(...(
a0009e7c:	a0 00 9e 28 a0 00 9e 28 a0 00 9e 28 a0 00 9e 28     ...(...(...(...(
a0009e8c:	a0 00 9e 28 a0 00 9e 28 7f 7f 7f 7f 7f 7f 7f 7f     ...(...(........

a0009e9c <_init>:
a0009e9c:	9d e3 bf a0 	save  %sp, -96, %sp

a0009ea0 <_erodata>:
a0009ea0:	7f ff dc 95 	call  a00010f4 <frame_dummy>
a0009ea4:	01 00 00 00 	nop 
a0009ea8:	7f ff fb 78 	call  a0008c88 <__do_global_ctors_aux>
a0009eac:	01 00 00 00 	nop 
a0009eb0:	81 c7 e0 08 	ret 
a0009eb4:	81 e8 00 00 	restore 

a0009eb8 <_fini>:
a0009eb8:	9d e3 bf a0 	save  %sp, -96, %sp
a0009ebc:	7f ff dc 70 	call  a000107c <__do_global_dtors_aux>
a0009ec0:	01 00 00 00 	nop 
a0009ec4:	81 c7 e0 08 	ret 
a0009ec8:	81 e8 00 00 	restore 
a0009ecc:	00 00 00 00 	unimp  0
